 PhysXCommon_64

 Timestamp is 6663e14a (Sat Jun  8 12:42:50 2024)

 Preferred load address is 0000000180000000

 Start         Length     Name                   Class
 0001:00000000 00003530H .text$di                CODE
 0001:00003530 001d45e0H .text$mn                CODE
 0001:001d7b10 00000040H .text$mn$00             CODE
 0001:001d7b50 00000680H .text$x                 CODE
 0001:001d81d0 0000000fH .text$yd                CODE
 0002:00000000 00000288H .idata$5                DATA
 0002:00000288 00000038H .00cfg                  DATA
 0002:000002c0 00000008H .CRT$XCA                DATA
 0002:000002c8 000019d0H .CRT$XCU                DATA
 0002:00001c98 00000008H .CRT$XCZ                DATA
 0002:00001ca0 00000008H .CRT$XIA                DATA
 0002:00001ca8 00000018H .CRT$XIC                DATA
 0002:00001cc0 00000008H .CRT$XIZ                DATA
 0002:00001cc8 00000008H .CRT$XPA                DATA
 0002:00001cd0 00000010H .CRT$XPX                DATA
 0002:00001ce0 00000008H .CRT$XPXA               DATA
 0002:00001ce8 00000008H .CRT$XPZ                DATA
 0002:00001cf0 00000008H .CRT$XTA                DATA
 0002:00001cf8 00000008H .CRT$XTZ                DATA
 0002:00001d00 00000000H .gehcont$y              DATA
 0002:00001d00 00000000H .gfids$y                DATA
 0002:00001d00 00011780H .rdata                  DATA
 0002:00013480 00000000H .rdata$CastGuardVftablesA DATA
 0002:00013480 00000000H .rdata$CastGuardVftablesC DATA
 0002:00013480 0000043cH .rdata$r                DATA
 0002:000138bc 0000022cH .rdata$voltmd           DATA
 0002:00013ae8 00000430H .rdata$zzzdbg           DATA
 0002:00013f18 00000008H .rtc$IAA                DATA
 0002:00013f20 00000008H .rtc$IZZ                DATA
 0002:00013f28 00000008H .rtc$TAA                DATA
 0002:00013f30 00000008H .rtc$TZZ                DATA
 0002:00013f38 00015220H .xdata                  DATA
 0002:00029158 00000084H .xdata$x                DATA
 0002:000291dc 00000020H .didat$2                DATA
 0002:000291fc 00000024H .didat$3                DATA
 0002:00029220 000000c8H .didat$4                DATA
 0002:000292e8 00000418H .didat$6                DATA
 0002:00029700 000000d0H .didat$7                DATA
 0002:000297d0 0000c154H .edata                  DATA
 0002:00035924 00000014H .idata$2                DATA
 0002:00035938 00000018H .idata$3                DATA
 0002:00035950 00000288H .idata$4                DATA
 0002:00035bd8 000005caH .idata$6                DATA
 0003:00000000 00001c40H .data                   DATA
 0003:00001c40 000011d8H .data$r                 DATA
 0003:00002e18 000000f0H .data$rs                DATA
 0003:00002f08 000000c8H .didat$5                DATA
 0003:00002fd0 0000460cH .bss                    DATA
 0004:00000000 0000c6f0H .pdata                  DATA
 0005:00000000 0000236cH _RDATA                  DATA
 0006:00000000 000000a0H .rsrc$01                DATA
 0006:000000a0 000004b0H .rsrc$02                DATA

  Address         Publics by Value              Rva+Base               Lib:Object

 0000:00000000       __AbsoluteZero             0000000000000000     <absolute>
 0000:00000000       ___safe_se_handler_count   0000000000000000     <absolute>
 0000:00000000       ___safe_se_handler_table   0000000000000000     <absolute>
 0000:00000000       __arm64x_extra_rfe_table   0000000000000000     <absolute>
 0000:00000000       __arm64x_extra_rfe_table_size 0000000000000000     <absolute>
 0000:00000000       __arm64x_native_entrypoint 0000000000000000     <absolute>
 0000:00000000       __arm64x_redirection_metadata 0000000000000000     <absolute>
 0000:00000000       __arm64x_redirection_metadata_count 0000000000000000     <absolute>
 0000:00000000       __dynamic_value_reloc_table 0000000000000000     <absolute>
 0000:00000000       __enclave_config           0000000000000000     <absolute>
 0000:00000000       __guard_check_icall_a64n_fptr 0000000000000000     <absolute>
 0000:00000000       __guard_eh_cont_count      0000000000000000     <absolute>
 0000:00000000       __guard_eh_cont_table      0000000000000000     <absolute>
 0000:00000000       __guard_fids_count         0000000000000000     <absolute>
 0000:00000000       __guard_fids_table         0000000000000000     <absolute>
 0000:00000000       __guard_iat_count          0000000000000000     <absolute>
 0000:00000000       __guard_iat_table          0000000000000000     <absolute>
 0000:00000000       __guard_longjmp_count      0000000000000000     <absolute>
 0000:00000000       __guard_longjmp_table      0000000000000000     <absolute>
 0000:00000000       __hybrid_auxiliary_iat     0000000000000000     <absolute>
 0000:00000000       __hybrid_auxiliary_iat_copy 0000000000000000     <absolute>
 0000:00000000       __hybrid_code_map          0000000000000000     <absolute>
 0000:00000000       __hybrid_code_map_count    0000000000000000     <absolute>
 0000:00000000       __x64_code_ranges_to_entry_points 0000000000000000     <absolute>
 0000:00000000       __x64_code_ranges_to_entry_points_count 0000000000000000     <absolute>
 0000:00000100       __guard_flags              0000000000000100     <absolute>
 0000:00000000       __ImageBase                0000000180000000     <linker-defined>
 0001:00003530       ??0PtrTable@Cm@physx@@QEAA@W4PxEMPTY@2@@Z 0000000180004530 f i CmPtrTable.obj
 0001:00003550       ??0PtrTable@Cm@physx@@QEAA@XZ 0000000180004550 f   CmPtrTable.obj
 0001:00003560       ??1AABBTreeBuildNode@Gu@physx@@QEAA@XZ 0000000180004560 f   GuMeshFactory.obj
 0001:00003560       ??1BigConvexDataBuilder@physx@@QEAA@XZ 0000000180004560 f   GuCookingBigConvexDataBuilder.obj
 0001:00003560       ??1Box@Gu@physx@@QEAA@XZ   0000000180004560 f   GuBox.obj
 0001:00003560       ??1HeightFieldData@Gu@physx@@QEAA@XZ 0000000180004560 f   GuCCTSweepTests.obj
 0001:00003560       ??1PtrTable@Cm@physx@@QEAA@XZ 0000000180004560 f   CmPtrTable.obj
 0001:00003560       ?build@CompanionPrunerIncremental@@UEAAXXZ 0000000180004560 f   GuSecondaryPruner.obj
 0001:00003560       ?checkTreeLeaf@IncrementalAABBTree@Gu@physx@@QEAAXPEAVIncrementalAABBTreeNode@23@I@Z 0000000180004560 f   GuIncrementalAABBTree.obj
 0001:00003560       ?execute@?$PxThreadT@V?$PxReflectionAllocator@VPxThreadImpl@physx@@@physx@@@physx@@UEAAXXZ 0000000180004560 f   GuSDF.obj
 0001:00003560       ?execute@PxRunnable@physx@@UEAAXXZ 0000000180004560 f   GuSDF.obj
 0001:00003560       ?merge@BucketPruner@Gu@physx@@UEAAXPEBX@Z 0000000180004560 f   GuBucketPruner.obj
 0001:00003560       ?merge@IncrementalAABBPruner@Gu@physx@@UEAAXPEBX@Z 0000000180004560 f   GuIncrementalAABBPruner.obj
 0001:00003560       ?onMeshIndexFormatChange@TriangleMeshBuilder@physx@@UEAAXXZ 0000000180004560 f   GuCookingTriangleMesh.obj
 0001:00003560       ?profile@Callback@RTree@Gu@physx@@UEAAXXZ 0000000180004560 f   GuMidphaseRTree.obj
 0001:00003560       ?purge@BucketPruner@Gu@physx@@UEAAXXZ 0000000180004560 f   GuBucketPruner.obj
 0001:00003560       ?requiresObjects@ConvexMesh@Gu@physx@@UEAAXAEAVPxProcessPxBaseCallback@3@@Z 0000000180004560 f   GuConvexMesh.obj
 0001:00003560       ?requiresObjects@HeightField@Gu@physx@@UEAAXAEAVPxProcessPxBaseCallback@3@@Z 0000000180004560 f   GuHeightField.obj
 0001:00003560       ?requiresObjects@SoftBodyMesh@Gu@physx@@UEAAXAEAVPxProcessPxBaseCallback@3@@Z 0000000180004560 f   GuTetrahedronMesh.obj
 0001:00003560       ?requiresObjects@TriangleMesh@Gu@physx@@UEAAXAEAVPxProcessPxBaseCallback@3@@Z 0000000180004560 f   GuTriangleMesh.obj
 0001:00003560       ?swapIndex@CompanionPrunerAABBTree@@UEAAXII@Z 0000000180004560 f   GuSecondaryPruner.obj
 0001:00003560       ?swapIndex@CompanionPrunerBucket@@UEAAXII@Z 0000000180004560 f   GuSecondaryPruner.obj
 0001:00003560       ?timeStampChange@CompanionPrunerAABBTree@@UEAAXXZ 0000000180004560 f   GuSecondaryPruner.obj
 0001:00003560       ?timeStampChange@CompanionPrunerBucket@@UEAAXXZ 0000000180004560 f   GuSecondaryPruner.obj
 0001:00003560       ?visualize@BasePruner@Gu@physx@@UEBAXAEAVPxRenderOutput@3@II@Z 0000000180004560 f   GuIncrementalAABBPruner.obj
 0001:00003560       _guard_check_icall_nop     0000000180004560 f   LIBCMT:guard_support.obj
 0001:00003570       ??4AABBTreeBounds@Gu@physx@@QEAAAEAV012@AEBV012@@Z 0000000180004570 f i GuMeshFactory.obj
 0001:00003570       ??4CmModuleUpdateLoader@Cm@physx@@QEAAAEAV012@AEBV012@@Z 0000000180004570 f i CmWindowsModuleUpdateLoader.obj
 0001:00003570       ??4PtrTable@Cm@physx@@QEAAAEAU012@AEBU012@@Z 0000000180004570 f i CmPtrTable.obj
 0001:00003580       ?add@PtrTable@Cm@physx@@QEAAXPEAXAEAVPtrTableStorageManager@23@@Z 0000000180004580 f   CmPtrTable.obj
 0001:00003690       ?clear@PtrTable@Cm@physx@@QEAAXAEAVPtrTableStorageManager@23@@Z 0000000180004690 f   CmPtrTable.obj
 0001:00003700       ?exportExtraData@PtrTable@Cm@physx@@QEAAXAEAVPxSerializationContext@3@@Z 0000000180004700 f   CmPtrTable.obj
 0001:00003750       ?find@PtrTable@Cm@physx@@QEBAIPEBX@Z 0000000180004750 f   CmPtrTable.obj
 0001:00003780       ?getBinaryMetaData@PtrTable@Cm@physx@@SAXAEAVPxOutputStream@3@@Z 0000000180004780 f   CmPtrTable.obj
 0001:00003970       ?getCount@PtrTable@Cm@physx@@QEBAIXZ 0000000180004970 f i CmPtrTable.obj
 0001:00003980       ?getPtrs@PtrTable@Cm@physx@@QEAAPEAPEAXXZ 0000000180004980 f i CmPtrTable.obj
 0001:00003980       ?getPtrs@PtrTable@Cm@physx@@QEBAPEBQEAXXZ 0000000180004980 f i CmPtrTable.obj
 0001:00003990       ?importExtraData@PtrTable@Cm@physx@@QEAAXAEAVPxDeserializationContext@3@@Z 0000000180004990 f   CmPtrTable.obj
 0001:000039c0       ?realloc@PtrTable@Cm@physx@@AEAAXIIAEAVPtrTableStorageManager@23@@Z 00000001800049c0 f   CmPtrTable.obj
 0001:00003a50       ?replaceWithLast@PtrTable@Cm@physx@@QEAAXIAEAVPtrTableStorageManager@23@@Z 0000000180004a50 f   CmPtrTable.obj
 0001:00003b50       ??_ECollection@Cm@physx@@UEAAPEAXI@Z 0000000180004b50 f i CmCollection.obj
 0001:00003b50       ??_GCollection@Cm@physx@@UEAAPEAXI@Z 0000000180004b50 f i CmCollection.obj
 0001:00003c00       ??_EPxCollection@physx@@MEAAPEAXI@Z 0000000180004c00 f i CmCollection.obj
 0001:00003c00       ??_GPxCollection@physx@@MEAAPEAXI@Z 0000000180004c00 f i CmCollection.obj
 0001:00003c30       ?add@Collection@Cm@physx@@UEAAXAEAVPxBase@3@_K@Z 0000000180004c30 f   CmCollection.obj
 0001:00003d20       ?add@Collection@Cm@physx@@UEAAXAEAVPxCollection@3@@Z 0000000180004d20 f   CmCollection.obj
 0001:00003ec0       ?addId@Collection@Cm@physx@@UEAAXAEAVPxBase@3@_K@Z 0000000180004ec0 f   CmCollection.obj
 0001:00003ff0       ?contains@Collection@Cm@physx@@UEBA_NAEAVPxBase@3@@Z 0000000180004ff0 f   CmCollection.obj
 0001:000040a0       ?create@?$PxHashBase@V?$PxPair@$$CB_KPEAVPxBase@physx@@@physx@@_KU?$PxHash@_K@2@UGetKey@?$PxHashMapBase@_KPEAVPxBase@physx@@U?$PxHash@_K@2@VPxAllocator@2@@2@VPxAllocator@2@$00@physx@@QEAAPEAV?$PxPair@$$CB_KPEAVPxBase@physx@@@2@AEB_KAEA_N@Z 00000001800050a0 f i CmCollection.obj
 0001:000040a0       ?create@?$PxHashBase@V?$PxPair@QEAVPxBase@physx@@_K@physx@@PEAVPxBase@2@U?$PxHash@PEAVPxBase@physx@@@2@UGetKey@?$PxHashMapBase@PEAVPxBase@physx@@_KU?$PxHash@PEAVPxBase@physx@@@2@VPxAllocator@2@@2@VPxAllocator@2@$00@physx@@QEAAPEAV?$PxPair@QEAVPxBase@physx@@_K@2@AEBQEAVPxBase@2@AEA_N@Z 00000001800050a0 f i CmCollection.obj
 0001:00004230       ?erase@?$PxHashBase@V?$PxPair@$$CB_KPEAVPxBase@physx@@@physx@@_KU?$PxHash@_K@2@UGetKey@?$PxHashMapBase@_KPEAVPxBase@physx@@U?$PxHash@_K@2@VPxAllocator@2@@2@VPxAllocator@2@$00@physx@@QEAA_NAEB_K@Z 0000000180005230 f i CmCollection.obj
 0001:00004230       ?erase@?$PxHashBase@V?$PxPair@QEAVPxBase@physx@@_K@physx@@PEAVPxBase@2@U?$PxHash@PEAVPxBase@physx@@@2@UGetKey@?$PxHashMapBase@PEAVPxBase@physx@@_KU?$PxHash@PEAVPxBase@physx@@@2@VPxAllocator@2@@2@VPxAllocator@2@$00@physx@@QEAA_NAEBQEAVPxBase@2@@Z 0000000180005230 f i CmCollection.obj
 0001:000043e0       ?find@?$PxHashMapBase@_KPEAVPxBase@physx@@U?$PxHash@_K@2@VPxAllocator@2@@physx@@QEBAPEBV?$PxPair@$$CB_KPEAVPxBase@physx@@@2@AEB_K@Z 00000001800053e0 f i CmCollection.obj
 0001:00004480       ?find@Collection@Cm@physx@@UEBAPEAVPxBase@3@_K@Z 0000000180005480 f   CmCollection.obj
 0001:000044b0       ?getId@Collection@Cm@physx@@UEBA_KAEBVPxBase@3@@Z 00000001800054b0 f   CmCollection.obj
 0001:00004560       ?getIds@Collection@Cm@physx@@UEBAIPEA_KII@Z 0000000180005560 f   CmCollection.obj
 0001:00004630       ?getNbIds@Collection@Cm@physx@@UEBAIXZ 0000000180005630 f   CmCollection.obj
 0001:00004640       ?getNbObjects@Collection@Cm@physx@@UEBAIXZ 0000000180005640 f   CmCollection.obj
 0001:00004650       ?getObject@Collection@Cm@physx@@UEBAAEAVPxBase@3@I@Z 0000000180005650 f   CmCollection.obj
 0001:00004660       ?getObjects@Collection@Cm@physx@@UEBAIPEAPEAVPxBase@3@II@Z 0000000180005660 f   CmCollection.obj
 0001:000046a0       ?release@Collection@Cm@physx@@UEAAXXZ 00000001800056a0 f i CmCollection.obj
 0001:000046c0       ?remove@Collection@Cm@physx@@UEAAXAEAVPxBase@3@@Z 00000001800056c0 f   CmCollection.obj
 0001:000047b0       ?remove@Collection@Cm@physx@@UEAAXAEAVPxCollection@3@@Z 00000001800057b0 f   CmCollection.obj
 0001:000048c0       ?removeId@Collection@Cm@physx@@UEAAX_K@Z 00000001800058c0 f   CmCollection.obj
 0001:00004940       ?reserveInternal@?$PxHashBase@V?$PxPair@$$CB_KPEAVPxBase@physx@@@physx@@_KU?$PxHash@_K@2@UGetKey@?$PxHashMapBase@_KPEAVPxBase@physx@@U?$PxHash@_K@2@VPxAllocator@2@@2@VPxAllocator@2@$00@physx@@AEAAXI@Z 0000000180005940 f i CmCollection.obj
 0001:00004940       ?reserveInternal@?$PxHashBase@V?$PxPair@QEAVPxBase@physx@@_K@physx@@PEAVPxBase@2@U?$PxHash@PEAVPxBase@physx@@@2@UGetKey@?$PxHashMapBase@PEAVPxBase@physx@@_KU?$PxHash@PEAVPxBase@physx@@@2@VPxAllocator@2@@2@VPxAllocator@2@$00@physx@@AEAAXI@Z 0000000180005940 f i CmCollection.obj
 0001:00004b20       PxCreateCollection         0000000180005b20 f   CmCollection.obj
 0001:00004c10       ??0RadixSort@Cm@physx@@QEAA@XZ 0000000180005c10 f   CmRadixSort.obj
 0001:00004c40       ??0RadixSortBuffered@Cm@physx@@QEAA@XZ 0000000180005c40 f   CmRadixSort.obj
 0001:00004c70       ??1RadixSort@Cm@physx@@UEAA@XZ 0000000180005c70 f   CmRadixSort.obj
 0001:00004c80       ??1RadixSortBuffered@Cm@physx@@UEAA@XZ 0000000180005c80 f   CmRadixSort.obj
 0001:00004cb0       ??_ERadixSort@Cm@physx@@UEAAPEAXI@Z 0000000180005cb0 f i CmRadixSort.obj
 0001:00004d40       ??_ERadixSortBuffered@Cm@physx@@UEAAPEAXI@Z 0000000180005d40 f i CmRadixSort.obj
 0001:00004e30       ?CheckResize@RadixSortBuffered@Cm@physx@@AEAAXI@Z 0000000180005e30 f i CmRadixSort.obj
 0001:00004e70       ?GetNbHits@RadixSort@Cm@physx@@QEBAIXZ 0000000180005e70 f i CmRadixSort.obj
 0001:00004e80       ?GetNbTotalCalls@RadixSort@Cm@physx@@QEBAIXZ 0000000180005e80 f i CmRadixSort.obj
 0001:00004e90       ?GetRanks@RadixSort@Cm@physx@@QEBAPEBIXZ 0000000180005e90 f i CmRadixSort.obj
 0001:00004e90       ?getGridModelInvMass@SoftBodyAuxData@Gu@physx@@UEAAPEAMXZ 0000000180005e90 f i GuTetrahedronMesh.obj
 0001:00004e90       ?getHeightField@HeightFieldUtil@Gu@physx@@QEBAAEBVHeightField@23@XZ 0000000180005e90 f i GuCCTSweepTests.obj
 0001:00004e90       ?getSimulationMesh@SoftBodyMesh@Gu@physx@@UEAAPEAVPxTetrahedronMesh@3@XZ 0000000180005e90 f i GuTetrahedronMesh.obj
 0001:00004e90       ?getSimulationMesh@SoftBodyMesh@Gu@physx@@UEBAPEBVPxTetrahedronMesh@3@XZ 0000000180005e90 f i GuTetrahedronMesh.obj
 0001:00004ea0       ?GetRecyclable@RadixSort@Cm@physx@@QEBAPEAIXZ 0000000180005ea0 f i CmRadixSort.obj
 0001:00004ea0       ?GetValencies@BigConvexData@physx@@QEBAPEBUValency@Gu@2@XZ 0000000180005ea0 f i GuMetaData.obj
 0001:00004ea0       ?getCollisionMesh@SoftBodyMesh@Gu@physx@@UEAAPEAVPxTetrahedronMesh@3@XZ 0000000180005ea0 f i GuTetrahedronMesh.obj
 0001:00004ea0       ?getCollisionMesh@SoftBodyMesh@Gu@physx@@UEBAPEBVPxTetrahedronMesh@3@XZ 0000000180005ea0 f i GuTetrahedronMesh.obj
 0001:00004ea0       ?getHeightFieldGeometry@HeightFieldUtil@Gu@physx@@QEBAAEBVPxHeightFieldGeometry@3@XZ 0000000180005ea0 f i GuCCTSweepTests.obj
 0001:00004ea0       ?getObjects@PruningPool@Gu@physx@@QEBAPEAUPrunerPayload@23@XZ 0000000180005ea0 f i GuIncrementalAABBPrunerCore.obj
 0001:00004ea0       ?getPos@AABBTreeBuildNode@Gu@physx@@QEBAPEBV123@XZ 0000000180005ea0 f i GuMeshFactory.obj
 0001:00004ea0       ?getVertices@TetrahedronMesh@Gu@physx@@UEBAPEBV?$PxVec3T@M@3@XZ 0000000180005ea0 f i GuTetrahedronMesh.obj
 0001:00004ea0       ?getVertices@TriangleMesh@Gu@physx@@UEBAPEBV?$PxVec3T@M@3@XZ 0000000180005ea0 f i GuTriangleMesh.obj
 0001:00004eb0       ?Resize@RadixSortBuffered@Cm@physx@@AEAA_NI@Z 0000000180005eb0 f   CmRadixSort.obj
 0001:00004fb0       ?SetBuffers@RadixSort@Cm@physx@@QEAA_NPEAI00PEAPEAI@Z 0000000180005fb0 f   CmRadixSort.obj
 0001:00004ff0       ?Sort@RadixSort@Cm@physx@@QEAAAEAV123@PEBIIW4RadixHint@23@@Z 0000000180005ff0 f   CmRadixSort.obj
 0001:000056a0       ?Sort@RadixSort@Cm@physx@@QEAAAEAV123@PEBMI@Z 00000001800066a0 f   CmRadixSort.obj
 0001:00005e40       ?Sort@RadixSortBuffered@Cm@physx@@QEAAAEAV123@PEBIIW4RadixHint@23@@Z 0000000180006e40 f   CmRadixSort.obj
 0001:00005ee0       ?Sort@RadixSortBuffered@Cm@physx@@QEAAAEAV123@PEBMI@Z 0000000180006ee0 f   CmRadixSort.obj
 0001:00005f70       ?invalidateRanks@RadixSort@Cm@physx@@QEAAXXZ 0000000180006f70 f i CmRadixSort.obj
 0001:00005f80       ?reset@RadixSortBuffered@Cm@physx@@QEAAXXZ 0000000180006f80 f   CmRadixSort.obj
 0001:00006000       ?ReadHeader@Cm@physx@@YA_NEEEEAEAIAEA_NAEAVPxInputStream@2@@Z 0000000180007000 f   CmSerialize.obj
 0001:00006160       ?ReadIndices@Cm@physx@@YAXGIPEAGAEAVPxInputStream@2@_N@Z 0000000180007160 f   CmSerialize.obj
 0001:000062b0       ?StoreIndices@Cm@physx@@YAXGIPEBGAEAVPxOutputStream@2@_N@Z 00000001800072b0 f   CmSerialize.obj
 0001:000063a0       ?WriteHeader@Cm@physx@@YA_NEEEEI_NAEAVPxOutputStream@2@@Z 00000001800073a0 f   CmSerialize.obj
 0001:000064d0       ?computeMaxIndex@physx@@YAGPEBGI@Z 00000001800074d0 f   CmSerialize.obj
 0001:00006500       ?computeMaxIndex@physx@@YAIPEBII@Z 0000000180007500 f   CmSerialize.obj
 0001:00006530       ?readByteBuffer@physx@@YAXPEAEIAEAVPxInputStream@1@@Z 0000000180007530 f   CmSerialize.obj
 0001:00006530       ?writeByteBuffer@physx@@YAXPEBEIAEAVPxOutputStream@1@@Z 0000000180007530 f   CmSerialize.obj
 0001:00006550       ?readChunk@physx@@YAXAEAC000AEAVPxInputStream@1@@Z 0000000180007550 f   CmSerialize.obj
 0001:000065d0       ?readDword@physx@@YAI_NAEAVPxInputStream@1@@Z 00000001800075d0 f   CmSerialize.obj
 0001:00006630       ?readFloat@physx@@YAM_NAEAVPxInputStream@1@@Z 0000000180007630 f   CmSerialize.obj
 0001:00006690       ?readFloatBuffer@physx@@YA_NPEAMI_NAEAVPxInputStream@1@@Z 0000000180007690 f   CmSerialize.obj
 0001:00006710       ?readHeader@physx@@YA_NCCCCAEAIAEA_NAEAVPxInputStream@1@@Z 0000000180007710 f   CmSerialize.obj
 0001:00006860       ?readIndices@physx@@YAXIIPEAIAEAVPxInputStream@1@_N@Z 0000000180007860 f   CmSerialize.obj
 0001:00006990       ?readWord@physx@@YAG_NAEAVPxInputStream@1@@Z 0000000180007990 f   CmSerialize.obj
 0001:000069d0       ?readWordBuffer@physx@@YAXPEAGI_NAEAVPxInputStream@1@@Z 00000001800079d0 f   CmSerialize.obj
 0001:00006a40       ?storeIndices@physx@@YAXIIPEBIAEAVPxOutputStream@1@_N@Z 0000000180007a40 f   CmSerialize.obj
 0001:00006bd0       ?writeDword@physx@@YAXI_NAEAVPxOutputStream@1@@Z 0000000180007bd0 f   CmSerialize.obj
 0001:00006c20       ?writeFloat@physx@@YAXM_NAEAVPxOutputStream@1@@Z 0000000180007c20 f   CmSerialize.obj
 0001:00006c70       ?writeFloatBuffer@physx@@YAXPEBMI_NAEAVPxOutputStream@1@@Z 0000000180007c70 f   CmSerialize.obj
 0001:00006d10       ?writeHeader@physx@@YA_NCCCCI_NAEAVPxOutputStream@1@@Z 0000000180007d10 f   CmSerialize.obj
 0001:00006e40       ?writeWord@physx@@YAXG_NAEAVPxOutputStream@1@@Z 0000000180007e40 f   CmSerialize.obj
 0001:00006e80       ?writeWordBuffer@physx@@YAXPEBGI_NAEAVPxOutputStream@1@@Z 0000000180007e80 f   CmSerialize.obj
 0001:00006f00       ??6PxRenderOutput@physx@@QEAAAEAV01@AEBV?$PxTransformT@M@1@@Z 0000000180007f00 f i CmVisualization.obj
 0001:00007080       ??6PxRenderOutput@physx@@QEAAAEAV01@AEBV?$PxVec3T@M@1@@Z 0000000180008080 f i CmVisualization.obj
 0001:00007370       ?renderOutputDebugArrow@Cm@physx@@YAXAEAVPxRenderOutput@2@AEBUPxDebugArrow@2@@Z 0000000180008370 f   CmVisualization.obj
 0001:00007710       ?renderOutputDebugBasis@Cm@physx@@YAXAEAVPxRenderOutput@2@AEBUPxDebugBasis@2@@Z 0000000180008710 f   CmVisualization.obj
 0001:00007ca0       ?renderOutputDebugBox@Cm@physx@@YAXAEAVPxRenderOutput@2@AEBVPxBounds3@2@@Z 0000000180008ca0 f   CmVisualization.obj
 0001:00007f10       ?renderOutputDebugCircle@Cm@physx@@YAXAEAVPxRenderOutput@2@IM@Z 0000000180008f10 f   CmVisualization.obj
 0001:00007ff0       ?visualizeAngularLimit@Cm@physx@@YAXAEAVPxRenderOutput@2@MAEBV?$PxTransformT@M@2@MM@Z 0000000180008ff0 f   CmVisualization.obj
 0001:00008180       ?visualizeDoubleCone@Cm@physx@@YAXAEAVPxRenderOutput@2@MAEBV?$PxTransformT@M@2@M@Z 0000000180009180 f   CmVisualization.obj
 0001:000083a0       ?visualizeJointFrames@Cm@physx@@YAXAEAVPxRenderOutput@2@MAEBV?$PxTransformT@M@2@1@Z 00000001800093a0 f   CmVisualization.obj
 0001:00008ea0       ?visualizeLimitCone@Cm@physx@@YAXAEAVPxRenderOutput@2@MAEBV?$PxTransformT@M@2@MM@Z 0000000180009ea0 f   CmVisualization.obj
 0001:000090d0       ?visualizeLinearLimit@Cm@physx@@YAXAEAVPxRenderOutput@2@MAEBV?$PxTransformT@M@2@1M@Z 000000018000a0d0 f   CmVisualization.obj
 0001:000096c0       ??0CmModuleUpdateLoader@Cm@physx@@QEAA@PEBD@Z 000000018000a6c0 f   CmWindowsModuleUpdateLoader.obj
 0001:00009700       ??1CmModuleUpdateLoader@Cm@physx@@QEAA@XZ 000000018000a700 f   CmWindowsModuleUpdateLoader.obj
 0001:00009730       ?LoadModule@CmModuleUpdateLoader@Cm@physx@@QEAAPEAUHINSTANCE__@@PEBD0@Z 000000018000a730 f   CmWindowsModuleUpdateLoader.obj
 0001:000097a0       __local_stdio_printf_options 000000018000a7a0 f i CmWindowsModuleUpdateLoader.obj
 0001:000097b0       printf                     000000018000a7b0 f i CmWindowsModuleUpdateLoader.obj
 0001:00009810       ?commonDelayHook@@YAP6A_JXZIPEAUDelayLoadInfo@@@Z 000000018000a810 f   CmWindowsDelayLoadHook.obj
 0001:000098f0       PxSetPhysXCommonDelayLoadHook 000000018000a8f0 f   CmWindowsDelayLoadHook.obj
 0001:00009900       ??0?$PxQuatT@M@physx@@QEAA@AEBV?$PxMat33T@M@1@@Z 000000018000a900 f i GuBox.obj
 0001:00009b00       ??0Box@Gu@physx@@QEAA@AEBV012@@Z 000000018000ab00 f i GuBox.obj
 0001:00009b00       ??4Box@Gu@physx@@QEAAAEBV012@AEBV012@@Z 000000018000ab00 f i GuBox.obj
 0001:00009b60       ??0Box@Gu@physx@@QEAA@AEBV?$PxVec3T@M@2@0AEBV?$PxMat33T@M@2@@Z 000000018000ab60 f i GuBox.obj
 0001:00009bd0       ??$forward@_K@std@@YA$$QEA_KAEA_K@Z 000000018000abd0 f i libvcruntime:undname.obj
 0001:00009bd0       ??0AABBTreeBuildNode@Gu@physx@@QEAA@XZ 000000018000abd0 f i GuMeshFactory.obj
 0001:00009bd0       ??0BigConvexData@physx@@QEAA@W4PxEMPTY@1@@Z 000000018000abd0 f i GuMetaData.obj
 0001:00009bd0       ??0Box@Gu@physx@@QEAA@XZ   000000018000abd0 f i GuBox.obj
 0001:00009bd0       ??0HeightFieldData@Gu@physx@@QEAA@W4PxEMPTY@2@@Z 000000018000abd0 f i GuCCTSweepTests.obj
 0001:00009bd0       ?getAABB@AABBTreeBuildNode@Gu@physx@@QEBAAEBVPxBounds3@3@XZ 000000018000abd0 f i GuMeshFactory.obj
 0001:00009bd0       ?getPaddedBounds@HeightFieldData@Gu@physx@@QEBAAEBVCenterExtentsPadded@23@XZ 000000018000abd0 f i GuCCTSweepTests.obj
 0001:00009be0       ?computeAABBExtent@Box@Gu@physx@@QEBA?AV?$PxVec3T@M@3@XZ 000000018000abe0 f i GuBox.obj
 0001:00009ca0       ?computeBoxPoints@Box@Gu@physx@@QEBAXPEIAV?$PxVec3T@M@3@@Z 000000018000aca0 f i GuBox.obj
 0001:00009ce0       ?computeOBBPoints@Gu@physx@@YAXPEIAV?$PxVec3T@M@2@AEBV32@1111@Z 000000018000ace0 f   GuBox.obj
 0001:00009f60       ?create@Box@Gu@physx@@QEAAXAEBVCapsule@23@@Z 000000018000af60 f   GuBox.obj
 0001:0000a190       ?getBoxEdges@Gu@physx@@YAPEBEXZ 000000018000b190 f   GuBox.obj
 0001:0000a1a0       ?getTransform@Box@Gu@physx@@QEBA?AV?$PxTransformT@M@3@XZ 000000018000b1a0 f i GuBox.obj
 0001:0000a200       ?isValid@Box@Gu@physx@@QEBA_NXZ 000000018000b200 f i GuBox.obj
 0001:0000a220       ?rotate@Box@Gu@physx@@QEBA?AV?$PxVec3T@M@3@AEBV43@@Z 000000018000b220 f i GuBox.obj
 0001:0000a2b0       ?rotateInv@Box@Gu@physx@@QEBA?AV?$PxVec3T@M@3@AEBV43@@Z 000000018000b2b0 f i GuBox.obj
 0001:0000a340       ?setAxes@Box@Gu@physx@@QEAAXAEBV?$PxVec3T@M@3@00@Z 000000018000b340 f i GuBox.obj
 0001:0000a380       ?setEmpty@Box@Gu@physx@@QEAAXXZ 000000018000b380 f i GuBox.obj
 0001:0000a3c0       ?transform@Box@Gu@physx@@QEBA?AV?$PxVec3T@M@3@AEBV43@@Z 000000018000b3c0 f i GuBox.obj
 0001:0000a460       ?PxComputeBasisVectors@physx@@YAXAEBV?$PxVec3T@M@1@0AEAV21@11@Z 000000018000b460 f i GuCapsule.obj
 0001:0000a600       ?computeBoxAroundCapsule@Gu@physx@@YAXAEBVCapsule@12@AEAVBox@12@@Z 000000018000b600 f   GuCapsule.obj
 0001:0000a750       ??0HeightFieldData@Gu@physx@@QEAA@$$QEAU012@@Z 000000018000b750 f i GuCCTSweepTests.obj
 0001:0000a750       ??0HeightFieldData@Gu@physx@@QEAA@AEBU012@@Z 000000018000b750 f i GuCCTSweepTests.obj
 0001:0000a750       ??4HeightFieldData@Gu@physx@@QEAAAEAU012@$$QEAU012@@Z 000000018000b750 f i GuCCTSweepTests.obj
 0001:0000a750       ??4HeightFieldData@Gu@physx@@QEAAAEAU012@AEBU012@@Z 000000018000b750 f i GuCCTSweepTests.obj
 0001:0000a7b0       ??0HeightFieldData@Gu@physx@@QEAA@XZ 000000018000b7b0 f i GuCCTSweepTests.obj
 0001:0000a7c0       ??0HeightFieldTraceUtil@Gu@physx@@QEAA@AEBVPxHeightFieldGeometry@2@@Z 000000018000b7c0 f i GuCCTSweepTests.obj
 0001:0000a7c0       ??0HeightFieldUtil@Gu@physx@@QEAA@AEBVPxHeightFieldGeometry@2@@Z 000000018000b7c0 f i GuCCTSweepTests.obj
 0001:0000a800       ??4AABBTreeBuildParams@Gu@physx@@QEAAAEAV012@AEBV012@@Z 000000018000b800 f i GuMeshFactory.obj
 0001:0000a800       ??4HeightFieldTraceUtil@Gu@physx@@QEAAAEAV012@$$QEAV012@@Z 000000018000b800 f i GuCCTSweepTests.obj
 0001:0000a800       ??4HeightFieldTraceUtil@Gu@physx@@QEAAAEAV012@AEBV012@@Z 000000018000b800 f i GuCCTSweepTests.obj
 0001:0000a800       ??4HeightFieldUtil@Gu@physx@@QEAAAEAV012@AEBV012@@Z 000000018000b800 f i GuCCTSweepTests.obj
 0001:0000a820       ??4HeightFieldUtil@Gu@physx@@QEAAAEAV012@$$QEAV012@@Z 000000018000b820 f i GuCCTSweepTests.obj
 0001:0000a880       ??_EEntityReport@Gu@physx@@UEAAPEAXI@Z 000000018000b880 f i GuSweepsHF.obj
 0001:0000a880       ??_EOverlapCallback@PxBVH@physx@@UEAAPEAXI@Z 000000018000b880 f i GuQuerySystem.obj
 0001:0000a880       ??_EOverlapReport@Gu@physx@@UEAAPEAXI@Z 000000018000b880 f i GuCCTSweepTests.obj
 0001:0000a880       ??_ERaycastCallback@PxBVH@physx@@UEAAPEAXI@Z 000000018000b880 f i GuQuerySystem.obj
 0001:0000a880       ??_ERemapCallback@RTreeCooker@physx@@UEAAPEAXI@Z 000000018000b880 f i GuCookingTriangleMesh.obj
 0001:0000a880       ??_GEntityReport@Gu@physx@@UEAAPEAXI@Z 000000018000b880 f i GuSweepsHF.obj
 0001:0000a880       ??_GOverlapCallback@PxBVH@physx@@UEAAPEAXI@Z 000000018000b880 f i GuQuerySystem.obj
 0001:0000a880       ??_GOverlapReport@Gu@physx@@UEAAPEAXI@Z 000000018000b880 f i GuCCTSweepTests.obj
 0001:0000a880       ??_GRaycastCallback@PxBVH@physx@@UEAAPEAXI@Z 000000018000b880 f i GuQuerySystem.obj
 0001:0000a880       ??_GRemapCallback@RTreeCooker@physx@@UEAAPEAXI@Z 000000018000b880 f i GuCookingTriangleMesh.obj
 0001:0000a8b0       ??_H@YAXPEAX_K1P6APEAX0@Z@Z 000000018000b8b0 f i GuCCTSweepTests.obj
 0001:0000a900       ?ceilUp@HeightFieldTraceUtil@Gu@physx@@SAMM@Z 000000018000b900 f i GuCCTSweepTests.obj
 0001:0000a940       ?floorDown@HeightFieldTraceUtil@Gu@physx@@SAMM@Z 000000018000b940 f i GuCCTSweepTests.obj
 0001:0000a980       ?getHeightAtShapePoint@HeightFieldUtil@Gu@physx@@QEBAMMM@Z 000000018000b980 f i GuCCTSweepTests.obj
 0001:0000a9e0       ?getHeightInternal2@HeightField@Gu@physx@@QEBAMIMM@Z 000000018000b9e0 f i GuCCTSweepTests.obj
 0001:0000ab50       ?getNormalAtShapePoint@HeightFieldUtil@Gu@physx@@QEBA?AV?$PxVec3T@M@3@MM@Z 000000018000bb50 f i GuCCTSweepTests.obj
 0001:0000ac10       ?getNormal_2@HeightField@Gu@physx@@QEBA?AV?$PxVec3T@M@3@IMMMMM@Z 000000018000bc10 f i GuCCTSweepTests.obj
 0001:0000ad30       ?getOneOverColumnScale@HeightFieldUtil@Gu@physx@@QEBAMXZ 000000018000bd30 f i GuCCTSweepTests.obj
 0001:0000ad40       ?getOneOverHeightScale@HeightFieldUtil@Gu@physx@@QEBAMXZ 000000018000bd40 f i GuCCTSweepTests.obj
 0001:0000ad50       ?getOneOverRowScale@HeightFieldUtil@Gu@physx@@QEBAMXZ 000000018000bd50 f i GuCCTSweepTests.obj
 0001:0000ad60       ?hf2shapen@HeightFieldUtil@Gu@physx@@QEBA?AV?$PxVec3T@M@3@AEBV43@@Z 000000018000bd60 f i GuCCTSweepTests.obj
 0001:0000ad60       ?shape2hfp@HeightFieldUtil@Gu@physx@@QEBA?AV?$PxVec3T@M@3@AEBV43@@Z 000000018000bd60 f i GuCCTSweepTests.obj
 0001:0000ada0       ?hf2shapep@HeightFieldUtil@Gu@physx@@QEBA?AV?$PxVec3T@M@3@AEBV43@@Z 000000018000bda0 f i GuCCTSweepTests.obj
 0001:0000ade0       ?hf2worldn@HeightFieldUtil@Gu@physx@@QEBA?AV?$PxVec3T@M@3@AEBV?$PxTransformT@M@3@AEBV43@@Z 000000018000bde0 f i GuCCTSweepTests.obj
 0001:0000af50       ?hf2worldp@HeightFieldUtil@Gu@physx@@QEBA?AV?$PxVec3T@M@3@AEBV?$PxTransformT@M@3@AEBV43@@Z 000000018000bf50 f i GuCCTSweepTests.obj
 0001:0000b0d0       ?overlapAABBTriangles0to1@HeightFieldUtil@Gu@physx@@QEBAXAEBV?$PxTransformT@M@3@AEBVPxBounds3@3@AEAVOverlapReport@23@I@Z 000000018000c0d0 f i GuCCTSweepTests.obj
 0001:0000b470       ?overlapAABBTriangles@HeightFieldUtil@Gu@physx@@QEBAXAEBV?$PxTransformT@M@3@0AEBVPxBounds3@3@AEAVOverlapReport@23@I@Z 000000018000c470 f i GuCCTSweepTests.obj
 0001:0000ba90       ?overlapAABBTriangles@HeightFieldUtil@Gu@physx@@QEBAXAEBV?$PxTransformT@M@3@AEBVPxBounds3@3@AEAVOverlapReport@23@I@Z 000000018000ca90 f i GuCCTSweepTests.obj
 0001:0000c170       ?sweepBoxTriangles_Precise@Gu@physx@@YA_NIPEBVPxTriangle@2@_NAEBVPxBoxGeometry@2@AEBV?$PxTransformT@M@2@AEBV?$PxVec3T@M@2@MAEAUPxGeomSweepHit@2@PEBIMV?$PxFlags@W4Enum@PxHitFlag@physx@@G@2@@Z 000000018000d170 f   GuCCTSweepTests.obj
 0001:0000cef0       ?sweepBox_BoxGeom_Precise@@YA_NAEBVPxGeometry@physx@@AEBV?$PxTransformT@M@2@AEBVPxBoxGeometry@2@1AEBVBox@Gu@2@AEBV?$PxVec3T@M@2@MAEAUPxGeomSweepHit@2@V?$PxFlags@W4Enum@PxHitFlag@physx@@G@2@MPEAUPxQueryThreadContext@2@@Z 000000018000def0 f   GuCCTSweepTests.obj
 0001:0000d0b0       ?sweepBox_CapsuleGeom_Precise@@YA_NAEBVPxGeometry@physx@@AEBV?$PxTransformT@M@2@AEBVPxBoxGeometry@2@1AEBVBox@Gu@2@AEBV?$PxVec3T@M@2@MAEAUPxGeomSweepHit@2@V?$PxFlags@W4Enum@PxHitFlag@physx@@G@2@MPEAUPxQueryThreadContext@2@@Z 000000018000e0b0 f   GuCCTSweepTests.obj
 0001:0000d480       ?sweepBox_HeightFieldGeom_Precise@@YA_NAEBVPxGeometry@physx@@AEBV?$PxTransformT@M@2@AEBVPxBoxGeometry@2@1AEBVBox@Gu@2@AEBV?$PxVec3T@M@2@MAEAUPxGeomSweepHit@2@V?$PxFlags@W4Enum@PxHitFlag@physx@@G@2@MPEAUPxQueryThreadContext@2@@Z 000000018000e480 f   GuCCTSweepTests.obj
 0001:0000dca0       ?sweepBox_SphereGeom_Precise@@YA_NAEBVPxGeometry@physx@@AEBV?$PxTransformT@M@2@AEBVPxBoxGeometry@2@1AEBVBox@Gu@2@AEBV?$PxVec3T@M@2@MAEAUPxGeomSweepHit@2@V?$PxFlags@W4Enum@PxHitFlag@physx@@G@2@MPEAUPxQueryThreadContext@2@@Z 000000018000eca0 f   GuCCTSweepTests.obj
 0001:0000df80       ?sweepCapsule_BoxGeom_Precise@@YA_NAEBVPxGeometry@physx@@AEBV?$PxTransformT@M@2@AEBVPxCapsuleGeometry@2@1AEBVCapsule@Gu@2@AEBV?$PxVec3T@M@2@MAEAUPxGeomSweepHit@2@V?$PxFlags@W4Enum@PxHitFlag@physx@@G@2@MPEAUPxQueryThreadContext@2@@Z 000000018000ef80 f   GuCCTSweepTests.obj
 0001:0000e5e0       ??0?$CacheMap@UCachedEdge@Gu@physx@@$0IA@@Gu@physx@@QEAA@XZ 000000018000f5e0 f i GuGeometryQuery.obj
 0001:0000e6a0       ??0?$CacheMap@UCachedVertex@Gu@physx@@$0IA@@Gu@physx@@QEAA@XZ 000000018000f6a0 f i GuGeometryQuery.obj
 0001:0000e760       ??0MultiplePersistentContactManifold@Gu@physx@@QEAA@XZ 000000018000f760 f i GuGeometryQuery.obj
 0001:0000e7b0       ??0PCMMeshContactGeneration@Gu@physx@@QEAA@AEBT__m128@@0AEBVPxTransformV@aos@2@1AEAVMultiplePersistentContactManifold@12@AEAVPxContactBuffer@2@PEAV?$PxInlineArray@I$0DMA@V?$PxReflectionAllocator@I@physx@@@2@PEAVPxRenderOutput@2@@Z 000000018000f7b0 f i GuGeometryQuery.obj
 0001:0000f0e0       ??4MultiplePersistentContactManifold@Gu@physx@@QEAAAEAV012@$$QEAV012@@Z 00000001800100e0 f i GuGeometryQuery.obj
 0001:0000f3f0       ??4MultiplePersistentContactManifold@Gu@physx@@QEAAAEAV012@AEBV012@@Z 00000001800103f0 f i GuGeometryQuery.obj
 0001:0000f410       ??_E?$SupportLocalImpl@VBoxV@Gu@physx@@@Gu@physx@@UEAAPEAXI@Z 0000000180010410 f i GuGeometryQuery.obj
 0001:0000f410       ??_E?$SupportLocalImpl@VConvexHullNoScaleV@Gu@physx@@@Gu@physx@@UEAAPEAXI@Z 0000000180010410 f i GuMTD.obj
 0001:0000f410       ??_E?$SupportLocalImpl@VConvexHullV@Gu@physx@@@Gu@physx@@UEAAPEAXI@Z 0000000180010410 f i GuGeometryQuery.obj
 0001:0000f410       ??_E?$SupportLocalImpl@VTriangleV@Gu@physx@@@Gu@physx@@UEAAPEAXI@Z 0000000180010410 f i GuPCMContactConvexCommon.obj
 0001:0000f410       ??_G?$SupportLocalImpl@VBoxV@Gu@physx@@@Gu@physx@@UEAAPEAXI@Z 0000000180010410 f i GuGeometryQuery.obj
 0001:0000f410       ??_G?$SupportLocalImpl@VConvexHullNoScaleV@Gu@physx@@@Gu@physx@@UEAAPEAXI@Z 0000000180010410 f i GuMTD.obj
 0001:0000f410       ??_G?$SupportLocalImpl@VConvexHullV@Gu@physx@@@Gu@physx@@UEAAPEAXI@Z 0000000180010410 f i GuGeometryQuery.obj
 0001:0000f410       ??_G?$SupportLocalImpl@VTriangleV@Gu@physx@@@Gu@physx@@UEAAPEAXI@Z 0000000180010410 f i GuPCMContactConvexCommon.obj
 0001:0000f440       ??_ESupportLocal@Gu@physx@@UEAAPEAXI@Z 0000000180010440 f i GuGeometryQuery.obj
 0001:0000f440       ??_GSupportLocal@Gu@physx@@UEAAPEAXI@Z 0000000180010440 f i GuGeometryQuery.obj
 0001:0000f470       ?clearManifold@MultiplePersistentContactManifold@Gu@physx@@QEAAXXZ 0000000180010470 f i GuGeometryQuery.obj
 0001:0000f4d0       ?computeGeomBounds@PxGeometryQuery@physx@@SAXAEAVPxBounds3@2@AEBVPxGeometry@2@AEBV?$PxTransformT@M@2@MMV?$PxFlags@W4Enum@PxGeometryQueryFlag@physx@@I@2@@Z 00000001800104d0 f   GuGeometryQuery.obj
 0001:0000f550       ?computePenetration@PxGeometryQuery@physx@@SA_NAEAV?$PxVec3T@M@2@AEAMAEBVPxGeometry@2@AEBV?$PxTransformT@M@2@23V?$PxFlags@W4Enum@PxGeometryQueryFlag@physx@@I@2@@Z 0000000180010550 f   GuGeometryQuery.obj
 0001:0000f6d0       ?doSupport@?$SupportLocalImpl@VBoxV@Gu@physx@@@Gu@physx@@UEBA?AT__m128@@AEBT4@@Z 00000001800106d0 f i GuGeometryQuery.obj
 0001:0000f700       ?doSupport@?$SupportLocalImpl@VBoxV@Gu@physx@@@Gu@physx@@UEBAXAEBT__m128@@AEAT4@1@Z 0000000180010700 f i GuGeometryQuery.obj
 0001:0000f750       ?doSupport@?$SupportLocalImpl@VConvexHullV@Gu@physx@@@Gu@physx@@UEBA?AT__m128@@AEBT4@@Z 0000000180010750 f i GuGeometryQuery.obj
 0001:0000f830       ?doSupport@?$SupportLocalImpl@VConvexHullV@Gu@physx@@@Gu@physx@@UEBAXAEBT__m128@@AEAT4@1@Z 0000000180010830 f i GuGeometryQuery.obj
 0001:0000fb90       ?generateTriangleContacts@PxGeometryQuery@physx@@SA_NAEBVPxGeometry@2@AEBV?$PxTransformT@M@2@QEBV?$PxVec3T@M@2@IMMMAEAVPxContactBuffer@2@@Z 0000000180010b90 f   GuGeometryQuery.obj
 0001:000114f0       ?getEmptyManifold@MultiplePersistentContactManifold@Gu@physx@@QEAAPEAVSinglePersistentContactManifold@23@XZ 00000001800124f0 f i GuGeometryQuery.obj
 0001:00011510       ?getManifold@MultiplePersistentContactManifold@Gu@physx@@QEAAPEAVSinglePersistentContactManifold@23@I@Z 0000000180012510 f i GuGeometryQuery.obj
 0001:00011510       ?getManifold@MultiplePersistentContactManifold@Gu@physx@@QEBAPEBVSinglePersistentContactManifold@23@I@Z 0000000180012510 f i GuGeometryQuery.obj
 0001:00011530       ?getUniqueID@PxCustomGeometry@physx@@SAIXZ 0000000180012530 f   GuGeometryQuery.obj
 0001:00011550       ?hillClimbing@ConvexHullV@Gu@physx@@QEBAIAEBT__m128@@@Z 0000000180012550 f i GuGeometryQuery.obj
 0001:00011780       ?initialize@MultiplePersistentContactManifold@Gu@physx@@QEAAXXZ 0000000180012780 f i GuGeometryQuery.obj
 0001:000117e0       ?invalidate@MultiplePersistentContactManifold@Gu@physx@@QEBAIAEBVPxTransformV@aos@3@AEBT__m128@@1@Z 00000001800127e0 f i GuGeometryQuery.obj
 0001:00011850       ?invalidate@MultiplePersistentContactManifold@Gu@physx@@QEBAIAEBVPxTransformV@aos@3@AEBT__m128@@@Z 0000000180012850 f i GuGeometryQuery.obj
 0001:000118c0       ?isUnit@?$PxQuatT@M@physx@@QEBA_NXZ 00000001800128c0 f i GuGeometryQuery.obj
 0001:00011980       ?isValid@PxGeometryQuery@physx@@SA_NAEBVPxGeometry@2@@Z 0000000180012980 f   GuGeometryQuery.obj
 0001:00011c70       ?maxTransformPositionDelta@MultiplePersistentContactManifold@Gu@physx@@QEBA?AT__m128@@AEBT4@@Z 0000000180012c70 f i GuGeometryQuery.obj
 0001:00011cb0       ?maxTransformQuatDelta@MultiplePersistentContactManifold@Gu@physx@@QEBA?AT__m128@@AEBT4@@Z 0000000180012cb0 f i GuGeometryQuery.obj
 0001:00011cf0       ?overlap@PxGeometryQuery@physx@@SA_NAEBVPxGeometry@2@AEBV?$PxTransformT@M@2@01V?$PxFlags@W4Enum@PxGeometryQueryFlag@physx@@I@2@PEAUPxQueryThreadContext@2@@Z 0000000180012cf0 f   GuGeometryQuery.obj
 0001:00011dc0       ?pointDistance@PxGeometryQuery@physx@@SAMAEBV?$PxVec3T@M@2@AEBVPxGeometry@2@AEBV?$PxTransformT@M@2@PEAV32@PEAIV?$PxFlags@W4Enum@PxGeometryQueryFlag@physx@@I@2@@Z 0000000180012dc0 f   GuGeometryQuery.obj
 0001:00012550       ?populateVerts@?$SupportLocalImpl@VBoxV@Gu@physx@@@Gu@physx@@UEBAXPEBEIPEBV?$PxVec3T@M@3@PEAT__m128@@@Z 0000000180013550 f i GuGeometryQuery.obj
 0001:00012590       ?populateVerts@?$SupportLocalImpl@VConvexHullV@Gu@physx@@@Gu@physx@@UEBAXPEBEIPEBV?$PxVec3T@M@3@PEAT__m128@@@Z 0000000180013590 f i GuGeometryQuery.obj
 0001:000125f0       ?raycast@PxGeometryQuery@physx@@SAIAEBV?$PxVec3T@M@2@0AEBVPxGeometry@2@AEBV?$PxTransformT@M@2@MV?$PxFlags@W4Enum@PxHitFlag@physx@@G@2@IPEIAUPxGeomRaycastHit@2@IV?$PxFlags@W4Enum@PxGeometryQueryFlag@physx@@I@2@PEAUPxQueryThreadContext@2@@Z 00000001800135f0 f   GuGeometryQuery.obj
 0001:000126f0       ?reduceManifoldContactsInDifferentPatches@MultiplePersistentContactManifold@Gu@physx@@QEBAIPEAPEAUPCMContactPatch@23@IPEAVMeshPersistentContact@23@IAEBT__m128@@@Z 00000001800136f0 f i GuGeometryQuery.obj
 0001:00012860       ?refineContactPatchConnective@MultiplePersistentContactManifold@Gu@physx@@QEBAXPEAPEAUPCMContactPatch@23@IPEAVMeshPersistentContact@23@AEBT__m128@@@Z 0000000180013860 f i GuGeometryQuery.obj
 0001:00012950       ?refreshManifold@MultiplePersistentContactManifold@Gu@physx@@QEAAXAEBVPxMatTransformV@aos@3@AEBT__m128@@1@Z 0000000180013950 f i GuGeometryQuery.obj
 0001:00012a50       ?setRelativeTransform@MultiplePersistentContactManifold@Gu@physx@@QEAAXAEBVPxTransformV@aos@3@@Z 0000000180013a50 f i GuGeometryQuery.obj
 0001:00012a60       ?supportVertexIndex@ConvexHullV@Gu@physx@@QEBAIAEBT__m128@@@Z 0000000180013a60 f i GuGeometryQuery.obj
 0001:00012ce0       ?sweep@PxGeometryQuery@physx@@SA_NAEBV?$PxVec3T@M@2@MAEBVPxGeometry@2@AEBV?$PxTransformT@M@2@12AEAUPxGeomSweepHit@2@V?$PxFlags@W4Enum@PxHitFlag@physx@@G@2@MV?$PxFlags@W4Enum@PxGeometryQueryFlag@physx@@I@2@PEAUPxQueryThreadContext@2@@Z 0000000180013ce0 f   GuGeometryQuery.obj
 0001:00013170       ?computeBoxPoints@Gu@physx@@YAXAEBVPxBounds3@2@PEIAV?$PxVec3T@M@2@@Z 0000000180014170 f   GuInternal.obj
 0001:00013210       ?computeSweptBox@Gu@physx@@YAXAEAVBox@12@AEBV?$PxVec3T@M@2@1AEBV?$PxMat33T@M@2@1M@Z 0000000180014210 f   GuInternal.obj
 0001:00013750       ?getPlane@Gu@physx@@YA?AVPxPlane@2@AEBV?$PxTransformT@M@2@@Z 0000000180014750 f   GuInternal.obj
 0001:00013ba0       ??_ECallbackRaycast@RTree@Gu@physx@@UEAAPEAXI@Z 0000000180014ba0 f i GuMidphaseRTree.obj
 0001:00013ba0       ??_ECallbackRefit@RTree@Gu@physx@@UEAAPEAXI@Z 0000000180014ba0 f i GuTriangleMeshRTree.obj
 0001:00013ba0       ??_EPxInsertionCallback@physx@@MEAAPEAXI@Z 0000000180014ba0 f i GuMeshFactory.obj
 0001:00013ba0       ??_GCallbackRaycast@RTree@Gu@physx@@UEAAPEAXI@Z 0000000180014ba0 f i GuMidphaseRTree.obj
 0001:00013ba0       ??_GCallbackRefit@RTree@Gu@physx@@UEAAPEAXI@Z 0000000180014ba0 f i GuTriangleMeshRTree.obj
 0001:00013ba0       ??_GPxInsertionCallback@physx@@MEAAPEAXI@Z 0000000180014ba0 f i GuMeshFactory.obj
 0001:00013bd0       ??$copy@V?$PxReflectionAllocator@USlab@NodeAllocator@Gu@physx@@@physx@@@?$PxArray@USlab@NodeAllocator@Gu@physx@@V?$PxReflectionAllocator@USlab@NodeAllocator@Gu@physx@@@4@@physx@@IEAAXAEBV01@@Z 0000000180014bd0 f i GuMeshFactory.obj
 0001:00013c90       ??0AABBTreeBounds@Gu@physx@@QEAA@XZ 0000000180014c90 f i GuMeshFactory.obj
 0001:00013ca0       ??0AABBTreeBuildNode@Gu@physx@@QEAA@AEBV012@@Z 0000000180014ca0 f i GuMeshFactory.obj
 0001:00013ca0       ??4AABBTreeBuildNode@Gu@physx@@QEAAAEAV012@AEBV012@@Z 0000000180014ca0 f i GuMeshFactory.obj
 0001:00013ce0       ??0AABBTreeBuildParams@Gu@physx@@QEAA@IIPEBVAABBTreeBounds@12@W4BVHBuildStrategy@12@@Z 0000000180014ce0 f i GuMeshFactory.obj
 0001:00013d00       ??0MeshFactory@Gu@physx@@QEAA@XZ 0000000180014d00 f   GuMeshFactory.obj
 0001:00013f00       ??0NodeAllocator@Gu@physx@@QEAA@AEBV012@@Z 0000000180014f00 f i GuMeshFactory.obj
 0001:00013f40       ??0TriangleMeshData@Gu@physx@@QEAA@XZ 0000000180014f40 f i GuMeshFactory.obj
 0001:00014060       ??1AABBTreeBounds@Gu@physx@@QEAA@XZ 0000000180015060 f i GuMeshFactory.obj
 0001:00014070       ??1AABBTreeBuildParams@Gu@physx@@QEAA@XZ 0000000180015070 f i GuMeshFactory.obj
 0001:00014070       ?reset@AABBTreeBuildParams@Gu@physx@@QEAAXXZ 0000000180015070 f i GuMeshFactory.obj
 0001:000140c0       ??1CollisionMeshMappingData@Gu@physx@@UEAA@XZ 00000001800150c0 f i GuMeshFactory.obj
 0001:00014210       ??1MeshDataBase@Gu@physx@@UEAA@XZ 0000000180015210 f i GuMeshFactory.obj
 0001:00014350       ??1MeshFactory@Gu@physx@@MEAA@XZ 0000000180015350 f   GuMeshFactory.obj
 0001:00014490       ??1RTreeTriangleData@Gu@physx@@UEAA@XZ 0000000180015490 f i GuMeshFactory.obj
 0001:00014500       ??1SoftBodyCollisionData@Gu@physx@@UEAA@XZ 0000000180015500 f i GuMeshFactory.obj
 0001:00014640       ??1SoftBodySimulationData@Gu@physx@@UEAA@XZ 0000000180015640 f i GuMeshFactory.obj
 0001:00014760       ??1TetrahedronMeshData@Gu@physx@@QEAA@XZ 0000000180015760 f i GuMeshFactory.obj
 0001:000147f0       ??1TriangleMeshData@Gu@physx@@UEAA@XZ 00000001800157f0 f i GuMeshFactory.obj
 0001:00014920       ??4NodeAllocator@Gu@physx@@QEAAAEAV012@AEBV012@@Z 0000000180015920 f i GuMeshFactory.obj
 0001:000149d0       ??_EMeshFactory@Gu@physx@@MEAAPEAXI@Z 00000001800159d0 f i GuMeshFactory.obj
 0001:00014af0       ??_FAABBTreeBuildParams@Gu@physx@@QEAAXXZ 0000000180015af0 f i GuMeshFactory.obj
 0001:00014b10       ??_EBV4TriangleData@Gu@physx@@UEAAPEAXI@Z 0000000180015b10 f i GuMeshFactory.obj
 0001:00014b10       ??_GBV4TriangleData@Gu@physx@@UEAAPEAXI@Z 0000000180015b10 f i GuMeshFactory.obj
 0001:00014ba0       ??_ECollisionMeshMappingData@Gu@physx@@UEAAPEAXI@Z 0000000180015ba0 f i GuMeshFactory.obj
 0001:00014ba0       ??_GCollisionMeshMappingData@Gu@physx@@UEAAPEAXI@Z 0000000180015ba0 f i GuMeshFactory.obj
 0001:00014c10       ??_EMeshDataBase@Gu@physx@@UEAAPEAXI@Z 0000000180015c10 f i GuMeshFactory.obj
 0001:00014c10       ??_GMeshDataBase@Gu@physx@@UEAAPEAXI@Z 0000000180015c10 f i GuMeshFactory.obj
 0001:00014c80       ??_EPxCollisionMeshMappingData@physx@@UEAAPEAXI@Z 0000000180015c80 f i GuMeshFactory.obj
 0001:00014c80       ??_GPxCollisionMeshMappingData@physx@@UEAAPEAXI@Z 0000000180015c80 f i GuMeshFactory.obj
 0001:00014cd0       ??_ERTreeTriangleData@Gu@physx@@UEAAPEAXI@Z 0000000180015cd0 f i GuMeshFactory.obj
 0001:00014cd0       ??_GRTreeTriangleData@Gu@physx@@UEAAPEAXI@Z 0000000180015cd0 f i GuMeshFactory.obj
 0001:00014d80       ??_ESoftBodyCollisionData@Gu@physx@@UEAAPEAXI@Z 0000000180015d80 f i GuMeshFactory.obj
 0001:00014d80       ??_GSoftBodyCollisionData@Gu@physx@@UEAAPEAXI@Z 0000000180015d80 f i GuMeshFactory.obj
 0001:00014df0       ??_ESoftBodySimulationData@Gu@physx@@UEAAPEAXI@Z 0000000180015df0 f i GuMeshFactory.obj
 0001:00014df0       ??_GSoftBodySimulationData@Gu@physx@@UEAAPEAXI@Z 0000000180015df0 f i GuMeshFactory.obj
 0001:00014e60       ??_ETriangleMeshData@Gu@physx@@UEAAPEAXI@Z 0000000180015e60 f i GuMeshFactory.obj
 0001:00014e60       ??_GTriangleMeshData@Gu@physx@@UEAAPEAXI@Z 0000000180015e60 f i GuMeshFactory.obj
 0001:00014ed0       ??_V@YAXPEAX_K@Z           0000000180015ed0 f i LIBCMT:delete_array_size.obj
 0001:00014ed0       ?__global_delete@@YAXPEAX_K@Z 0000000180015ed0 f i GuMeshFactory.obj
 0001:00014ee0       ?addBVH@MeshFactory@Gu@physx@@QEAAXPEAVBVH@23@_N@Z 0000000180015ee0 f   GuMeshFactory.obj
 0001:00014f60       ?addConvexMesh@MeshFactory@Gu@physx@@QEAAXPEAVConvexMesh@23@_N@Z 0000000180015f60 f   GuMeshFactory.obj
 0001:00014fe0       ?addFactoryListener@MeshFactory@Gu@physx@@QEAAXAEAVMeshFactoryListener@23@@Z 0000000180015fe0 f   GuMeshFactory.obj
 0001:00015050       ?addHeightField@MeshFactory@Gu@physx@@QEAAXPEAVHeightField@23@_N@Z 0000000180016050 f   GuMeshFactory.obj
 0001:000150d0       ?addSoftBodyMesh@MeshFactory@Gu@physx@@QEAAXPEAVSoftBodyMesh@23@_N@Z 00000001800160d0 f   GuMeshFactory.obj
 0001:00015150       ?addTetrahedronMesh@MeshFactory@Gu@physx@@QEAAXPEAVTetrahedronMesh@23@_N@Z 0000000180016150 f   GuMeshFactory.obj
 0001:000151d0       ?addTriangleMesh@MeshFactory@Gu@physx@@QEAAXPEAVTriangleMesh@23@_N@Z 00000001800161d0 f   GuMeshFactory.obj
 0001:00015250       ?allocate@?$PxArray@USlab@NodeAllocator@Gu@physx@@V?$PxReflectionAllocator@USlab@NodeAllocator@Gu@physx@@@4@@physx@@IEAAPEAUSlab@NodeAllocator@Gu@2@IPEAI@Z 0000000180016250 f i GuMeshFactory.obj
 0001:000152e0       ?allocateAdjacencies@TriangleMeshData@Gu@physx@@QEAAPEAIXZ 00000001800162e0 f i GuMeshFactory.obj
 0001:00015350       ?allocateExtraTrigData@TriangleMeshData@Gu@physx@@QEAAPEAEXZ 0000000180016350 f i GuMeshFactory.obj
 0001:000153c0       ?allocateFaceRemap@TriangleMeshData@Gu@physx@@QEAAPEAIXZ 00000001800163c0 f i GuMeshFactory.obj
 0001:00015430       ?allocateGridModelData@SoftBodySimulationData@Gu@physx@@QEAAXIIIIIII@Z 0000000180016430 f i GuMeshFactory.obj
 0001:00015690       ?allocateMaterials@TetrahedronMeshData@Gu@physx@@QEAAPEAGXZ 0000000180016690 f i GuMeshFactory.obj
 0001:00015700       ?allocateMaterials@TriangleMeshData@Gu@physx@@QEAAPEAGXZ 0000000180016700 f i GuMeshFactory.obj
 0001:00015770       ?allocateTetrahedrons@TetrahedronMeshData@Gu@physx@@QEAAXII@Z 0000000180016770 f i GuMeshFactory.obj
 0001:00015800       ?allocateTriangles@TriangleMeshData@Gu@physx@@QEAAPEAXI_NI@Z 0000000180016800 f i GuMeshFactory.obj
 0001:000158f0       ?allocateVertices@MeshDataBase@Gu@physx@@QEAAPEAV?$PxVec3T@M@3@I@Z 00000001800168f0 f i GuMeshFactory.obj
 0001:00015960       ?allocateVertices@TetrahedronMeshData@Gu@physx@@QEAAPEAV?$PxVec3T@M@3@II@Z 0000000180016960 f i GuMeshFactory.obj
 0001:00015a00       ?allocatemappingData@CollisionMeshMappingData@Gu@physx@@QEAAXIIII@Z 0000000180016a00 f i GuMeshFactory.obj
 0001:00015be0       ?create@?$PxHashBase@PEAVBVH@Gu@physx@@PEAV123@U?$PxHash@PEAVBVH@Gu@physx@@@3@UGetKey@?$PxHashSetBase@PEAVBVH@Gu@physx@@U?$PxHash@PEAVBVH@Gu@physx@@@3@VPxAllocator@3@$00@3@VPxAllocator@3@$00@physx@@QEAAPEAPEAVBVH@Gu@2@AEBQEAV342@AEA_N@Z 0000000180016be0 f i GuMeshFactory.obj
 0001:00015be0       ?create@?$PxHashBase@PEAVConvexMesh@Gu@physx@@PEAV123@U?$PxHash@PEAVConvexMesh@Gu@physx@@@3@UGetKey@?$PxHashSetBase@PEAVConvexMesh@Gu@physx@@U?$PxHash@PEAVConvexMesh@Gu@physx@@@3@VPxAllocator@3@$00@3@VPxAllocator@3@$00@physx@@QEAAPEAPEAVConvexMesh@Gu@2@AEBQEAV342@AEA_N@Z 0000000180016be0 f i GuMeshFactory.obj
 0001:00015be0       ?create@?$PxHashBase@PEAVHeightField@Gu@physx@@PEAV123@U?$PxHash@PEAVHeightField@Gu@physx@@@3@UGetKey@?$PxHashSetBase@PEAVHeightField@Gu@physx@@U?$PxHash@PEAVHeightField@Gu@physx@@@3@VPxAllocator@3@$00@3@VPxAllocator@3@$00@physx@@QEAAPEAPEAVHeightField@Gu@2@AEBQEAV342@AEA_N@Z 0000000180016be0 f i GuMeshFactory.obj
 0001:00015be0       ?create@?$PxHashBase@PEAVSoftBodyMesh@Gu@physx@@PEAV123@U?$PxHash@PEAVSoftBodyMesh@Gu@physx@@@3@UGetKey@?$PxHashSetBase@PEAVSoftBodyMesh@Gu@physx@@U?$PxHash@PEAVSoftBodyMesh@Gu@physx@@@3@VPxAllocator@3@$00@3@VPxAllocator@3@$00@physx@@QEAAPEAPEAVSoftBodyMesh@Gu@2@AEBQEAV342@AEA_N@Z 0000000180016be0 f i GuMeshFactory.obj
 0001:00015be0       ?create@?$PxHashBase@PEAVTetrahedronMesh@Gu@physx@@PEAV123@U?$PxHash@PEAVTetrahedronMesh@Gu@physx@@@3@UGetKey@?$PxHashSetBase@PEAVTetrahedronMesh@Gu@physx@@U?$PxHash@PEAVTetrahedronMesh@Gu@physx@@@3@VPxAllocator@3@$00@3@VPxAllocator@3@$00@physx@@QEAAPEAPEAVTetrahedronMesh@Gu@2@AEBQEAV342@AEA_N@Z 0000000180016be0 f i GuMeshFactory.obj
 0001:00015be0       ?create@?$PxHashBase@PEAVTriangleMesh@Gu@physx@@PEAV123@U?$PxHash@PEAVTriangleMesh@Gu@physx@@@3@UGetKey@?$PxHashSetBase@PEAVTriangleMesh@Gu@physx@@U?$PxHash@PEAVTriangleMesh@Gu@physx@@@3@VPxAllocator@3@$00@3@VPxAllocator@3@$00@physx@@QEAAPEAPEAVTriangleMesh@Gu@2@AEBQEAV342@AEA_N@Z 0000000180016be0 f i GuMeshFactory.obj
 0001:00015d70       ?createBVH@MeshFactory@Gu@physx@@IEAAPEAVPxBVH@3@AEAVBVHData@23@@Z 0000000180016d70 f   GuMeshFactory.obj
 0001:00015e60       ?createBVH@MeshFactory@Gu@physx@@QEAAPEAVPxBVH@3@AEAVPxInputStream@3@@Z 0000000180016e60 f   GuMeshFactory.obj
 0001:00015f80       ?createBVH@MeshFactory@Gu@physx@@QEAAPEAVPxBVH@3@PEAX@Z 0000000180016f80 f   GuMeshFactory.obj
 0001:00015f90       ?createConvexMesh@MeshFactory@Gu@physx@@IEAAPEAVPxConvexMesh@3@AEAUConvexHullInitData@23@@Z 0000000180016f90 f   GuMeshFactory.obj
 0001:00016080       ?createConvexMesh@MeshFactory@Gu@physx@@QEAAPEAVPxConvexMesh@3@AEAVPxInputStream@3@@Z 0000000180017080 f   GuMeshFactory.obj
 0001:000161a0       ?createConvexMesh@MeshFactory@Gu@physx@@QEAAPEAVPxConvexMesh@3@PEAX@Z 00000001800171a0 f   GuMeshFactory.obj
 0001:000161b0       ?createHeightField@MeshFactory@Gu@physx@@QEAAPEAVPxHeightField@3@AEAVPxInputStream@3@@Z 00000001800171b0 f   GuMeshFactory.obj
 0001:000162d0       ?createHeightField@MeshFactory@Gu@physx@@QEAAPEAVPxHeightField@3@PEAX@Z 00000001800172d0 f   GuMeshFactory.obj
 0001:000163c0       ?createSoftBodyMesh@MeshFactory@Gu@physx@@IEAAPEAVPxSoftBodyMesh@3@AEAVSoftBodyMeshData@23@@Z 00000001800173c0 f   GuMeshFactory.obj
 0001:000164b0       ?createSoftBodyMesh@MeshFactory@Gu@physx@@QEAAPEAVPxSoftBodyMesh@3@AEAVPxInputStream@3@@Z 00000001800174b0 f   GuMeshFactory.obj
 0001:00016ab0       ?createSoftBodyMesh@MeshFactory@Gu@physx@@QEAAPEAVPxSoftBodyMesh@3@PEAX@Z 0000000180017ab0 f   GuMeshFactory.obj
 0001:00016ac0       ?createTetrahedronMesh@MeshFactory@Gu@physx@@IEAAPEAVPxTetrahedronMesh@3@AEAVTetrahedronMeshData@23@@Z 0000000180017ac0 f   GuMeshFactory.obj
 0001:00016bb0       ?createTetrahedronMesh@MeshFactory@Gu@physx@@QEAAPEAVPxTetrahedronMesh@3@AEAVPxInputStream@3@@Z 0000000180017bb0 f   GuMeshFactory.obj
 0001:00016c20       ?createTetrahedronMesh@MeshFactory@Gu@physx@@QEAAPEAVPxTetrahedronMesh@3@PEAX@Z 0000000180017c20 f   GuMeshFactory.obj
 0001:00016c30       ?createTriangleMesh@MeshFactory@Gu@physx@@IEAAPEAVPxTriangleMesh@3@AEAVTriangleMeshData@23@@Z 0000000180017c30 f   GuMeshFactory.obj
 0001:00016db0       ?createTriangleMesh@MeshFactory@Gu@physx@@QEAAPEAVPxTriangleMesh@3@AEAVPxInputStream@3@@Z 0000000180017db0 f   GuMeshFactory.obj
 0001:00016e10       ?createTriangleMesh@MeshFactory@Gu@physx@@QEAAPEAVPxTriangleMesh@3@PEAX@Z 0000000180017e10 f   GuMeshFactory.obj
 0001:00016e20       ?erase@?$PxHashBase@PEAVBVH@Gu@physx@@PEAV123@U?$PxHash@PEAVBVH@Gu@physx@@@3@UGetKey@?$PxHashSetBase@PEAVBVH@Gu@physx@@U?$PxHash@PEAVBVH@Gu@physx@@@3@VPxAllocator@3@$00@3@VPxAllocator@3@$00@physx@@QEAA_NAEBQEAVBVH@Gu@2@@Z 0000000180017e20 f i GuMeshFactory.obj
 0001:00016e20       ?erase@?$PxHashBase@PEAVConvexMesh@Gu@physx@@PEAV123@U?$PxHash@PEAVConvexMesh@Gu@physx@@@3@UGetKey@?$PxHashSetBase@PEAVConvexMesh@Gu@physx@@U?$PxHash@PEAVConvexMesh@Gu@physx@@@3@VPxAllocator@3@$00@3@VPxAllocator@3@$00@physx@@QEAA_NAEBQEAVConvexMesh@Gu@2@@Z 0000000180017e20 f i GuMeshFactory.obj
 0001:00016e20       ?erase@?$PxHashBase@PEAVHeightField@Gu@physx@@PEAV123@U?$PxHash@PEAVHeightField@Gu@physx@@@3@UGetKey@?$PxHashSetBase@PEAVHeightField@Gu@physx@@U?$PxHash@PEAVHeightField@Gu@physx@@@3@VPxAllocator@3@$00@3@VPxAllocator@3@$00@physx@@QEAA_NAEBQEAVHeightField@Gu@2@@Z 0000000180017e20 f i GuMeshFactory.obj
 0001:00016e20       ?erase@?$PxHashBase@PEAVSoftBodyMesh@Gu@physx@@PEAV123@U?$PxHash@PEAVSoftBodyMesh@Gu@physx@@@3@UGetKey@?$PxHashSetBase@PEAVSoftBodyMesh@Gu@physx@@U?$PxHash@PEAVSoftBodyMesh@Gu@physx@@@3@VPxAllocator@3@$00@3@VPxAllocator@3@$00@physx@@QEAA_NAEBQEAVSoftBodyMesh@Gu@2@@Z 0000000180017e20 f i GuMeshFactory.obj
 0001:00016e20       ?erase@?$PxHashBase@PEAVTetrahedronMesh@Gu@physx@@PEAV123@U?$PxHash@PEAVTetrahedronMesh@Gu@physx@@@3@UGetKey@?$PxHashSetBase@PEAVTetrahedronMesh@Gu@physx@@U?$PxHash@PEAVTetrahedronMesh@Gu@physx@@@3@VPxAllocator@3@$00@3@VPxAllocator@3@$00@physx@@QEAA_NAEBQEAVTetrahedronMesh@Gu@2@@Z 0000000180017e20 f i GuMeshFactory.obj
 0001:00016e20       ?erase@?$PxHashBase@PEAVTriangleMesh@Gu@physx@@PEAV123@U?$PxHash@PEAVTriangleMesh@Gu@physx@@@3@UGetKey@?$PxHashSetBase@PEAVTriangleMesh@Gu@physx@@U?$PxHash@PEAVTriangleMesh@Gu@physx@@@3@VPxAllocator@3@$00@3@VPxAllocator@3@$00@physx@@QEAA_NAEBQEAVTriangleMesh@Gu@2@@Z 0000000180017e20 f i GuMeshFactory.obj
 0001:00016fa0       ?getBVHs@MeshFactory@Gu@physx@@QEBAIPEAPEAVPxBVH@3@II@Z 0000000180017fa0 f   GuMeshFactory.obj
 0001:00017040       ?getBounds@AABBTreeBounds@Gu@physx@@QEAAPEAVPxBounds3@3@XZ 0000000180018040 f i GuMeshFactory.obj
 0001:00017040       ?getBounds@AABBTreeBounds@Gu@physx@@QEBAPEBVPxBounds3@3@XZ 0000000180018040 f i GuMeshFactory.obj
 0001:00017050       ?getConvexMeshes@MeshFactory@Gu@physx@@QEBAIPEAPEAVPxConvexMesh@3@II@Z 0000000180018050 f   GuMeshFactory.obj
 0001:000170f0       ?getHeightFields@MeshFactory@Gu@physx@@QEBAIPEAPEAVPxHeightField@3@II@Z 00000001800180f0 f   GuMeshFactory.obj
 0001:00017190       ?getNbBVHs@MeshFactory@Gu@physx@@QEBAIXZ 0000000180018190 f   GuMeshFactory.obj
 0001:000171d0       ?getNbConvexMeshes@MeshFactory@Gu@physx@@QEBAIXZ 00000001800181d0 f   GuMeshFactory.obj
 0001:00017210       ?getNbHeightFields@MeshFactory@Gu@physx@@QEBAIXZ 0000000180018210 f   GuMeshFactory.obj
 0001:00017250       ?getNbPrimitives@AABBTreeBuildNode@Gu@physx@@QEBAIXZ 0000000180018250 f i GuMeshFactory.obj
 0001:00017250       ?getNbRuntimePrimitives@AABBTreeBuildNode@Gu@physx@@QEBAIXZ 0000000180018250 f i GuMeshFactory.obj
 0001:00017260       ?getNbSoftBodyMeshes@MeshFactory@Gu@physx@@QEBAIXZ 0000000180018260 f   GuMeshFactory.obj
 0001:000172a0       ?getNbTetrahedronMeshes@MeshFactory@Gu@physx@@QEBAIXZ 00000001800182a0 f   GuMeshFactory.obj
 0001:000172e0       ?getNbTriangleMeshes@MeshFactory@Gu@physx@@QEBAIXZ 00000001800182e0 f   GuMeshFactory.obj
 0001:00017320       ?getNeg@AABBTreeBuildNode@Gu@physx@@QEBAPEBV123@XZ 0000000180018320 f i GuMeshFactory.obj
 0001:00017340       ?getPrimitives@AABBTreeBuildNode@Gu@physx@@QEAAPEAIPEAI@Z 0000000180018340 f i GuMeshFactory.obj
 0001:00017340       ?getPrimitives@AABBTreeBuildNode@Gu@physx@@QEBAPEBIPEBI@Z 0000000180018340 f i GuMeshFactory.obj
 0001:00017350       ?getSoftBodyMeshes@MeshFactory@Gu@physx@@QEBAIPEAPEAVPxSoftBodyMesh@3@II@Z 0000000180018350 f   GuMeshFactory.obj
 0001:000173f0       ?getTetrahedronMeshes@MeshFactory@Gu@physx@@QEBAIPEAPEAVPxTetrahedronMesh@3@II@Z 00000001800183f0 f   GuMeshFactory.obj
 0001:00017480       ?getTriangleMeshes@MeshFactory@Gu@physx@@QEBAIPEAPEAVPxTriangleMesh@3@II@Z 0000000180018480 f   GuMeshFactory.obj
 0001:00017510       ?growAndPushBack@?$PxArray@PEAVMeshFactoryListener@Gu@physx@@V?$PxReflectionAllocator@PEAVMeshFactoryListener@Gu@physx@@@3@@physx@@IEAAAEAPEAVMeshFactoryListener@Gu@2@AEBQEAV342@@Z 0000000180018510 f i GuMeshFactory.obj
 0001:00017630       ?isLeaf@AABBTreeBuildNode@Gu@physx@@QEBA_NXZ 0000000180018630 f i GuMeshFactory.obj
 0001:00019050       ?moveFrom@AABBTreeBounds@Gu@physx@@QEAAXAEAV123@@Z 000000018001a050 f i GuMeshFactory.obj
 0001:00019060       ?notifyFactoryListener@MeshFactory@Gu@physx@@QEAAXPEBVPxBase@3@G@Z 000000018001a060 f   GuMeshFactory.obj
 0001:000190d0       ?ownsMemory@AABBTreeBounds@Gu@physx@@QEBA_NXZ 000000018001a0d0 f i GuMeshFactory.obj
 0001:000193b0       ?recreate@?$PxArray@USlab@NodeAllocator@Gu@physx@@V?$PxReflectionAllocator@USlab@NodeAllocator@Gu@physx@@@4@@physx@@IEAAXI@Z 000000018001a3b0 f i GuMeshFactory.obj
 0001:000194a0       ?release@CollisionMeshMappingData@Gu@physx@@UEAAXXZ 000000018001a4a0 f i GuMeshFactory.obj
 0001:000194c0       ?release@MeshFactory@Gu@physx@@QEAAXXZ 000000018001a4c0 f   GuMeshFactory.obj
 0001:000195c0       ?remove@MeshFactory@Gu@physx@@QEAA_NAEAVPxBase@3@@Z 000000018001a5c0 f   GuMeshFactory.obj
 0001:000196c0       ?removeBVH@MeshFactory@Gu@physx@@QEAA_NAEAVPxBVH@3@@Z 000000018001a6c0 f   GuMeshFactory.obj
 0001:00019710       ?removeConvexMesh@MeshFactory@Gu@physx@@QEAA_NAEAVPxConvexMesh@3@@Z 000000018001a710 f   GuMeshFactory.obj
 0001:00019760       ?removeFactoryListener@MeshFactory@Gu@physx@@QEAAXAEAVMeshFactoryListener@23@@Z 000000018001a760 f   GuMeshFactory.obj
 0001:000197f0       ?removeHeightField@MeshFactory@Gu@physx@@QEAA_NAEAVPxHeightField@3@@Z 000000018001a7f0 f   GuMeshFactory.obj
 0001:00019840       ?removeSoftBodyMesh@MeshFactory@Gu@physx@@QEAA_NAEAVPxSoftBodyMesh@3@@Z 000000018001a840 f   GuMeshFactory.obj
 0001:00019890       ?removeTetrahedronMesh@MeshFactory@Gu@physx@@QEAA_NAEAVPxTetrahedronMesh@3@@Z 000000018001a890 f   GuMeshFactory.obj
 0001:000198e0       ?removeTriangleMesh@MeshFactory@Gu@physx@@QEAA_NAEAVPxTriangleMesh@3@@Z 000000018001a8e0 f   GuMeshFactory.obj
 0001:00019930       ?reserveInternal@?$PxHashBase@PEAVBVH@Gu@physx@@PEAV123@U?$PxHash@PEAVBVH@Gu@physx@@@3@UGetKey@?$PxHashSetBase@PEAVBVH@Gu@physx@@U?$PxHash@PEAVBVH@Gu@physx@@@3@VPxAllocator@3@$00@3@VPxAllocator@3@$00@physx@@AEAAXI@Z 000000018001a930 f i GuMeshFactory.obj
 0001:00019930       ?reserveInternal@?$PxHashBase@PEAVConvexMesh@Gu@physx@@PEAV123@U?$PxHash@PEAVConvexMesh@Gu@physx@@@3@UGetKey@?$PxHashSetBase@PEAVConvexMesh@Gu@physx@@U?$PxHash@PEAVConvexMesh@Gu@physx@@@3@VPxAllocator@3@$00@3@VPxAllocator@3@$00@physx@@AEAAXI@Z 000000018001a930 f i GuMeshFactory.obj
 0001:00019930       ?reserveInternal@?$PxHashBase@PEAVHeightField@Gu@physx@@PEAV123@U?$PxHash@PEAVHeightField@Gu@physx@@@3@UGetKey@?$PxHashSetBase@PEAVHeightField@Gu@physx@@U?$PxHash@PEAVHeightField@Gu@physx@@@3@VPxAllocator@3@$00@3@VPxAllocator@3@$00@physx@@AEAAXI@Z 000000018001a930 f i GuMeshFactory.obj
 0001:00019930       ?reserveInternal@?$PxHashBase@PEAVSoftBodyMesh@Gu@physx@@PEAV123@U?$PxHash@PEAVSoftBodyMesh@Gu@physx@@@3@UGetKey@?$PxHashSetBase@PEAVSoftBodyMesh@Gu@physx@@U?$PxHash@PEAVSoftBodyMesh@Gu@physx@@@3@VPxAllocator@3@$00@3@VPxAllocator@3@$00@physx@@AEAAXI@Z 000000018001a930 f i GuMeshFactory.obj
 0001:00019930       ?reserveInternal@?$PxHashBase@PEAVTetrahedronMesh@Gu@physx@@PEAV123@U?$PxHash@PEAVTetrahedronMesh@Gu@physx@@@3@UGetKey@?$PxHashSetBase@PEAVTetrahedronMesh@Gu@physx@@U?$PxHash@PEAVTetrahedronMesh@Gu@physx@@@3@VPxAllocator@3@$00@3@VPxAllocator@3@$00@physx@@AEAAXI@Z 000000018001a930 f i GuMeshFactory.obj
 0001:00019930       ?reserveInternal@?$PxHashBase@PEAVTriangleMesh@Gu@physx@@PEAV123@U?$PxHash@PEAVTriangleMesh@Gu@physx@@@3@UGetKey@?$PxHashSetBase@PEAVTriangleMesh@Gu@physx@@U?$PxHash@PEAVTriangleMesh@Gu@physx@@@3@VPxAllocator@3@$00@3@VPxAllocator@3@$00@physx@@AEAAXI@Z 000000018001a930 f i GuMeshFactory.obj
 0001:00019b00       ?setBounds@AABBTreeBounds@Gu@physx@@QEAAXPEAVPxBounds3@3@@Z 000000018001ab00 f i GuMeshFactory.obj
 0001:00019b10       ?setNbRunTimePrimitives@AABBTreeBuildNode@Gu@physx@@QEAAXI@Z 000000018001ab10 f i GuMeshFactory.obj
 0001:00019b20       ?takeOwnership@AABBTreeBounds@Gu@physx@@QEAAXXZ 000000018001ab20 f i GuMeshFactory.obj
 0001:00019b30       getInsertionCallback       000000018001ab30 f   GuMeshFactory.obj
 0001:00019b40       ??4BigConvexData@physx@@QEAAAEAV01@AEBV01@@Z 000000018001ab40 f i GuMetaData.obj
 0001:00019b60       ?GetAdjacentVerts@BigConvexData@physx@@QEBAPEBEXZ 000000018001ab60 f i GuMetaData.obj
 0001:00019b60       ?getSoftBodyAuxData@SoftBodyMesh@Gu@physx@@UEAAPEAVPxSoftBodyAuxData@3@XZ 000000018001ab60 f i GuTetrahedronMesh.obj
 0001:00019b60       ?getSoftBodyAuxData@SoftBodyMesh@Gu@physx@@UEBAPEBVPxSoftBodyAuxData@3@XZ 000000018001ab60 f i GuTetrahedronMesh.obj
 0001:00019b60       ?getTransforms@PruningPool@Gu@physx@@QEAAPEAV?$PxTransformT@M@3@XZ 000000018001ab60 f i GuIncrementalAABBPrunerCore.obj
 0001:00019b60       ?getTransforms@PruningPool@Gu@physx@@QEBAPEBV?$PxTransformT@M@3@XZ 000000018001ab60 f i GuIncrementalAABBPrunerCore.obj
 0001:00019b60       ?getTriangles@TriangleMesh@Gu@physx@@UEBAPEBXXZ 000000018001ab60 f i GuTriangleMesh.obj
 0001:00019b70       ?GetNbNeighbors@BigConvexData@physx@@QEBAGI@Z 000000018001ab70 f i GuMetaData.obj
 0001:00019b70       ?GetValency@BigConvexData@physx@@QEBAGI@Z 000000018001ab70 f i GuMetaData.obj
 0001:00019b80       ?GetNbSamples@BigConvexData@physx@@QEBAIXZ 000000018001ab80 f i GuMetaData.obj
 0001:00019b90       ?GetNbVerts@BigConvexData@physx@@QEBAIXZ 000000018001ab90 f i GuMetaData.obj
 0001:00019b90       ?getNbVertices@TetrahedronMesh@Gu@physx@@UEBAIXZ 000000018001ab90 f i GuTetrahedronMesh.obj
 0001:00019b90       ?getNbVertices@TriangleMesh@Gu@physx@@UEBAIXZ 000000018001ab90 f i GuTriangleMesh.obj
 0001:00019b90       ?length@pcharNode@@UEBAHXZ 000000018001ab90 f i libvcruntime:undname.obj
 0001:00019b90       ?raw_length@pcharNode@@UEBAHXZ 000000018001ab90 f i libvcruntime:undname.obj
 0001:00019ba0       ?GetNeighbors@BigConvexData@physx@@QEBAPEBEI@Z 000000018001aba0 f i GuMetaData.obj
 0001:00019bb0       ?GetOffset@BigConvexData@physx@@QEBAGI@Z 000000018001abb0 f i GuMetaData.obj
 0001:00019bc0       ?GetSubdiv@BigConvexData@physx@@QEBAIXZ 000000018001abc0 f i GuMetaData.obj
 0001:00019bd0       ?getBinaryMetaData@BV4Tree@Gu@physx@@SAXAEAVPxOutputStream@3@@Z 000000018001abd0 f   GuMetaData.obj
 0001:0001a170       ?getBinaryMetaData@BV4TriangleMesh@Gu@physx@@SAXAEAVPxOutputStream@3@@Z 000000018001b170 f   GuMetaData.obj
 0001:0001a4f0       ?getBinaryMetaData@BigConvexData@physx@@SAXAEAVPxOutputStream@2@@Z 000000018001b4f0 f   GuMetaData.obj
 0001:0001a7b0       ?getBinaryMetaData@ConvexMesh@Gu@physx@@SAXAEAVPxOutputStream@3@@Z 000000018001b7b0 f   GuMetaData.obj
 0001:0001ae30       ?getBinaryMetaData@HeightField@Gu@physx@@SAXAEAVPxOutputStream@3@@Z 000000018001be30 f   GuMetaData.obj
 0001:0001b220       ?getBinaryMetaData@RTree@Gu@physx@@SAXAEAVPxOutputStream@3@@Z 000000018001c220 f   GuMetaData.obj
 0001:0001b550       ?getBinaryMetaData@RTreeTriangleMesh@Gu@physx@@SAXAEAVPxOutputStream@3@@Z 000000018001c550 f   GuMetaData.obj
 0001:0001b630       ?getBinaryMetaData@SDF@Gu@physx@@SAXAEAVPxOutputStream@3@@Z 000000018001c630 f   GuMetaData.obj
 0001:0001bb10       ?getBinaryMetaData@TriangleMesh@Gu@physx@@SAXAEAVPxOutputStream@3@@Z 000000018001cb10 f   GuMetaData.obj
 0001:0001d1c0       ?doSupport@?$SupportLocalImpl@VConvexHullNoScaleV@Gu@physx@@@Gu@physx@@UEBA?AT__m128@@AEBT4@@Z 000000018001e1c0 f i GuMTD.obj
 0001:0001d210       ?doSupport@?$SupportLocalImpl@VConvexHullNoScaleV@Gu@physx@@@Gu@physx@@UEBAXAEBT__m128@@AEAT4@1@Z 000000018001e210 f i GuMTD.obj
 0001:0001d390       ?populateVerts@?$SupportLocalImpl@VConvexHullNoScaleV@Gu@physx@@@Gu@physx@@UEBAXPEBEIPEBV?$PxVec3T@M@3@PEAT__m128@@@Z 000000018001e390 f i GuMTD.obj
 0001:0001d3d0       ?getInternalData@TriangleMesh@Gu@physx@@UEBA_NAEAUPxTriangleMeshInternalData@3@_N@Z 000000018001e3d0 f   GuTriangleMesh.obj
 0001:0001d3d0       ?isDynamic@Pruner@Gu@physx@@UEBA_NXZ 000000018001e3d0 f   GuIncrementalAABBPruner.obj
 0001:0001f210       ??$gjk@U?$LocalConvex@VCapsuleV@Gu@physx@@@Gu@physx@@U?$LocalConvex@VConvexHullV@Gu@physx@@@23@@Gu@physx@@YA?AW4GjkStatus@01@AEBU?$LocalConvex@VCapsuleV@Gu@physx@@@01@AEBU?$LocalConvex@VConvexHullV@Gu@physx@@@01@AEBT__m128@@2AEAT5@333@Z 0000000180020210 f i GuMTD.obj
 0001:0001ff70       ??_E?$LocalConvex@UCustomConvexV@@@Gu@physx@@UEAAPEAXI@Z 0000000180020f70 f i GuGjkQuery.obj
 0001:0001ff70       ??_E?$LocalConvex@UPointConvexV@@@Gu@physx@@UEAAPEAXI@Z 0000000180020f70 f i GuGjkQuery.obj
 0001:0001ff70       ??_E?$LocalConvex@VBoxV@Gu@physx@@@Gu@physx@@UEAAPEAXI@Z 0000000180020f70 f i GuSweepTests.obj
 0001:0001ff70       ??_E?$LocalConvex@VCapsuleV@Gu@physx@@@Gu@physx@@UEAAPEAXI@Z 0000000180020f70 f i GuMTD.obj
 0001:0001ff70       ??_E?$LocalConvex@VConvexHullNoScaleV@Gu@physx@@@Gu@physx@@UEAAPEAXI@Z 0000000180020f70 f i GuPCMContactBoxConvex.obj
 0001:0001ff70       ??_E?$LocalConvex@VConvexHullV@Gu@physx@@@Gu@physx@@UEAAPEAXI@Z 0000000180020f70 f i GuMTD.obj
 0001:0001ff70       ??_E?$LocalConvex@VTetrahedronV@Gu@physx@@@Gu@physx@@UEAAPEAXI@Z 0000000180020f70 f i GuCookingTetrahedronMesh.obj
 0001:0001ff70       ??_E?$LocalConvex@VTriangleV@Gu@physx@@@Gu@physx@@UEAAPEAXI@Z 0000000180020f70 f i GuSweepTests.obj
 0001:0001ff70       ??_EGjkConvex@Gu@physx@@UEAAPEAXI@Z 0000000180020f70 f i GuMTD.obj
 0001:0001ff70       ??_G?$LocalConvex@UCustomConvexV@@@Gu@physx@@UEAAPEAXI@Z 0000000180020f70 f i GuGjkQuery.obj
 0001:0001ff70       ??_G?$LocalConvex@UPointConvexV@@@Gu@physx@@UEAAPEAXI@Z 0000000180020f70 f i GuGjkQuery.obj
 0001:0001ff70       ??_G?$LocalConvex@VBoxV@Gu@physx@@@Gu@physx@@UEAAPEAXI@Z 0000000180020f70 f i GuSweepTests.obj
 0001:0001ff70       ??_G?$LocalConvex@VCapsuleV@Gu@physx@@@Gu@physx@@UEAAPEAXI@Z 0000000180020f70 f i GuMTD.obj
 0001:0001ff70       ??_G?$LocalConvex@VConvexHullNoScaleV@Gu@physx@@@Gu@physx@@UEAAPEAXI@Z 0000000180020f70 f i GuPCMContactBoxConvex.obj
 0001:0001ff70       ??_G?$LocalConvex@VConvexHullV@Gu@physx@@@Gu@physx@@UEAAPEAXI@Z 0000000180020f70 f i GuMTD.obj
 0001:0001ff70       ??_G?$LocalConvex@VTetrahedronV@Gu@physx@@@Gu@physx@@UEAAPEAXI@Z 0000000180020f70 f i GuCookingTetrahedronMesh.obj
 0001:0001ff70       ??_G?$LocalConvex@VTriangleV@Gu@physx@@@Gu@physx@@UEAAPEAXI@Z 0000000180020f70 f i GuSweepTests.obj
 0001:0001ff70       ??_GGjkConvex@Gu@physx@@UEAAPEAXI@Z 0000000180020f70 f i GuMTD.obj
 0001:000240a0       ?getCenter@?$LocalConvex@UCustomConvexV@@@Gu@physx@@UEBA?AT__m128@@XZ 00000001800250a0 f i GuGjkQuery.obj
 0001:000240a0       ?getCenter@?$LocalConvex@UPointConvexV@@@Gu@physx@@UEBA?AT__m128@@XZ 00000001800250a0 f i GuGjkQuery.obj
 0001:000240a0       ?getCenter@?$LocalConvex@VBoxV@Gu@physx@@@Gu@physx@@UEBA?AT__m128@@XZ 00000001800250a0 f i GuSweepTests.obj
 0001:000240a0       ?getCenter@?$LocalConvex@VCapsuleV@Gu@physx@@@Gu@physx@@UEBA?AT__m128@@XZ 00000001800250a0 f i GuMTD.obj
 0001:000240a0       ?getCenter@?$LocalConvex@VConvexHullNoScaleV@Gu@physx@@@Gu@physx@@UEBA?AT__m128@@XZ 00000001800250a0 f i GuPCMContactBoxConvex.obj
 0001:000240a0       ?getCenter@?$LocalConvex@VConvexHullV@Gu@physx@@@Gu@physx@@UEBA?AT__m128@@XZ 00000001800250a0 f i GuMTD.obj
 0001:000240a0       ?getCenter@?$LocalConvex@VTetrahedronV@Gu@physx@@@Gu@physx@@UEBA?AT__m128@@XZ 00000001800250a0 f i GuCookingTetrahedronMesh.obj
 0001:000240a0       ?getCenter@?$LocalConvex@VTriangleV@Gu@physx@@@Gu@physx@@UEBA?AT__m128@@XZ 00000001800250a0 f i GuSweepTests.obj
 0001:000240b0       ?getSweepMargin@?$LocalConvex@VCapsuleV@Gu@physx@@@Gu@physx@@UEBA?AT__m128@@XZ 00000001800250b0 f i GuMTD.obj
 0001:000240b0       ?getSweepMargin@?$RelativeConvex@VCapsuleV@Gu@physx@@@Gu@physx@@UEBA?AT__m128@@XZ 00000001800250b0 f i GuCCDSweepPrimitives.obj
 0001:000240c0       ?getSweepMargin@?$LocalConvex@UCustomConvexV@@@Gu@physx@@UEBA?AT__m128@@XZ 00000001800250c0 f i GuGjkQuery.obj
 0001:000240c0       ?getSweepMargin@?$LocalConvex@UPointConvexV@@@Gu@physx@@UEBA?AT__m128@@XZ 00000001800250c0 f i GuGjkQuery.obj
 0001:000240c0       ?getSweepMargin@?$LocalConvex@VBoxV@Gu@physx@@@Gu@physx@@UEBA?AT__m128@@XZ 00000001800250c0 f i GuSweepTests.obj
 0001:000240c0       ?getSweepMargin@?$LocalConvex@VConvexHullNoScaleV@Gu@physx@@@Gu@physx@@UEBA?AT__m128@@XZ 00000001800250c0 f i GuPCMContactBoxConvex.obj
 0001:000240c0       ?getSweepMargin@?$LocalConvex@VConvexHullV@Gu@physx@@@Gu@physx@@UEBA?AT__m128@@XZ 00000001800250c0 f i GuMTD.obj
 0001:000240c0       ?getSweepMargin@?$RelativeConvex@UCustomConvexV@@@Gu@physx@@UEBA?AT__m128@@XZ 00000001800250c0 f i GuGjkQuery.obj
 0001:000240c0       ?getSweepMargin@?$RelativeConvex@VBoxV@Gu@physx@@@Gu@physx@@UEBA?AT__m128@@XZ 00000001800250c0 f i GuOverlapTests.obj
 0001:000240c0       ?getSweepMargin@?$RelativeConvex@VConvexHullNoScaleV@Gu@physx@@@Gu@physx@@UEBA?AT__m128@@XZ 00000001800250c0 f i GuPCMContactConvexConvex.obj
 0001:000240c0       ?getSweepMargin@?$RelativeConvex@VConvexHullV@Gu@physx@@@Gu@physx@@UEBA?AT__m128@@XZ 00000001800250c0 f i GuOverlapTests.obj
 0001:000240e0       ?getSweepMargin@GjkConvex@Gu@physx@@UEBA?AT__m128@@XZ 00000001800250e0 f i GuMTD.obj
 0001:00024100       ?pointConvexDistance@@YA_NAEAV?$PxVec3T@M@physx@@0AEAMAEBV12@PEBVConvexMesh@Gu@2@AEBVPxMeshScale@2@AEBUPxTransformPadded@2@@Z 0000000180025100 f   GuMTD.obj
 0001:00024e70       ?support@?$LocalConvex@VCapsuleV@Gu@physx@@@Gu@physx@@UEBA?AT__m128@@AEBT4@@Z 0000000180025e70 f i GuMTD.obj
 0001:00024ed0       ?support@?$LocalConvex@VCapsuleV@Gu@physx@@@Gu@physx@@UEBA?AT__m128@@AEBT4@AEAH@Z 0000000180025ed0 f i GuMTD.obj
 0001:00024f40       ?support@?$LocalConvex@VConvexHullV@Gu@physx@@@Gu@physx@@UEBA?AT__m128@@AEBT4@@Z 0000000180025f40 f i GuMTD.obj
 0001:00025020       ?support@?$LocalConvex@VConvexHullV@Gu@physx@@@Gu@physx@@UEBA?AT__m128@@AEBT4@AEAH@Z 0000000180026020 f i GuMTD.obj
 0001:000250f0       ?support@GjkConvex@Gu@physx@@UEBA?AT__m128@@AEBT4@@Z 00000001800260f0 f i GuMTD.obj
 0001:00025110       ?support@GjkConvex@Gu@physx@@UEBA?AT__m128@@AEBT4@AEAH@Z 0000000180026110 f i GuMTD.obj
 0001:00025130       ?supportPoint@?$LocalConvex@VCapsuleV@Gu@physx@@@Gu@physx@@UEBA?AT__m128@@H@Z 0000000180026130 f i GuMTD.obj
 0001:00025160       ?supportPoint@?$LocalConvex@VConvexHullV@Gu@physx@@@Gu@physx@@UEBA?AT__m128@@H@Z 0000000180026160 f i GuMTD.obj
 0001:000251b0       ?supportPoint@GjkConvex@Gu@physx@@UEBA?AT__m128@@H@Z 00000001800261b0 f i GuMTD.obj
 0001:000251d0       ?supportPoint@?$RelativeConvex@VBoxV@Gu@physx@@@Gu@physx@@UEBA?AT__m128@@H@Z 00000001800261d0 f i GuOverlapTests.obj
 0001:00025240       ?support@?$RelativeConvex@VBoxV@Gu@physx@@@Gu@physx@@UEBA?AT__m128@@AEBT4@@Z 0000000180026240 f i GuOverlapTests.obj
 0001:000252c0       ?support@?$RelativeConvex@VBoxV@Gu@physx@@@Gu@physx@@UEBA?AT__m128@@AEBT4@AEAH@Z 00000001800262c0 f i GuOverlapTests.obj
 0001:00025350       ?getCenter@?$RelativeConvex@UCustomConvexV@@@Gu@physx@@UEBA?AT__m128@@XZ 0000000180026350 f i GuGjkQuery.obj
 0001:00025350       ?getCenter@?$RelativeConvex@VBoxV@Gu@physx@@@Gu@physx@@UEBA?AT__m128@@XZ 0000000180026350 f i GuOverlapTests.obj
 0001:00025350       ?getCenter@?$RelativeConvex@VCapsuleV@Gu@physx@@@Gu@physx@@UEBA?AT__m128@@XZ 0000000180026350 f i GuCCDSweepPrimitives.obj
 0001:00025350       ?getCenter@?$RelativeConvex@VConvexHullNoScaleV@Gu@physx@@@Gu@physx@@UEBA?AT__m128@@XZ 0000000180026350 f i GuPCMContactConvexConvex.obj
 0001:00025350       ?getCenter@?$RelativeConvex@VConvexHullV@Gu@physx@@@Gu@physx@@UEBA?AT__m128@@XZ 0000000180026350 f i GuOverlapTests.obj
 0001:00025350       ?getCenter@?$RelativeConvex@VTriangleV@Gu@physx@@@Gu@physx@@UEBA?AT__m128@@XZ 0000000180026350 f i GuCCDSweepPrimitives.obj
 0001:00025390       ??_E?$RelativeConvex@UCustomConvexV@@@Gu@physx@@UEAAPEAXI@Z 0000000180026390 f i GuGjkQuery.obj
 0001:00025390       ??_E?$RelativeConvex@VBoxV@Gu@physx@@@Gu@physx@@UEAAPEAXI@Z 0000000180026390 f i GuOverlapTests.obj
 0001:00025390       ??_E?$RelativeConvex@VCapsuleV@Gu@physx@@@Gu@physx@@UEAAPEAXI@Z 0000000180026390 f i GuCCDSweepPrimitives.obj
 0001:00025390       ??_E?$RelativeConvex@VConvexHullNoScaleV@Gu@physx@@@Gu@physx@@UEAAPEAXI@Z 0000000180026390 f i GuPCMContactConvexConvex.obj
 0001:00025390       ??_E?$RelativeConvex@VConvexHullV@Gu@physx@@@Gu@physx@@UEAAPEAXI@Z 0000000180026390 f i GuOverlapTests.obj
 0001:00025390       ??_E?$RelativeConvex@VTriangleV@Gu@physx@@@Gu@physx@@UEAAPEAXI@Z 0000000180026390 f i GuCCDSweepPrimitives.obj
 0001:00025390       ??_G?$RelativeConvex@UCustomConvexV@@@Gu@physx@@UEAAPEAXI@Z 0000000180026390 f i GuGjkQuery.obj
 0001:00025390       ??_G?$RelativeConvex@VBoxV@Gu@physx@@@Gu@physx@@UEAAPEAXI@Z 0000000180026390 f i GuOverlapTests.obj
 0001:00025390       ??_G?$RelativeConvex@VCapsuleV@Gu@physx@@@Gu@physx@@UEAAPEAXI@Z 0000000180026390 f i GuCCDSweepPrimitives.obj
 0001:00025390       ??_G?$RelativeConvex@VConvexHullNoScaleV@Gu@physx@@@Gu@physx@@UEAAPEAXI@Z 0000000180026390 f i GuPCMContactConvexConvex.obj
 0001:00025390       ??_G?$RelativeConvex@VConvexHullV@Gu@physx@@@Gu@physx@@UEAAPEAXI@Z 0000000180026390 f i GuOverlapTests.obj
 0001:00025390       ??_G?$RelativeConvex@VTriangleV@Gu@physx@@@Gu@physx@@UEAAPEAXI@Z 0000000180026390 f i GuCCDSweepPrimitives.obj
 0001:00027500       ?supportPoint@?$RelativeConvex@VConvexHullV@Gu@physx@@@Gu@physx@@UEBA?AT__m128@@H@Z 0000000180028500 f i GuOverlapTests.obj
 0001:00027580       ?support@?$RelativeConvex@VConvexHullV@Gu@physx@@@Gu@physx@@UEBA?AT__m128@@AEBT4@@Z 0000000180028580 f i GuOverlapTests.obj
 0001:000276b0       ?support@?$RelativeConvex@VConvexHullV@Gu@physx@@@Gu@physx@@UEBA?AT__m128@@AEBT4@AEAH@Z 00000001800286b0 f i GuOverlapTests.obj
 0001:00027840       ??$gjk@U?$RelativeConvex@VBoxV@Gu@physx@@@Gu@physx@@U?$LocalConvex@VConvexHullV@Gu@physx@@@23@@Gu@physx@@YA?AW4GjkStatus@01@AEBU?$RelativeConvex@VBoxV@Gu@physx@@@01@AEBU?$LocalConvex@VConvexHullV@Gu@physx@@@01@AEBT__m128@@2AEAT5@333@Z 0000000180028840 f i GuOverlapTests.obj
 0001:000285f0       ??$gjk@U?$RelativeConvex@VConvexHullV@Gu@physx@@@Gu@physx@@U?$LocalConvex@VConvexHullV@Gu@physx@@@23@@Gu@physx@@YA?AW4GjkStatus@01@AEBU?$RelativeConvex@VConvexHullV@Gu@physx@@@01@AEBU?$LocalConvex@VConvexHullV@Gu@physx@@@01@AEBT__m128@@2AEAT5@333@Z 00000001800295f0 f i GuOverlapTests.obj
 0001:00029480       ?ComputeCubemapNearestOffset@physx@@YAIAEBV?$PxVec3T@M@1@I@Z 000000018002a480 f i GuOverlapTests.obj
 0001:00029580       ?getOverlapFuncTable@Gu@physx@@YAPEAY0L@Q6A_NAEBVPxGeometry@2@AEBV?$PxTransformT@M@2@01PEAUTriggerCache@12@PEAUPxQueryThreadContext@2@@ZXZ 000000018002a580 f   GuOverlapTests.obj
 0001:0002b140       ?raycast_box@@YAIAEBVPxGeometry@physx@@AEBV?$PxTransformT@M@2@AEBV?$PxVec3T@M@2@2MV?$PxFlags@W4Enum@PxHitFlag@physx@@G@2@IPEIAUPxGeomRaycastHit@2@IPEAUPxQueryThreadContext@2@@Z 000000018002c140 f   GuRaycastTests.obj
 0001:0002b770       ?raycast_sphere@@YAIAEBVPxGeometry@physx@@AEBV?$PxTransformT@M@2@AEBV?$PxVec3T@M@2@2MV?$PxFlags@W4Enum@PxHitFlag@physx@@G@2@IPEIAUPxGeomRaycastHit@2@IPEAUPxQueryThreadContext@2@@Z 000000018002c770 f   GuRaycastTests.obj
 0001:0002b900       ?raycast_capsule@@YAIAEBVPxGeometry@physx@@AEBV?$PxTransformT@M@2@AEBV?$PxVec3T@M@2@2MV?$PxFlags@W4Enum@PxHitFlag@physx@@G@2@IPEIAUPxGeomRaycastHit@2@IPEAUPxQueryThreadContext@2@@Z 000000018002c900 f   GuRaycastTests.obj
 0001:0002be60       ?raycast_plane@@YAIAEBVPxGeometry@physx@@AEBV?$PxTransformT@M@2@AEBV?$PxVec3T@M@2@2MV?$PxFlags@W4Enum@PxHitFlag@physx@@G@2@IPEIAUPxGeomRaycastHit@2@IPEAUPxQueryThreadContext@2@@Z 000000018002ce60 f   GuRaycastTests.obj
 0001:0002bfd0       ?raycast_convexMesh@@YAIAEBVPxGeometry@physx@@AEBV?$PxTransformT@M@2@AEBV?$PxVec3T@M@2@2MV?$PxFlags@W4Enum@PxHitFlag@physx@@G@2@IPEIAUPxGeomRaycastHit@2@IPEAUPxQueryThreadContext@2@@Z 000000018002cfd0 f   GuRaycastTests.obj
 0001:0002cad0       ?getMidphaseID@RTreeTriangleMesh@Gu@physx@@UEBA?AW4Enum@PxMeshMidPhase@3@XZ 000000018002dad0 f   GuTriangleMeshRTree.obj
 0001:0002cad0       ?getMidphaseID@RTreeTriangleMeshBuilder@physx@@UEBA?AW4Enum@PxMeshMidPhase@2@XZ 000000018002dad0 f   GuCookingTriangleMesh.obj
 0001:0002cad0       ?getTetrahedraRemap@TetrahedronMesh@Gu@physx@@UEBAPEBIXZ 000000018002dad0 f   GuTetrahedronMesh.obj
 0001:0002cad0       ?raycast_hairsystem@@YAIAEBVPxGeometry@physx@@AEBV?$PxTransformT@M@2@AEBV?$PxVec3T@M@2@2MV?$PxFlags@W4Enum@PxHitFlag@physx@@G@2@IPEIAUPxGeomRaycastHit@2@IPEAUPxQueryThreadContext@2@@Z 000000018002dad0 f   GuRaycastTests.obj
 0001:0002cad0       ?raycast_particlesystem@@YAIAEBVPxGeometry@physx@@AEBV?$PxTransformT@M@2@AEBV?$PxVec3T@M@2@2MV?$PxFlags@W4Enum@PxHitFlag@physx@@G@2@IPEIAUPxGeomRaycastHit@2@IPEAUPxQueryThreadContext@2@@Z 000000018002dad0 f   GuRaycastTests.obj
 0001:0002cad0       ?raycast_softbody@@YAIAEBVPxGeometry@physx@@AEBV?$PxTransformT@M@2@AEBV?$PxVec3T@M@2@2MV?$PxFlags@W4Enum@PxHitFlag@physx@@G@2@IPEIAUPxGeomRaycastHit@2@IPEAUPxQueryThreadContext@2@@Z 000000018002dad0 f   GuRaycastTests.obj
 0001:0002cae0       ?raycast_triangleMesh@@YAIAEBVPxGeometry@physx@@AEBV?$PxTransformT@M@2@AEBV?$PxVec3T@M@2@2MV?$PxFlags@W4Enum@PxHitFlag@physx@@G@2@IPEIAUPxGeomRaycastHit@2@IPEAUPxQueryThreadContext@2@@Z 000000018002dae0 f   GuRaycastTests.obj
 0001:0002cb70       ?raycast_heightField@@YAIAEBVPxGeometry@physx@@AEBV?$PxTransformT@M@2@AEBV?$PxVec3T@M@2@2MV?$PxFlags@W4Enum@PxHitFlag@physx@@G@2@IPEIAUPxGeomRaycastHit@2@IPEAUPxQueryThreadContext@2@@Z 000000018002db70 f   GuRaycastTests.obj
 0001:0002e5c0       ??Dphysx@@YA?AV?$PxMat34T@M@0@AEBVPxMeshScale@0@AEBV?$PxTransformT@M@0@@Z 000000018002f5c0 f i GuRaycastTests.obj
 0001:0002f0b0       ?getRaycastFuncTable@Gu@physx@@YAAEAY0L@Q6AIAEBVPxGeometry@2@AEBV?$PxTransformT@M@2@AEBV?$PxVec3T@M@2@2MV?$PxFlags@W4Enum@PxHitFlag@physx@@G@2@IPEIAUPxGeomRaycastHit@2@IPEAUPxQueryThreadContext@2@@ZXZ 00000001800300b0 f   GuRaycastTests.obj
 0001:0002f0c0       ??Dphysx@@YA?AV?$PxMat34T@M@0@AEBV?$PxTransformT@M@0@AEBVPxMeshScale@0@@Z 00000001800300c0 f i GuSweepMTD.obj
 0001:0002f610       ??_E?$MeshHitCallback@UPxGeomRaycastHit@physx@@@Gu@physx@@UEAAPEAXI@Z 0000000180030610 f i GuSweepMTD.obj
 0001:0002f610       ??_G?$MeshHitCallback@UPxGeomRaycastHit@physx@@@Gu@physx@@UEAAPEAXI@Z 0000000180030610 f i GuSweepMTD.obj
 0001:0002f640       ??_EMeshMTDGenerationCallback@@UEAAPEAXI@Z 0000000180030640 f i GuSweepMTD.obj
 0001:0002f640       ??_GMeshMTDGenerationCallback@@UEAAPEAXI@Z 0000000180030640 f i GuSweepMTD.obj
 0001:0002f670       ??_EMidPhaseQueryLocalReport@@UEAAPEAXI@Z 0000000180030670 f i GuSweepMTD.obj
 0001:0002f670       ??_ERTreeCookerRemap@@UEAAPEAXI@Z 0000000180030670 f i GuCookingTriangleMesh.obj
 0001:0002f670       ??_GMidPhaseQueryLocalReport@@UEAAPEAXI@Z 0000000180030670 f i GuSweepMTD.obj
 0001:0002f670       ??_GRTreeCookerRemap@@UEAAPEAXI@Z 0000000180030670 f i GuCookingTriangleMesh.obj
 0001:0002f6a0       ?computeBox_HeightFieldMTD@Gu@physx@@YA_NAEBVPxHeightFieldGeometry@2@AEBV?$PxTransformT@M@2@AEBVBox@12@1M_NAEAUPxGeomSweepHit@2@@Z 00000001800306a0 f   GuSweepMTD.obj
 0001:00030470       ?computeBox_TriangleMeshMTD@Gu@physx@@YA_NAEBVPxTriangleMeshGeometry@2@AEBV?$PxTransformT@M@2@AEBVBox@12@1M_NAEAUPxGeomSweepHit@2@@Z 0000000180031470 f   GuSweepMTD.obj
 0001:000314e0       ?computeCapsule_CapsuleMTD@Gu@physx@@YA_NAEBVCapsule@12@0AEAUPxGeomSweepHit@2@@Z 00000001800324e0 f   GuSweepMTD.obj
 0001:00031720       ?computeCapsule_HeightFieldMTD@Gu@physx@@YA_NAEBVPxHeightFieldGeometry@2@AEBV?$PxTransformT@M@2@AEAVCapsuleV@12@M_NAEAUPxGeomSweepHit@2@@Z 0000000180032720 f   GuSweepMTD.obj
 0001:00031ef0       ?computeCapsule_TriangleMeshMTD@Gu@physx@@YA_NAEBVPxTriangleMeshGeometry@2@AEBV?$PxTransformT@M@2@AEAVCapsuleV@12@M_NAEAUPxGeomSweepHit@2@@Z 0000000180032ef0 f   GuSweepMTD.obj
 0001:000327a0       ?computeConvex_HeightFieldMTD@Gu@physx@@YA_NAEBVPxHeightFieldGeometry@2@AEBV?$PxTransformT@M@2@AEBVPxConvexMeshGeometry@2@1M_NAEAUPxGeomSweepHit@2@@Z 00000001800337a0 f   GuSweepMTD.obj
 0001:00033a70       ?computeConvex_TriangleMeshMTD@Gu@physx@@YA_NAEBVPxTriangleMeshGeometry@2@AEBV?$PxTransformT@M@2@AEBVPxConvexMeshGeometry@2@1M_NAEAUPxGeomSweepHit@2@@Z 0000000180034a70 f   GuSweepMTD.obj
 0001:00035090       ?computePlane_BoxMTD@Gu@physx@@YA_NAEBVPxPlane@2@AEBVBox@12@AEAUPxGeomSweepHit@2@@Z 0000000180036090 f   GuSweepMTD.obj
 0001:00035330       ?computePlane_CapsuleMTD@Gu@physx@@YA_NAEBVPxPlane@2@AEBVCapsule@12@AEAUPxGeomSweepHit@2@@Z 0000000180036330 f   GuSweepMTD.obj
 0001:00035440       ?computePlane_ConvexMTD@Gu@physx@@YA_NAEBVPxPlane@2@AEBVPxConvexMeshGeometry@2@AEBV?$PxTransformT@M@2@AEAUPxGeomSweepHit@2@@Z 0000000180036440 f   GuSweepMTD.obj
 0001:00036000       ?computeSphere_CapsuleMTD@Gu@physx@@YA_NAEBVSphere@12@AEBVCapsule@12@AEAUPxGeomSweepHit@2@@Z 0000000180037000 f   GuSweepMTD.obj
 0001:000361b0       ?computeSphere_SphereMTD@Gu@physx@@YA_NAEBVSphere@12@0AEAUPxGeomSweepHit@2@@Z 00000001800371b0 f   GuSweepMTD.obj
 0001:000362a0       ?getInverse@?$PxMat33T@M@physx@@QEBA?BV12@XZ 00000001800372a0 f i GuSweepMTD.obj
 0001:000364f0       ?growAndPushBack@?$PxArray@IV?$PxReflectionAllocator@I@physx@@@physx@@IEAAAEAIAEBI@Z 00000001800374f0 f i GuSweepMTD.obj
 0001:00036610       ?init@FastVertex2ShapeScaling@Cm@physx@@QEAAXAEBV?$PxVec3T@M@3@AEBV?$PxQuatT@M@3@@Z 0000000180037610 f i GuSweepMTD.obj
 0001:00036f20       ?processHit@MeshMTDGenerationCallback@@UEAA_NAEBUPxGeomRaycastHit@physx@@AEBV?$PxVec3T@M@3@11AEAMPEBI@Z 0000000180037f20 f i GuSweepMTD.obj
 0001:00036f70       ?recreate@?$PxArray@IV?$PxReflectionAllocator@I@physx@@@physx@@IEAAXI@Z 0000000180037f70 f i GuSweepMTD.obj
 0001:00037060       ?reportTouchedTris@MidPhaseQueryLocalReport@@UEAA_NIPEBI@Z 0000000180038060 f i GuSweepMTD.obj
 0001:000370d0       ??$gjkPenetration@U?$LocalConvex@VCapsuleV@Gu@physx@@@Gu@physx@@U?$LocalConvex@VConvexHullV@Gu@physx@@@23@@Gu@physx@@YA?AW4GjkStatus@01@AEBU?$LocalConvex@VCapsuleV@Gu@physx@@@01@AEBU?$LocalConvex@VConvexHullV@Gu@physx@@@01@AEBT__m128@@2_NPEIAE4AEAEAEAUGjkOutput@01@@Z 00000001800380d0 f i GuSweepSharedTests.obj
 0001:00037140       ??$gjkPenetration@U?$LocalConvex@VCapsuleV@Gu@physx@@@Gu@physx@@U?$LocalConvex@VConvexHullV@Gu@physx@@@23@@Gu@physx@@YA?AW4GjkStatus@01@AEBU?$LocalConvex@VCapsuleV@Gu@physx@@@01@AEBU?$LocalConvex@VConvexHullV@Gu@physx@@@01@AEBT__m128@@2_NPEIAE4PEIAT5@5AEAEAEAUGjkOutput@01@@Z 0000000180038140 f i GuSweepSharedTests.obj
 0001:00038670       ??$gjkPenetration@U?$RelativeConvex@VBoxV@Gu@physx@@@Gu@physx@@U?$LocalConvex@VConvexHullV@Gu@physx@@@23@@Gu@physx@@YA?AW4GjkStatus@01@AEBU?$RelativeConvex@VBoxV@Gu@physx@@@01@AEBU?$LocalConvex@VConvexHullV@Gu@physx@@@01@AEBT__m128@@2_NPEIAE4AEAEAEAUGjkOutput@01@@Z 0000000180039670 f i GuSweepSharedTests.obj
 0001:000386e0       ??$gjkPenetration@U?$RelativeConvex@VBoxV@Gu@physx@@@Gu@physx@@U?$LocalConvex@VConvexHullV@Gu@physx@@@23@@Gu@physx@@YA?AW4GjkStatus@01@AEBU?$RelativeConvex@VBoxV@Gu@physx@@@01@AEBU?$LocalConvex@VConvexHullV@Gu@physx@@@01@AEBT__m128@@2_NPEIAE4PEIAT5@5AEAEAEAUGjkOutput@01@@Z 00000001800396e0 f i GuSweepSharedTests.obj
 0001:00039c80       ??$gjkPenetration@U?$RelativeConvex@VConvexHullV@Gu@physx@@@Gu@physx@@U?$LocalConvex@VConvexHullV@Gu@physx@@@23@@Gu@physx@@YA?AW4GjkStatus@01@AEBU?$RelativeConvex@VConvexHullV@Gu@physx@@@01@AEBU?$LocalConvex@VConvexHullV@Gu@physx@@@01@AEBT__m128@@2_NPEIAE4AEAEAEAUGjkOutput@01@@Z 000000018003ac80 f i GuSweepSharedTests.obj
 0001:00039cf0       ??$gjkPenetration@U?$RelativeConvex@VConvexHullV@Gu@physx@@@Gu@physx@@U?$LocalConvex@VConvexHullV@Gu@physx@@@23@@Gu@physx@@YA?AW4GjkStatus@01@AEBU?$RelativeConvex@VConvexHullV@Gu@physx@@@01@AEBU?$LocalConvex@VConvexHullV@Gu@physx@@@01@AEBT__m128@@2_NPEIAE4PEIAT5@5AEAEAEAUGjkOutput@01@@Z 000000018003acf0 f i GuSweepSharedTests.obj
 0001:0003b350       ??$gjkRaycast@U?$LocalConvex@VCapsuleV@Gu@physx@@@Gu@physx@@U?$LocalConvex@VConvexHullV@Gu@physx@@@23@@Gu@physx@@YA_NAEBU?$LocalConvex@VCapsuleV@Gu@physx@@@01@AEBU?$LocalConvex@VConvexHullV@Gu@physx@@@01@AEBT__m128@@222AEAT4@33M@Z 000000018003c350 f i GuSweepSharedTests.obj
 0001:0003c0b0       ??$gjkRaycast@U?$RelativeConvex@VBoxV@Gu@physx@@@Gu@physx@@U?$LocalConvex@VConvexHullV@Gu@physx@@@23@@Gu@physx@@YA_NAEBU?$RelativeConvex@VBoxV@Gu@physx@@@01@AEBU?$LocalConvex@VConvexHullV@Gu@physx@@@01@AEBT__m128@@222AEAT4@33M@Z 000000018003d0b0 f i GuSweepSharedTests.obj
 0001:0003cea0       ??$gjkRaycast@U?$RelativeConvex@VConvexHullV@Gu@physx@@@Gu@physx@@U?$LocalConvex@VConvexHullV@Gu@physx@@@23@@Gu@physx@@YA_NAEBU?$RelativeConvex@VConvexHullV@Gu@physx@@@01@AEBU?$LocalConvex@VConvexHullV@Gu@physx@@@01@AEBT__m128@@222AEAT4@33M@Z 000000018003dea0 f i GuSweepSharedTests.obj
 0001:0003dc70       ??$gjkRaycastPenetration@U?$RelativeConvex@VConvexHullV@Gu@physx@@@Gu@physx@@U?$LocalConvex@VConvexHullV@Gu@physx@@@23@@Gu@physx@@YA_NAEBU?$RelativeConvex@VConvexHullV@Gu@physx@@@01@AEBU?$LocalConvex@VConvexHullV@Gu@physx@@@01@AEBT__m128@@222AEAT4@33M_N@Z 000000018003ec70 f i GuSweepSharedTests.obj
 0001:0003e840       ?sweepBox_ConvexGeom@@YA_NAEBVPxGeometry@physx@@AEBV?$PxTransformT@M@2@AEBVPxBoxGeometry@2@1AEBVBox@Gu@2@AEBV?$PxVec3T@M@2@MAEAUPxGeomSweepHit@2@V?$PxFlags@W4Enum@PxHitFlag@physx@@G@2@MPEAUPxQueryThreadContext@2@@Z 000000018003f840 f   GuSweepSharedTests.obj
 0001:0003f660       ?sweepBox_PlaneGeom@@YA_NAEBVPxGeometry@physx@@AEBV?$PxTransformT@M@2@AEBVPxBoxGeometry@2@1AEBVBox@Gu@2@AEBV?$PxVec3T@M@2@MAEAUPxGeomSweepHit@2@V?$PxFlags@W4Enum@PxHitFlag@physx@@G@2@MPEAUPxQueryThreadContext@2@@Z 0000000180040660 f   GuSweepSharedTests.obj
 0001:0003fa30       ?sweepCapsuleTriangles@Gu@physx@@YA_NIPEBVPxTriangle@2@_NAEBVPxCapsuleGeometry@2@AEBV?$PxTransformT@M@2@AEBV?$PxVec3T@M@2@MAEAUPxGeomSweepHit@2@PEBIMV?$PxFlags@W4Enum@PxHitFlag@physx@@G@2@@Z 0000000180040a30 f   GuSweepSharedTests.obj
 0001:0003fc20       ?sweepCapsule_CapsuleGeom@@YA_NAEBVPxGeometry@physx@@AEBV?$PxTransformT@M@2@AEBVPxCapsuleGeometry@2@1AEBVCapsule@Gu@2@AEBV?$PxVec3T@M@2@MAEAUPxGeomSweepHit@2@V?$PxFlags@W4Enum@PxHitFlag@physx@@G@2@MPEAUPxQueryThreadContext@2@@Z 0000000180040c20 f   GuSweepSharedTests.obj
 0001:0003fe00       ?sweepCapsule_ConvexGeom@@YA_NAEBVPxGeometry@physx@@AEBV?$PxTransformT@M@2@AEBVPxCapsuleGeometry@2@1AEBVCapsule@Gu@2@AEBV?$PxVec3T@M@2@MAEAUPxGeomSweepHit@2@V?$PxFlags@W4Enum@PxHitFlag@physx@@G@2@MPEAUPxQueryThreadContext@2@@Z 0000000180040e00 f   GuSweepSharedTests.obj
 0001:00040b40       ?sweepCapsule_PlaneGeom@@YA_NAEBVPxGeometry@physx@@AEBV?$PxTransformT@M@2@AEBVPxCapsuleGeometry@2@1AEBVCapsule@Gu@2@AEBV?$PxVec3T@M@2@MAEAUPxGeomSweepHit@2@V?$PxFlags@W4Enum@PxHitFlag@physx@@G@2@MPEAUPxQueryThreadContext@2@@Z 0000000180041b40 f   GuSweepSharedTests.obj
 0001:00040e20       ?sweepCapsule_SphereGeom@@YA_NAEBVPxGeometry@physx@@AEBV?$PxTransformT@M@2@AEBVPxCapsuleGeometry@2@1AEBVCapsule@Gu@2@AEBV?$PxVec3T@M@2@MAEAUPxGeomSweepHit@2@V?$PxFlags@W4Enum@PxHitFlag@physx@@G@2@MPEAUPxQueryThreadContext@2@@Z 0000000180041e20 f   GuSweepSharedTests.obj
 0001:00040fc0       ?sweepConvex_BoxGeom@@YA_NAEBVPxGeometry@physx@@AEBV?$PxTransformT@M@2@AEBVPxConvexMeshGeometry@2@1AEBV?$PxVec3T@M@2@MAEAUPxGeomSweepHit@2@V?$PxFlags@W4Enum@PxHitFlag@physx@@G@2@MPEAUPxQueryThreadContext@2@@Z 0000000180041fc0 f   GuSweepSharedTests.obj
 0001:000411e0       ?sweepConvex_CapsuleGeom@@YA_NAEBVPxGeometry@physx@@AEBV?$PxTransformT@M@2@AEBVPxConvexMeshGeometry@2@1AEBV?$PxVec3T@M@2@MAEAUPxGeomSweepHit@2@V?$PxFlags@W4Enum@PxHitFlag@physx@@G@2@MPEAUPxQueryThreadContext@2@@Z 00000001800421e0 f   GuSweepSharedTests.obj
 0001:00041410       ?sweepConvex_ConvexGeom@@YA_NAEBVPxGeometry@physx@@AEBV?$PxTransformT@M@2@AEBVPxConvexMeshGeometry@2@1AEBV?$PxVec3T@M@2@MAEAUPxGeomSweepHit@2@V?$PxFlags@W4Enum@PxHitFlag@physx@@G@2@MPEAUPxQueryThreadContext@2@@Z 0000000180042410 f   GuSweepSharedTests.obj
 0001:000423c0       ?sweepConvex_PlaneGeom@@YA_NAEBVPxGeometry@physx@@AEBV?$PxTransformT@M@2@AEBVPxConvexMeshGeometry@2@1AEBV?$PxVec3T@M@2@MAEAUPxGeomSweepHit@2@V?$PxFlags@W4Enum@PxHitFlag@physx@@G@2@MPEAUPxQueryThreadContext@2@@Z 00000001800433c0 f   GuSweepSharedTests.obj
 0001:00042800       ?sweepConvex_SphereGeom@@YA_NAEBVPxGeometry@physx@@AEBV?$PxTransformT@M@2@AEBVPxConvexMeshGeometry@2@1AEBV?$PxVec3T@M@2@MAEAUPxGeomSweepHit@2@V?$PxFlags@W4Enum@PxHitFlag@physx@@G@2@MPEAUPxQueryThreadContext@2@@Z 0000000180043800 f   GuSweepSharedTests.obj
 0001:000433d0       ?sweepCapsule_BoxGeom@@YA_NAEBVPxGeometry@physx@@AEBV?$PxTransformT@M@2@AEBVPxCapsuleGeometry@2@1AEBVCapsule@Gu@2@AEBV?$PxVec3T@M@2@MAEAUPxGeomSweepHit@2@V?$PxFlags@W4Enum@PxHitFlag@physx@@G@2@MPEAUPxQueryThreadContext@2@@Z 00000001800443d0 f   GuSweepTests.obj
 0001:00043c90       ?sweepBox_SphereGeom@@YA_NAEBVPxGeometry@physx@@AEBV?$PxTransformT@M@2@AEBVPxBoxGeometry@2@1AEBVBox@Gu@2@AEBV?$PxVec3T@M@2@MAEAUPxGeomSweepHit@2@V?$PxFlags@W4Enum@PxHitFlag@physx@@G@2@MPEAUPxQueryThreadContext@2@@Z 0000000180044c90 f   GuSweepTests.obj
 0001:00044370       ?sweepBox_CapsuleGeom@@YA_NAEBVPxGeometry@physx@@AEBV?$PxTransformT@M@2@AEBVPxBoxGeometry@2@1AEBVBox@Gu@2@AEBV?$PxVec3T@M@2@MAEAUPxGeomSweepHit@2@V?$PxFlags@W4Enum@PxHitFlag@physx@@G@2@MPEAUPxQueryThreadContext@2@@Z 0000000180045370 f   GuSweepTests.obj
 0001:00044c40       ?sweepBox_BoxGeom@@YA_NAEBVPxGeometry@physx@@AEBV?$PxTransformT@M@2@AEBVPxBoxGeometry@2@1AEBVBox@Gu@2@AEBV?$PxVec3T@M@2@MAEAUPxGeomSweepHit@2@V?$PxFlags@W4Enum@PxHitFlag@physx@@G@2@MPEAUPxQueryThreadContext@2@@Z 0000000180045c40 f   GuSweepTests.obj
 0001:00045640       ??$gjkPenetration@U?$LocalConvex@VCapsuleV@Gu@physx@@@Gu@physx@@U?$LocalConvex@VBoxV@Gu@physx@@@23@@Gu@physx@@YA?AW4GjkStatus@01@AEBU?$LocalConvex@VCapsuleV@Gu@physx@@@01@AEBU?$LocalConvex@VBoxV@Gu@physx@@@01@AEBT__m128@@2_NPEIAE4AEAEAEAUGjkOutput@01@@Z 0000000180046640 f i GuSweepTests.obj
 0001:000456b0       ??$gjkPenetration@U?$LocalConvex@VCapsuleV@Gu@physx@@@Gu@physx@@U?$LocalConvex@VBoxV@Gu@physx@@@23@@Gu@physx@@YA?AW4GjkStatus@01@AEBU?$LocalConvex@VCapsuleV@Gu@physx@@@01@AEBU?$LocalConvex@VBoxV@Gu@physx@@@01@AEBT__m128@@2_NPEIAE4PEIAT5@5AEAEAEAUGjkOutput@01@@Z 00000001800466b0 f i GuSweepTests.obj
 0001:00046b40       ??$gjkPenetration@U?$RelativeConvex@VBoxV@Gu@physx@@@Gu@physx@@U?$LocalConvex@VBoxV@Gu@physx@@@23@@Gu@physx@@YA?AW4GjkStatus@01@AEBU?$RelativeConvex@VBoxV@Gu@physx@@@01@AEBU?$LocalConvex@VBoxV@Gu@physx@@@01@AEBT__m128@@2_NPEIAE4AEAEAEAUGjkOutput@01@@Z 0000000180047b40 f i GuSweepTests.obj
 0001:00046bb0       ??$gjkPenetration@U?$RelativeConvex@VBoxV@Gu@physx@@@Gu@physx@@U?$LocalConvex@VBoxV@Gu@physx@@@23@@Gu@physx@@YA?AW4GjkStatus@01@AEBU?$RelativeConvex@VBoxV@Gu@physx@@@01@AEBU?$LocalConvex@VBoxV@Gu@physx@@@01@AEBT__m128@@2_NPEIAE4PEIAT5@5AEAEAEAUGjkOutput@01@@Z 0000000180047bb0 f i GuSweepTests.obj
 0001:00048080       ??$gjkRaycast@U?$LocalConvex@VCapsuleV@Gu@physx@@@Gu@physx@@U?$LocalConvex@VBoxV@Gu@physx@@@23@@Gu@physx@@YA_NAEBU?$LocalConvex@VCapsuleV@Gu@physx@@@01@AEBU?$LocalConvex@VBoxV@Gu@physx@@@01@AEBT__m128@@222AEAT4@33M@Z 0000000180049080 f i GuSweepTests.obj
 0001:00048c60       ??$gjkRaycast@U?$LocalConvex@VTriangleV@Gu@physx@@@Gu@physx@@U?$LocalConvex@VBoxV@Gu@physx@@@23@@Gu@physx@@YA_NAEBU?$LocalConvex@VTriangleV@Gu@physx@@@01@AEBU?$LocalConvex@VBoxV@Gu@physx@@@01@AEBT__m128@@222AEAT4@33M@Z 0000000180049c60 f i GuSweepTests.obj
 0001:000498b0       ??$gjkRaycast@U?$RelativeConvex@VBoxV@Gu@physx@@@Gu@physx@@U?$LocalConvex@VBoxV@Gu@physx@@@23@@Gu@physx@@YA_NAEBU?$RelativeConvex@VBoxV@Gu@physx@@@01@AEBU?$LocalConvex@VBoxV@Gu@physx@@@01@AEBT__m128@@222AEAT4@33M@Z 000000018004a8b0 f i GuSweepTests.obj
 0001:0004a500       ?getSweepFuncTable@Gu@physx@@YAAEBUGeomSweepFuncs@12@XZ 000000018004b500 f   GuSweepTests.obj
 0001:0004a510       ?getSweepMargin@?$LocalConvex@VTetrahedronV@Gu@physx@@@Gu@physx@@UEBA?AT__m128@@XZ 000000018004b510 f i GuCookingTetrahedronMesh.obj
 0001:0004a510       ?getSweepMargin@?$LocalConvex@VTriangleV@Gu@physx@@@Gu@physx@@UEBA?AT__m128@@XZ 000000018004b510 f i GuSweepTests.obj
 0001:0004a510       ?getSweepMargin@?$RelativeConvex@VTriangleV@Gu@physx@@@Gu@physx@@UEBA?AT__m128@@XZ 000000018004b510 f i GuCCDSweepPrimitives.obj
 0001:0004a520       ?support@?$LocalConvex@VBoxV@Gu@physx@@@Gu@physx@@UEBA?AT__m128@@AEBT4@@Z 000000018004b520 f i GuSweepTests.obj
 0001:0004a550       ?support@?$LocalConvex@VBoxV@Gu@physx@@@Gu@physx@@UEBA?AT__m128@@AEBT4@AEAH@Z 000000018004b550 f i GuSweepTests.obj
 0001:0004a590       ?support@?$LocalConvex@VTriangleV@Gu@physx@@@Gu@physx@@UEBA?AT__m128@@AEBT4@@Z 000000018004b590 f i GuSweepTests.obj
 0001:0004a620       ?support@?$LocalConvex@VTriangleV@Gu@physx@@@Gu@physx@@UEBA?AT__m128@@AEBT4@AEAH@Z 000000018004b620 f i GuSweepTests.obj
 0001:0004a700       ?supportPoint@?$LocalConvex@VBoxV@Gu@physx@@@Gu@physx@@UEBA?AT__m128@@H@Z 000000018004b700 f i GuSweepTests.obj
 0001:0004a740       ?supportPoint@?$LocalConvex@VTetrahedronV@Gu@physx@@@Gu@physx@@UEBA?AT__m128@@H@Z 000000018004b740 f i GuCookingTetrahedronMesh.obj
 0001:0004a740       ?supportPoint@?$LocalConvex@VTriangleV@Gu@physx@@@Gu@physx@@UEBA?AT__m128@@H@Z 000000018004b740 f i GuSweepTests.obj
 0001:0004a760       ?sweepBoxTriangles@Gu@physx@@YA_NIPEBVPxTriangle@2@_NAEBVPxBoxGeometry@2@AEBV?$PxTransformT@M@2@AEBV?$PxVec3T@M@2@MAEAUPxGeomSweepHit@2@PEBIMV?$PxFlags@W4Enum@PxHitFlag@physx@@G@2@@Z 000000018004b760 f   GuSweepTests.obj
 0001:0004b1e0       ??$PxSmallSort@H$$CBU?$Comparer@V?$PxVec3T@M@physx@@@MeshAnalyzer@Gu@physx@@@physx@@YAXPEAHHHAEBU?$Comparer@V?$PxVec3T@M@physx@@@MeshAnalyzer@Gu@0@@Z 000000018004c1e0 f i GuSDF.obj
 0001:0004b400       ??$PxSort@HU?$Comparer@V?$PxVec3T@M@physx@@@MeshAnalyzer@Gu@physx@@V?$PxReflectionAllocator@H@4@@physx@@YAXPEAHIAEBU?$Comparer@V?$PxVec3T@M@physx@@@MeshAnalyzer@Gu@0@AEBV?$PxReflectionAllocator@H@0@I@Z 000000018004c400 f i GuSDF.obj
 0001:0004b880       ??$PxSort@HU?$PxLess@H@physx@@V?$PxReflectionAllocator@H@2@@physx@@YAXPEAHIAEBU?$PxLess@H@0@AEBV?$PxReflectionAllocator@H@0@I@Z 000000018004c880 f i GuSDF.obj
 0001:0004bcd0       ??$copy@V?$PxReflectionAllocator@I@physx@@@?$PxArray@IV?$PxReflectionAllocator@I@physx@@@physx@@IEAAXAEBV01@@Z 000000018004ccd0 f i GuSDF.obj
 0001:0004bd40       ??$copy@V?$PxReflectionAllocator@M@physx@@@?$PxArray@MV?$PxReflectionAllocator@M@physx@@@physx@@IEAAXAEBV01@@Z 000000018004cd40 f i GuSDF.obj
 0001:0004bda0       ??$copy@V?$PxReflectionAllocator@V?$PxVec3T@M@physx@@@physx@@@?$PxArray@V?$PxVec3T@M@physx@@V?$PxReflectionAllocator@V?$PxVec3T@M@physx@@@2@@physx@@IEAAXAEBV01@@Z 000000018004cda0 f i GuSDF.obj
 0001:0004be00       ??$mapDuplicatePoints@V?$PxVec3T@M@physx@@M@MeshAnalyzer@Gu@physx@@SAXPEBV?$PxVec3T@M@2@IAEAV?$PxArray@HV?$PxReflectionAllocator@H@physx@@@2@M@Z 000000018004ce00 f i GuSDF.obj
 0001:0004c180       ??$splitRanges@V?$PxVec3T@M@physx@@M@MeshAnalyzer@Gu@physx@@CAXAEAV?$PxArray@URange@MeshAnalyzer@Gu@physx@@V?$PxReflectionAllocator@URange@MeshAnalyzer@Gu@physx@@@4@@2@AEBV?$PxArray@HV?$PxReflectionAllocator@H@physx@@@2@PEBV?$PxVec3T@M@2@HM@Z 000000018004d180 f i GuSDF.obj
 0001:0004c410       ??$traverseBVH@VClosestDistanceToTrimeshTraversalController@Gu@physx@@@Gu@physx@@YAXPEBUBVHNode@01@AEAVClosestDistanceToTrimeshTraversalController@01@H@Z 000000018004d410 f i GuSDF.obj
 0001:0004c810       ??$traverseBVH@VLineSegmentTrimeshIntersectionTraversalController@Gu@physx@@@Gu@physx@@YAXPEBUBVHNode@01@AEAVLineSegmentTrimeshIntersectionTraversalController@01@H@Z 000000018004d810 f i GuSDF.obj
 0001:0004cd10       ??0CellToPoint@Gu@physx@@QEAA@I@Z 000000018004dd10 f i GuSDF.obj
 0001:0004ce10       ??0IsosurfaceThreadData@Gu@physx@@QEAA@AEBU012@@Z 000000018004de10 f i GuSDF.obj
 0001:0004ce90       ??1CellToPoint@Gu@physx@@QEAA@XZ 000000018004de90 f i GuSDF.obj
 0001:0004cf70       ??1IsosurfaceThreadData@Gu@physx@@QEAA@XZ 000000018004df70 f i GuSDF.obj
 0001:0004d020       ??1SDF@Gu@physx@@QEAA@XZ   000000018004e020 f   GuSDF.obj
 0001:0004d0c0       ??_E?$PxThreadT@V?$PxReflectionAllocator@VPxThreadImpl@physx@@@physx@@@physx@@UEAAPEAXI@Z 000000018004e0c0 f i GuSDF.obj
 0001:0004d0c0       ??_G?$PxThreadT@V?$PxReflectionAllocator@VPxThreadImpl@physx@@@physx@@@physx@@UEAAPEAXI@Z 000000018004e0c0 f i GuSDF.obj
 0001:0004d170       ??_EPxRunnable@physx@@UEAAPEAXI@Z 000000018004e170 f i GuSDF.obj
 0001:0004d170       ??_GPxRunnable@physx@@UEAAPEAXI@Z 000000018004e170 f i GuSDF.obj
 0001:0004d1a0       ?PxCreatePointOntoTriangleMeshProjector@Gu@physx@@YAPEAVPxPointOntoTriangleMeshProjector@12@PEBV?$PxVec3T@M@2@PEBII@Z 000000018004e1a0 f   GuSDF.obj
 0001:0004d2a0       ?SDFUsingWindingNumbers@Gu@physx@@YAXAEAV?$PxArray@UBVHNode@Gu@physx@@V?$PxReflectionAllocator@UBVHNode@Gu@physx@@@3@@2@AEAV?$PxHashMap@IU?$ClusterApproximationT@MV?$PxVec3T@M@physx@@@Gu@physx@@U?$PxHash@I@3@VPxAllocator@3@@2@PEBV?$PxVec3T@M@2@PEBIIIIIPEAMAEAUGridQueryPointSampler@12@PEAV52@I_N7@Z 000000018004e2a0 f   GuSDF.obj
 0001:0004d7c0       ?SDFUsingWindingNumbers@Gu@physx@@YAXPEBV?$PxVec3T@M@2@PEBIIIIIPEAMV32@3PEAV32@_NIPEAVPxSDFBuilder@2@@Z 000000018004e7c0 f   GuSDF.obj
 0001:0004dca0       ?SDFUsingWindingNumbersSparse@Gu@physx@@YAXPEBV?$PxVec3T@M@2@PEBIIIIIAEBV32@2MIAEAV?$PxArray@MV?$PxReflectionAllocator@M@physx@@@2@AEAV?$PxArray@IV?$PxReflectionAllocator@I@physx@@@2@33AEAM5IPEAVPxSDFBuilder@2@@Z 000000018004eca0 f   GuSDF.obj
 0001:0004e730       ?allocate@?$PxArray@HV?$PxInlineAllocator@$0EAA@V?$PxReflectionAllocator@H@physx@@@physx@@@physx@@IEAAPEAHIPEAI@Z 000000018004f730 f i GuSDF.obj
 0001:0004e7f0       ?allocate@?$PxArray@IV?$PxReflectionAllocator@I@physx@@@physx@@IEAAPEAIIPEAI@Z 000000018004f7f0 f i GuSDF.obj
 0001:0004e880       ?allocate@?$PxArray@MV?$PxReflectionAllocator@M@physx@@@physx@@IEAAPEAMIPEAI@Z 000000018004f880 f i GuSDF.obj
 0001:0004e910       ?allocate@?$PxArray@V?$PxVec3T@M@physx@@V?$PxReflectionAllocator@V?$PxVec3T@M@physx@@@2@@physx@@IEAAPEAV?$PxVec3T@M@2@IPEAI@Z 000000018004f910 f i GuSDF.obj
 0001:0004e9b0       ?allocateSdfs@SDF@Gu@physx@@QEAAPEAMAEBV?$PxVec3T@M@3@AEBMIIIIIIIMMI@Z 000000018004f9b0 f   GuSDF.obj
 0001:0004ebc0       ?analyzeAndFixMesh@Gu@physx@@YAXPEBV?$PxVec3T@M@2@PEBIIAEAV?$PxArray@IV?$PxReflectionAllocator@I@physx@@@2@@Z 000000018004fbc0 f   GuSDF.obj
 0001:0004f420       ?buildTree@Gu@physx@@YAXPEBIIPEBV?$PxVec3T@M@2@AEAV?$PxArray@UBVHNode@Gu@physx@@V?$PxReflectionAllocator@UBVHNode@Gu@physx@@@3@@2@M@Z 0000000180050420 f   GuSDF.obj
 0001:0004f650       ?computeIsosurfaceTrianglesThreadJob@Gu@physx@@YAPEAXPEAX@Z 0000000180050650 f   GuSDF.obj
 0001:0004fa20       ?computeIsosurfaceVerticesThreadJob@Gu@physx@@YAPEAXPEAX@Z 0000000180050a20 f   GuSDF.obj
 0001:0004ff10       ?computeSDFThreadJob@Gu@physx@@YAPEAXPEAX@Z 0000000180050f10 f   GuSDF.obj
 0001:000509d0       ?convertSparseSDFTo3DTextureLayout@Gu@physx@@YAXIIIIPEAIPEBMIAEAV?$PxArray@MV?$PxReflectionAllocator@M@physx@@@2@AEAI33@Z 00000001800519d0 f   GuSDF.obj
 0001:00050d80       ?copy@?$PxArray@MV?$PxReflectionAllocator@M@physx@@@physx@@KAXPEAM0PEBM@Z 0000000180051d80 f i GuSDF.obj
 0001:00050de0       ?copy@?$PxArray@V?$PxVec3T@M@physx@@V?$PxReflectionAllocator@V?$PxVec3T@M@physx@@@2@@physx@@KAXPEAV?$PxVec3T@M@2@0PEBV32@@Z 0000000180051de0 f i GuSDF.obj
 0001:00050eb0       ?create@?$PxHashBase@V?$PxPair@$$CBUSortedTriangle@Gu@physx@@H@physx@@USortedTriangle@Gu@2@UTriangleHash@42@UGetKey@?$PxHashMapBase@USortedTriangle@Gu@physx@@HUTriangleHash@23@VPxAllocator@3@@2@VPxAllocator@2@$00@physx@@QEAAPEAV?$PxPair@$$CBUSortedTriangle@Gu@physx@@H@2@AEBUSortedTriangle@Gu@2@AEA_N@Z 0000000180051eb0 f i GuSDF.obj
 0001:00050fe0       ?create@?$PxHashBase@V?$PxPair@$$CB_KH@physx@@_KU?$PxHash@_K@2@UGetKey@?$PxHashMapBase@_KHU?$PxHash@_K@physx@@VPxAllocator@2@@2@VPxAllocator@2@$00@physx@@QEAAPEAV?$PxPair@$$CB_KH@2@AEB_KAEA_N@Z 0000000180051fe0 f i GuMeshAnalysis.obj
 0001:00050fe0       ?create@?$PxHashBase@V?$PxPair@$$CB_KI@physx@@_KU?$PxHash@_K@2@UGetKey@?$PxHashMapBase@_KIU?$PxHash@_K@physx@@VPxAllocator@2@@2@VPxAllocator@2@$00@physx@@QEAAPEAV?$PxPair@$$CB_KI@2@AEB_KAEA_N@Z 0000000180051fe0 f i GuSDF.obj
 0001:00051170       ?createTriangles@Gu@physx@@YAXHHHMQEAMAEBUCellToPoint@12@AEBV?$PxArray@V?$PxVec3T@M@physx@@V?$PxReflectionAllocator@V?$PxVec3T@M@physx@@@2@@2@AEAV?$PxArray@IV?$PxReflectionAllocator@I@physx@@@2@@Z 0000000180052170 f i GuSDF.obj
 0001:000519e0       ?decodeDense@SDF@Gu@physx@@QEBAMHHH@Z 00000001800529e0 f   GuSDF.obj
 0001:00051a30       ?decodeSparse2@Gu@physx@@YAMAEBVSDF@12@HHH@Z 0000000180052a30 f i GuSDF.obj
 0001:00051ce0       ?decodeSparse@SDF@Gu@physx@@QEBAMHHH@Z 0000000180052ce0 f   GuSDF.obj
 0001:00051cf0       ?exportExtraData@SDF@Gu@physx@@QEAAXAEAVPxSerializationContext@3@@Z 0000000180052cf0 f   GuSDF.obj
 0001:00051d90       ?extractIsosurfaceFromSDF@Gu@physx@@YAXAEBVSDF@12@AEAV?$PxArray@V?$PxVec3T@M@physx@@V?$PxReflectionAllocator@V?$PxVec3T@M@physx@@@2@@2@AEAV?$PxArray@IV?$PxReflectionAllocator@I@physx@@@2@I@Z 0000000180052d90 f   GuSDF.obj
 0001:00052690       ?extractIsosurfaceFromSDFSerial@Gu@physx@@YAXAEBVSDF@12@AEAV?$PxArray@V?$PxVec3T@M@physx@@V?$PxReflectionAllocator@V?$PxVec3T@M@physx@@@2@@2@AEAV?$PxArray@IV?$PxReflectionAllocator@I@physx@@@2@@Z 0000000180053690 f   GuSDF.obj
 0001:00053380       ?find@CellToPoint@Gu@physx@@QEBAPEBV?$PxPair@$$CB_KI@3@HHH@Z 0000000180054380 f i GuSDF.obj
 0001:00053490       ?fixSdfForNonClosedGeometry@Gu@physx@@YAXIIIPEAMAEBV?$PxVec3T@M@2@@Z 0000000180054490 f   GuSDF.obj
 0001:00054570       ?generatePointInCell@Gu@physx@@YA_NAEBVSDF@12@HHHAEAV?$PxVec3T@M@2@QEAY111M@Z 0000000180055570 f   GuSDF.obj
 0001:000549c0       ?growAndPushBack@?$PxArray@HV?$PxInlineAllocator@$0EAA@V?$PxReflectionAllocator@H@physx@@@physx@@@physx@@IEAAAEAHAEBH@Z 00000001800559c0 f i GuSDF.obj
 0001:00054ab0       ?growAndPushBack@?$PxArray@MV?$PxReflectionAllocator@M@physx@@@physx@@IEAAAEAMAEBM@Z 0000000180055ab0 f i GuSDF.obj
 0001:00054bf0       ?growAndPushBack@?$PxArray@PEAV?$PxThreadT@V?$PxReflectionAllocator@VPxThreadImpl@physx@@@physx@@@physx@@V?$PxReflectionAllocator@PEAV?$PxThreadT@V?$PxReflectionAllocator@VPxThreadImpl@physx@@@physx@@@physx@@@2@@physx@@IEAAAEAPEAV?$PxThreadT@V?$PxReflectionAllocator@VPxThreadImpl@physx@@@physx@@@2@AEBQEAV32@@Z 0000000180055bf0 f i GuSDF.obj
 0001:00054d10       ?growAndPushBack@?$PxArray@UIsosurfaceThreadData@Gu@physx@@V?$PxReflectionAllocator@UIsosurfaceThreadData@Gu@physx@@@3@@physx@@IEAAAEAUIsosurfaceThreadData@Gu@2@AEBU342@@Z 0000000180055d10 f i GuSDF.obj
 0001:00054ee0       ?growAndPushBack@?$PxArray@UMutation@Gu@physx@@V?$PxReflectionAllocator@UMutation@Gu@physx@@@3@@physx@@IEAAAEAUMutation@Gu@2@AEBU342@@Z 0000000180055ee0 f i GuSDF.obj
 0001:00055000       ?growAndPushBack@?$PxArray@URange@Gu@physx@@V?$PxReflectionAllocator@URange@Gu@physx@@@3@@physx@@IEAAAEAURange@Gu@2@AEBU342@@Z 0000000180056000 f i GuSDF.obj
 0001:00055130       ?growAndPushBack@?$PxArray@URange@MeshAnalyzer@Gu@physx@@V?$PxReflectionAllocator@URange@MeshAnalyzer@Gu@physx@@@4@@physx@@IEAAAEAURange@MeshAnalyzer@Gu@2@AEBU3452@@Z 0000000180056130 f i GuSDF.obj
 0001:00055250       ?growAndPushBack@?$PxArray@USDFCalculationData@Gu@physx@@V?$PxReflectionAllocator@USDFCalculationData@Gu@physx@@@3@@physx@@IEAAAEAUSDFCalculationData@Gu@2@AEBU342@@Z 0000000180056250 f i GuSDF.obj
 0001:000553d0       ?growAndPushBack@?$PxArray@V?$PxVec3T@M@physx@@V?$PxReflectionAllocator@V?$PxVec3T@M@physx@@@2@@physx@@IEAAAEAV?$PxVec3T@M@2@AEBV32@@Z 00000001800563d0 f i GuSDF.obj
 0001:000554f0       ?importExtraData@SDF@Gu@physx@@QEAAXAEAVPxDeserializationContext@3@@Z 00000001800564f0 f   GuSDF.obj
 0001:00055560       ?populateSubgridCache@Gu@physx@@YAXAEBVSDF@12@AEAV?$PxArray@MV?$PxReflectionAllocator@M@physx@@@2@HHH@Z 0000000180056560 f i GuSDF.obj
 0001:00055900       ?projectPoint@PointOntoTriangleMeshProjector@Gu@physx@@UEAA?AV?$PxVec3T@M@3@AEBV43@@Z 0000000180056900 f i GuSDF.obj
 0001:00055970       ?projectPoint@PointOntoTriangleMeshProjector@Gu@physx@@UEAA?AV?$PxVec3T@M@3@AEBV43@AEAI@Z 0000000180056970 f i GuSDF.obj
 0001:000559f0       ?recreate@?$PxArray@HV?$PxReflectionAllocator@H@physx@@@physx@@IEAAXI@Z 00000001800569f0 f i GuSDF.obj
 0001:00055ae0       ?recreate@?$PxArray@MV?$PxReflectionAllocator@M@physx@@@physx@@IEAAXI@Z 0000000180056ae0 f i GuSDF.obj
 0001:00055c10       ?recreate@?$PxArray@PEAUMap@Gu@physx@@V?$PxReflectionAllocator@PEAUMap@Gu@physx@@@3@@physx@@IEAAXI@Z 0000000180056c10 f i GuSDF.obj
 0001:00055d00       ?recreate@?$PxArray@UBVHNode@Gu@physx@@V?$PxReflectionAllocator@UBVHNode@Gu@physx@@@3@@physx@@IEAAXI@Z 0000000180056d00 f i GuSDF.obj
 0001:00055f40       ?recreate@?$PxArray@V?$PxVec3T@M@physx@@V?$PxReflectionAllocator@V?$PxVec3T@M@physx@@@2@@physx@@IEAAXI@Z 0000000180056f40 f i GuSDF.obj
 0001:00056020       ?release@PointOntoTriangleMeshProjector@Gu@physx@@UEAAXXZ 0000000180057020 f i GuSDF.obj
 0001:00056070       ?reserveInternal@?$PxHashBase@V?$PxPair@$$CBIU?$ClusterApproximationT@MV?$PxVec3T@M@physx@@@Gu@physx@@@physx@@IU?$PxHash@I@2@UGetKey@?$PxHashMapBase@IU?$ClusterApproximationT@MV?$PxVec3T@M@physx@@@Gu@physx@@U?$PxHash@I@3@VPxAllocator@3@@2@VPxAllocator@2@$00@physx@@AEAAXI@Z 0000000180057070 f i GuSDF.obj
 0001:00056270       ?reserveInternal@?$PxHashBase@V?$PxPair@$$CBUSortedTriangle@Gu@physx@@H@physx@@USortedTriangle@Gu@2@UTriangleHash@42@UGetKey@?$PxHashMapBase@USortedTriangle@Gu@physx@@HUTriangleHash@23@VPxAllocator@3@@2@VPxAllocator@2@$00@physx@@AEAAXI@Z 0000000180057270 f i GuSDF.obj
 0001:00056410       ?reserveInternal@?$PxHashBase@V?$PxPair@$$CB_KH@physx@@_KU?$PxHash@_K@2@UGetKey@?$PxHashMapBase@_KHU?$PxHash@_K@physx@@VPxAllocator@2@@2@VPxAllocator@2@$00@physx@@AEAAXI@Z 0000000180057410 f i GuSDF.obj
 0001:00056410       ?reserveInternal@?$PxHashBase@V?$PxPair@$$CB_KI@physx@@_KU?$PxHash@_K@2@UGetKey@?$PxHashMapBase@_KIU?$PxHash@_K@physx@@VPxAllocator@2@@2@VPxAllocator@2@$00@physx@@AEAAXI@Z 0000000180057410 f i GuSDF.obj
 0001:000565f0       ?resize@?$PxArray@IV?$PxReflectionAllocator@I@physx@@@physx@@QEAAXIAEBI@Z 00000001800575f0 f i GuSDF.obj
 0001:000566b0       ?resize@?$PxArray@MV?$PxReflectionAllocator@M@physx@@@physx@@QEAAXIAEBM@Z 00000001800576b0 f i GuSDF.obj
 0001:000567c0       ?resize@?$PxArray@PEAUMap@Gu@physx@@V?$PxReflectionAllocator@PEAUMap@Gu@physx@@@3@@physx@@QEAAXIAEBQEAUMap@Gu@2@@Z 00000001800577c0 f i GuSDF.obj
 0001:00056880       ?resize@?$PxArray@UBVHNode@Gu@physx@@V?$PxReflectionAllocator@UBVHNode@Gu@physx@@@3@@physx@@QEAAXIAEBUBVHNode@Gu@2@@Z 0000000180057880 f i GuSDF.obj
 0001:00056a00       ?sampleSDFDirect@DenseSDF@Gu@physx@@QEAAMAEBV?$PxVec3T@M@3@@Z 0000000180057a00 f i GuSDF.obj
 0001:00056ba0       ?signedVolume@Gu@physx@@YAMPEBV?$PxVec3T@M@2@PEBII1I@Z 0000000180057ba0 f   GuSDF.obj
 0001:000570e0       ?windingNumbers@Gu@physx@@YAXPEBV?$PxVec3T@M@2@PEBIIIIIPEAMV32@3PEAV32@@Z 00000001800580e0 f   GuSDF.obj
 0001:00057530       ?windingNumbersInsideCheck@Gu@physx@@YAXPEBV?$PxVec3T@M@2@PEBIIIIIPEA_NV32@3PEAV32@@Z 0000000180058530 f   GuSDF.obj
 0001:00057f00       ??0MeshData@physx@@QEAA@AEBVPxTriangleMeshDesc@1@@Z 0000000180058f00 f i GuCookingSDF.obj
 0001:00057fe0       ?GetBounds@MeshData@physx@@QEBAXAEAV?$PxVec3T@M@2@0@Z 0000000180058fe0 f i GuCookingSDF.obj
 0001:00058280       ?buildSDF@physx@@YA_NAEAVPxTriangleMeshDesc@1@AEAV?$PxArray@MV?$PxReflectionAllocator@M@physx@@@1@AEAV?$PxArray@EV?$PxReflectionAllocator@E@physx@@@1@AEAV?$PxArray@IV?$PxReflectionAllocator@I@physx@@@1@@Z 0000000180059280 f   GuCookingSDF.obj
 0001:000582d0       ?convert16To32Bits@physx@@YAXVPxSimpleTriangleMesh@1@AEAV?$PxArray@IV?$PxReflectionAllocator@I@physx@@@1@@Z 00000001800592d0 f   GuCookingSDF.obj
 0001:00059320       ?quantizeSparseSDF@physx@@YAXW4Enum@PxSdfBitsPerSubgridPixel@1@AEBV?$PxArray@MV?$PxReflectionAllocator@M@physx@@@1@AEAV?$PxArray@EV?$PxReflectionAllocator@E@physx@@@1@MM@Z 000000018005a320 f   GuCookingSDF.obj
 0001:00059400       ?recreate@?$PxArray@EV?$PxReflectionAllocator@E@physx@@@physx@@IEAAXI@Z 000000018005a400 f i GuCookingSDF.obj
 0001:000594f0       ?resize@?$PxArray@EV?$PxReflectionAllocator@E@physx@@@physx@@QEAAXIAEBE@Z 000000018005a4f0 f i GuCookingSDF.obj
 0001:000595b0       ?resize@?$PxArray@V?$PxVec3T@M@physx@@V?$PxReflectionAllocator@V?$PxVec3T@M@physx@@@2@@physx@@QEAAXIAEBV?$PxVec3T@M@2@@Z 000000018005a5b0 f i GuCookingSDF.obj
 0001:000596a0       ??$gjk@U?$RelativeConvex@UCustomConvexV@@@Gu@physx@@U?$LocalConvex@UCustomConvexV@@@23@@Gu@physx@@YA?AW4GjkStatus@01@AEBU?$RelativeConvex@UCustomConvexV@@@01@AEBU?$LocalConvex@UCustomConvexV@@@01@AEBT__m128@@2AEAT5@333@Z 000000018005a6a0 f i GuGjkQuery.obj
 0001:0005a430       ??$gjkPenetration@U?$RelativeConvex@UCustomConvexV@@@Gu@physx@@U?$LocalConvex@UCustomConvexV@@@23@@Gu@physx@@YA?AW4GjkStatus@01@AEBU?$RelativeConvex@UCustomConvexV@@@01@AEBU?$LocalConvex@UCustomConvexV@@@01@AEBT__m128@@2_NPEIAE4PEIAT5@5AEAEAEAUGjkOutput@01@@Z 000000018005b430 f i GuGjkQuery.obj
 0001:0005b9c0       ??$gjkPenetration@U?$RelativeConvex@UCustomConvexV@@@Gu@physx@@U?$LocalConvex@UCustomConvexV@@@23@@Gu@physx@@YA?AW4GjkStatus@01@AEBU?$RelativeConvex@UCustomConvexV@@@01@AEBU?$LocalConvex@UCustomConvexV@@@01@AEBT__m128@@2_NPEIAT5@4AEAEAEAUGjkOutput@01@@Z 000000018005c9c0 f i GuGjkQuery.obj
 0001:0005ba20       ??$gjkRaycast@U?$RelativeConvex@UCustomConvexV@@@Gu@physx@@U?$LocalConvex@UCustomConvexV@@@23@@Gu@physx@@YA_NAEBU?$RelativeConvex@UCustomConvexV@@@01@AEBU?$LocalConvex@UCustomConvexV@@@01@AEBT__m128@@222AEAT4@33M@Z 000000018005ca20 f i GuGjkQuery.obj
 0001:0005c790       ??$gjkRaycast@U?$RelativeConvex@UCustomConvexV@@@Gu@physx@@U?$LocalConvex@UPointConvexV@@@23@@Gu@physx@@YA_NAEBU?$RelativeConvex@UCustomConvexV@@@01@AEBU?$LocalConvex@UPointConvexV@@@01@AEBT__m128@@222AEAT4@33M@Z 000000018005d790 f i GuGjkQuery.obj
 0001:0005d3f0       ?overlap@PxGjkQuery@physx@@SA_NAEBUSupport@12@0AEBV?$PxTransformT@M@2@1@Z 000000018005e3f0 f   GuGjkQuery.obj
 0001:0005d780       ?proximityInfo@PxGjkQuery@physx@@SA_NAEBUSupport@12@0AEBV?$PxTransformT@M@2@1MMAEAV?$PxVec3T@M@2@22AEAM@Z 000000018005e780 f   GuGjkQuery.obj
 0001:0005e520       ?raycast@PxGjkQuery@physx@@SA_NAEBUSupport@12@AEBV?$PxTransformT@M@2@AEBV?$PxVec3T@M@2@2MAEAMAEAV52@4@Z 000000018005f520 f   GuGjkQuery.obj
 0001:0005e9d0       ?support@?$LocalConvex@UCustomConvexV@@@Gu@physx@@UEBA?AT__m128@@AEBT4@@Z 000000018005f9d0 f i GuGjkQuery.obj
 0001:0005ea50       ?support@?$LocalConvex@UCustomConvexV@@@Gu@physx@@UEBA?AT__m128@@AEBT4@AEAH@Z 000000018005fa50 f i GuGjkQuery.obj
 0001:0005ead0       ?support@?$LocalConvex@UPointConvexV@@@Gu@physx@@UEBA?AT__m128@@AEBT4@@Z 000000018005fad0 f i GuGjkQuery.obj
 0001:0005ead0       ?supportPoint@?$LocalConvex@UPointConvexV@@@Gu@physx@@UEBA?AT__m128@@H@Z 000000018005fad0 f i GuGjkQuery.obj
 0001:0005eae0       ?support@?$LocalConvex@UPointConvexV@@@Gu@physx@@UEBA?AT__m128@@AEBT4@AEAH@Z 000000018005fae0 f i GuGjkQuery.obj
 0001:0005eb00       ?support@?$RelativeConvex@UCustomConvexV@@@Gu@physx@@UEBA?AT__m128@@AEBT4@@Z 000000018005fb00 f i GuGjkQuery.obj
 0001:0005ebd0       ?support@?$RelativeConvex@UCustomConvexV@@@Gu@physx@@UEBA?AT__m128@@AEBT4@AEAH@Z 000000018005fbd0 f i GuGjkQuery.obj
 0001:0005ecb0       ?supportPoint@?$LocalConvex@UCustomConvexV@@@Gu@physx@@UEBA?AT__m128@@H@Z 000000018005fcb0 f i GuGjkQuery.obj
 0001:0005ed20       ?supportPoint@?$RelativeConvex@UCustomConvexV@@@Gu@physx@@UEBA?AT__m128@@H@Z 000000018005fd20 f i GuGjkQuery.obj
 0001:0005edc0       ?sweep@PxGjkQuery@physx@@SA_NAEBUSupport@12@0AEBV?$PxTransformT@M@2@1AEBV?$PxVec3T@M@2@MAEAMAEAV52@4@Z 000000018005fdc0 f   GuGjkQuery.obj
 0001:0005f580       ??$approximateCluster@MV?$PxVec3T@M@physx@@@Gu@physx@@YAXAEBV?$PxArray@HV?$PxReflectionAllocator@H@physx@@@1@IIPEBIPEBV?$PxVec3T@M@1@AEBV?$PxArray@MV?$PxReflectionAllocator@M@physx@@@1@AEBV?$PxArray@V?$PxVec3T@M@physx@@V?$PxReflectionAllocator@V?$PxVec3T@M@physx@@@2@@1@4AEAU?$ClusterApproximationT@MV?$PxVec3T@M@physx@@@01@@Z 0000000180060580 f i GuWindingNumber.obj
 0001:0005fbc0       ??$precomputeClusterInformation@MV?$PxVec3T@M@physx@@@Gu@physx@@YAXHPEBUBVHNode@01@PEBIIPEBV?$PxVec3T@M@1@AEAV?$PxHashMap@IU?$ClusterApproximationT@MV?$PxVec3T@M@physx@@@Gu@physx@@U?$PxHash@I@3@VPxAllocator@3@@1@V?$PxArray@MV?$PxReflectionAllocator@M@physx@@@1@AEBV?$PxArray@V?$PxVec3T@M@physx@@V?$PxReflectionAllocator@V?$PxVec3T@M@physx@@@2@@1@5@Z 0000000180060bc0 f i GuWindingNumber.obj
 0001:0005ffa0       ??$precomputeClusterInformation@MV?$PxVec3T@M@physx@@@Gu@physx@@YAXPEBUBVHNode@01@PEBIIPEBV?$PxVec3T@M@1@AEAV?$PxHashMap@IU?$ClusterApproximationT@MV?$PxVec3T@M@physx@@@Gu@physx@@U?$PxHash@I@3@VPxAllocator@3@@1@H@Z 0000000180060fa0 f i GuWindingNumber.obj
 0001:000603b0       ??$traverseBVH@V?$WindingNumberTraversalController@MV?$PxVec3T@M@physx@@@Gu@physx@@@Gu@physx@@YAXPEBUBVHNode@01@AEAV?$WindingNumberTraversalController@MV?$PxVec3T@M@physx@@@01@H@Z 00000001800613b0 f i GuWindingNumber.obj
 0001:00060900       ?computeWindingNumber@Gu@physx@@YAMAEBV?$PxVec3T@M@2@PEBIIPEBV32@@Z 0000000180061900 f   GuWindingNumber.obj
 0001:00060c30       ?computeWindingNumber@Gu@physx@@YAMPEBUBVHNode@12@AEBV?$PxVec3T@M@2@AEBV?$PxHashMap@IU?$ClusterApproximationT@MV?$PxVec3T@M@physx@@@Gu@physx@@U?$PxHash@I@3@VPxAllocator@3@@2@PEBIPEBV42@@Z 0000000180061c30 f   GuWindingNumber.obj
 0001:00060ca0       ?computeWindingNumber@Gu@physx@@YAMPEBUBVHNode@12@AEBV?$PxVec3T@M@2@MAEBV?$PxHashMap@IU?$ClusterApproximationT@MV?$PxVec3T@M@physx@@@Gu@physx@@U?$PxHash@I@3@VPxAllocator@3@@2@PEBIPEBV42@@Z 0000000180061ca0 f   GuWindingNumber.obj
 0001:00060d10       ?create@?$PxHashBase@V?$PxPair@$$CBIU?$ClusterApproximationT@MV?$PxVec3T@M@physx@@@Gu@physx@@@physx@@IU?$PxHash@I@2@UGetKey@?$PxHashMapBase@IU?$ClusterApproximationT@MV?$PxVec3T@M@physx@@@Gu@physx@@U?$PxHash@I@3@VPxAllocator@3@@2@VPxAllocator@2@$00@physx@@QEAAPEAV?$PxPair@$$CBIU?$ClusterApproximationT@MV?$PxVec3T@M@physx@@@Gu@physx@@@2@AEBIAEA_N@Z 0000000180061d10 f i GuWindingNumber.obj
 0001:00060e60       ?growAndPushBack@?$PxArray@HV?$PxReflectionAllocator@H@physx@@@physx@@IEAAAEAHAEBH@Z 0000000180061e60 f i GuWindingNumber.obj
 0001:00060f80       ?growAndPushBack@?$PxArray@USection@Gu@physx@@V?$PxReflectionAllocator@USection@Gu@physx@@@3@@physx@@IEAAAEAUSection@Gu@2@AEBU342@@Z 0000000180061f80 f i GuWindingNumber.obj
 0001:000610a0       ?precomputeClusterInformation@Gu@physx@@YAXPEBUBVHNode@12@PEBIIPEBV?$PxVec3T@M@2@AEAV?$PxHashMap@IU?$ClusterApproximationT@MV?$PxVec3T@M@physx@@@Gu@physx@@U?$PxHash@I@3@VPxAllocator@3@@2@H@Z 00000001800620a0 f   GuWindingNumber.obj
 0001:00061140       ?SweepAnyShapeHeightfield@Gu@physx@@YAMAEBUCCDShape@12@0AEBUPxTransformPadded@2@111MAEAV?$PxVec3T@M@2@2MAEAIM@Z 0000000180062140 f   GuCCDSweepConvexMesh.obj
 0001:000626e0       ?SweepAnyShapeMesh@Gu@physx@@YAMAEBUCCDShape@12@0AEBUPxTransformPadded@2@111MAEAV?$PxVec3T@M@2@2MAEAIM@Z 00000001800636e0 f   GuCCDSweepConvexMesh.obj
 0001:00063ca0       ?SweepEstimateAnyShapeHeightfield@Gu@physx@@YAMAEBUCCDShape@12@0MM@Z 0000000180064ca0 f   GuCCDSweepConvexMesh.obj
 0001:00064930       ?SweepEstimateAnyShapeMesh@Gu@physx@@YAMAEBUCCDShape@12@0MM@Z 0000000180065930 f   GuCCDSweepConvexMesh.obj
 0001:00064bd0       ?allocate@?$PxArray@IV?$PxInlineAllocator@$0BAA@V?$PxReflectionAllocator@I@physx@@@physx@@@physx@@IEAAPEAIIPEAI@Z 0000000180065bd0 f i GuCCDSweepConvexMesh.obj
 0001:000656b0       ?growAndPushBack@?$PxArray@IV?$PxInlineAllocator@$0BAA@V?$PxReflectionAllocator@I@physx@@@physx@@@physx@@IEAAAEAIAEBI@Z 00000001800666b0 f i GuCCDSweepConvexMesh.obj
 0001:00065cf0       ?recreate@?$PxArray@IV?$PxInlineAllocator@$0BAA@V?$PxReflectionAllocator@I@physx@@@physx@@@physx@@IEAAXI@Z 0000000180066cf0 f i GuCCDSweepConvexMesh.obj
 0001:00065e30       ?resize@?$PxArray@IV?$PxInlineAllocator@$0BAA@V?$PxReflectionAllocator@I@physx@@@physx@@@physx@@QEAAXIAEBI@Z 0000000180066e30 f i GuCCDSweepConvexMesh.obj
 0001:00065f00       ?transformBoxOrthonormal@physx@@YA?AVBox@Gu@1@AEBV231@AEBV?$PxTransformT@M@1@@Z 0000000180066f00 f i GuCCDSweepConvexMesh.obj
 0001:00066390       ?UnimplementedSweep@Gu@physx@@YAMAEBUCCDShape@12@0AEBUPxTransformPadded@2@111MAEAV?$PxVec3T@M@2@2MAEAIM@Z 0000000180067390 f   GuCCDSweepPrimitives.obj
 0001:0006a070       ?UnimplementedTriangleSweep@Gu@physx@@YAMAEBVPxGeometry@2@0AEBUPxTransformPadded@2@111MAEAV?$PxVec3T@M@2@2AEBVFastVertex2ShapeScaling@Cm@2@AEAVTriangleV@12@M@Z 000000018006b070 f   GuCCDSweepPrimitives.obj
 0001:0006a080       ??$SweepGeomTriangles@VCapsuleV@Gu@physx@@@Gu@physx@@YAMAEBVPxGeometry@1@0AEBUPxTransformPadded@1@111MAEAV?$PxVec3T@M@1@2AEBVFastVertex2ShapeScaling@Cm@1@AEAVTriangleV@01@M@Z 000000018006b080 f i GuCCDSweepPrimitives.obj
 0001:0006a7b0       ??$SweepGeomTriangles@VBoxV@Gu@physx@@@Gu@physx@@YAMAEBVPxGeometry@1@0AEBUPxTransformPadded@1@111MAEAV?$PxVec3T@M@1@2AEBVFastVertex2ShapeScaling@Cm@1@AEAVTriangleV@01@M@Z 000000018006b7b0 f i GuCCDSweepPrimitives.obj
 0001:0006af00       ??$SweepGeomTriangles@VConvexHullV@Gu@physx@@@Gu@physx@@YAMAEBVPxGeometry@1@0AEBUPxTransformPadded@1@111MAEAV?$PxVec3T@M@1@2AEBVFastVertex2ShapeScaling@Cm@1@AEAVTriangleV@01@M@Z 000000018006bf00 f i GuCCDSweepPrimitives.obj
 0001:0006b9e0       ?supportPoint@?$RelativeConvex@VCapsuleV@Gu@physx@@@Gu@physx@@UEBA?AT__m128@@H@Z 000000018006c9e0 f i GuCCDSweepPrimitives.obj
 0001:0006ba40       ?support@?$RelativeConvex@VCapsuleV@Gu@physx@@@Gu@physx@@UEBA?AT__m128@@AEBT4@@Z 000000018006ca40 f i GuCCDSweepPrimitives.obj
 0001:0006baf0       ?support@?$RelativeConvex@VCapsuleV@Gu@physx@@@Gu@physx@@UEBA?AT__m128@@AEBT4@AEAH@Z 000000018006caf0 f i GuCCDSweepPrimitives.obj
 0001:0006bbb0       ?supportPoint@?$RelativeConvex@VTriangleV@Gu@physx@@@Gu@physx@@UEBA?AT__m128@@H@Z 000000018006cbb0 f i GuCCDSweepPrimitives.obj
 0001:0006bc00       ?support@?$RelativeConvex@VTriangleV@Gu@physx@@@Gu@physx@@UEBA?AT__m128@@AEBT4@@Z 000000018006cc00 f i GuCCDSweepPrimitives.obj
 0001:0006bd00       ?support@?$RelativeConvex@VTriangleV@Gu@physx@@@Gu@physx@@UEBA?AT__m128@@AEBT4@AEAH@Z 000000018006cd00 f i GuCCDSweepPrimitives.obj
 0001:0006be40       ??$gjkPenetration@U?$RelativeConvex@VCapsuleV@Gu@physx@@@Gu@physx@@U?$LocalConvex@VBoxV@Gu@physx@@@23@@Gu@physx@@YA?AW4GjkStatus@01@AEBU?$RelativeConvex@VCapsuleV@Gu@physx@@@01@AEBU?$LocalConvex@VBoxV@Gu@physx@@@01@AEBT__m128@@2_NPEIAE4AEAEAEAUGjkOutput@01@@Z 000000018006ce40 f i GuCCDSweepPrimitives.obj
 0001:0006beb0       ??$gjkPenetration@U?$RelativeConvex@VCapsuleV@Gu@physx@@@Gu@physx@@U?$LocalConvex@VBoxV@Gu@physx@@@23@@Gu@physx@@YA?AW4GjkStatus@01@AEBU?$RelativeConvex@VCapsuleV@Gu@physx@@@01@AEBU?$LocalConvex@VBoxV@Gu@physx@@@01@AEBT__m128@@2_NPEIAE4PEIAT5@5AEAEAEAUGjkOutput@01@@Z 000000018006ceb0 f i GuCCDSweepPrimitives.obj
 0001:0006d3b0       ??$gjkPenetration@U?$RelativeConvex@VCapsuleV@Gu@physx@@@Gu@physx@@U?$LocalConvex@VCapsuleV@Gu@physx@@@23@@Gu@physx@@YA?AW4GjkStatus@01@AEBU?$RelativeConvex@VCapsuleV@Gu@physx@@@01@AEBU?$LocalConvex@VCapsuleV@Gu@physx@@@01@AEBT__m128@@2_NPEIAE4AEAEAEAUGjkOutput@01@@Z 000000018006e3b0 f i GuCCDSweepPrimitives.obj
 0001:0006d420       ??$gjkPenetration@U?$RelativeConvex@VCapsuleV@Gu@physx@@@Gu@physx@@U?$LocalConvex@VCapsuleV@Gu@physx@@@23@@Gu@physx@@YA?AW4GjkStatus@01@AEBU?$RelativeConvex@VCapsuleV@Gu@physx@@@01@AEBU?$LocalConvex@VCapsuleV@Gu@physx@@@01@AEBT__m128@@2_NPEIAE4PEIAT5@5AEAEAEAUGjkOutput@01@@Z 000000018006e420 f i GuCCDSweepPrimitives.obj
 0001:0006e920       ??$gjkPenetration@U?$RelativeConvex@VCapsuleV@Gu@physx@@@Gu@physx@@U?$LocalConvex@VConvexHullV@Gu@physx@@@23@@Gu@physx@@YA?AW4GjkStatus@01@AEBU?$RelativeConvex@VCapsuleV@Gu@physx@@@01@AEBU?$LocalConvex@VConvexHullV@Gu@physx@@@01@AEBT__m128@@2_NPEIAE4AEAEAEAUGjkOutput@01@@Z 000000018006f920 f i GuCCDSweepPrimitives.obj
 0001:0006e990       ??$gjkPenetration@U?$RelativeConvex@VCapsuleV@Gu@physx@@@Gu@physx@@U?$LocalConvex@VConvexHullV@Gu@physx@@@23@@Gu@physx@@YA?AW4GjkStatus@01@AEBU?$RelativeConvex@VCapsuleV@Gu@physx@@@01@AEBU?$LocalConvex@VConvexHullV@Gu@physx@@@01@AEBT__m128@@2_NPEIAE4PEIAT5@5AEAEAEAUGjkOutput@01@@Z 000000018006f990 f i GuCCDSweepPrimitives.obj
 0001:0006ff40       ??$gjkPenetration@U?$RelativeConvex@VTriangleV@Gu@physx@@@Gu@physx@@U?$LocalConvex@VBoxV@Gu@physx@@@23@@Gu@physx@@YA?AW4GjkStatus@01@AEBU?$RelativeConvex@VTriangleV@Gu@physx@@@01@AEBU?$LocalConvex@VBoxV@Gu@physx@@@01@AEBT__m128@@2_NPEIAE4AEAEAEAUGjkOutput@01@@Z 0000000180070f40 f i GuCCDSweepPrimitives.obj
 0001:0006ffb0       ??$gjkPenetration@U?$RelativeConvex@VTriangleV@Gu@physx@@@Gu@physx@@U?$LocalConvex@VBoxV@Gu@physx@@@23@@Gu@physx@@YA?AW4GjkStatus@01@AEBU?$RelativeConvex@VTriangleV@Gu@physx@@@01@AEBU?$LocalConvex@VBoxV@Gu@physx@@@01@AEBT__m128@@2_NPEIAE4PEIAT5@5AEAEAEAUGjkOutput@01@@Z 0000000180070fb0 f i GuCCDSweepPrimitives.obj
 0001:000714d0       ??$gjkPenetration@U?$RelativeConvex@VTriangleV@Gu@physx@@@Gu@physx@@U?$LocalConvex@VCapsuleV@Gu@physx@@@23@@Gu@physx@@YA?AW4GjkStatus@01@AEBU?$RelativeConvex@VTriangleV@Gu@physx@@@01@AEBU?$LocalConvex@VCapsuleV@Gu@physx@@@01@AEBT__m128@@2_NPEIAE4AEAEAEAUGjkOutput@01@@Z 00000001800724d0 f i GuCCDSweepPrimitives.obj
 0001:00071540       ??$gjkPenetration@U?$RelativeConvex@VTriangleV@Gu@physx@@@Gu@physx@@U?$LocalConvex@VCapsuleV@Gu@physx@@@23@@Gu@physx@@YA?AW4GjkStatus@01@AEBU?$RelativeConvex@VTriangleV@Gu@physx@@@01@AEBU?$LocalConvex@VCapsuleV@Gu@physx@@@01@AEBT__m128@@2_NPEIAE4PEIAT5@5AEAEAEAUGjkOutput@01@@Z 0000000180072540 f i GuCCDSweepPrimitives.obj
 0001:00072a70       ??$gjkPenetration@U?$RelativeConvex@VTriangleV@Gu@physx@@@Gu@physx@@U?$LocalConvex@VConvexHullV@Gu@physx@@@23@@Gu@physx@@YA?AW4GjkStatus@01@AEBU?$RelativeConvex@VTriangleV@Gu@physx@@@01@AEBU?$LocalConvex@VConvexHullV@Gu@physx@@@01@AEBT__m128@@2_NPEIAE4AEAEAEAUGjkOutput@01@@Z 0000000180073a70 f i GuCCDSweepPrimitives.obj
 0001:00072ae0       ??$gjkPenetration@U?$RelativeConvex@VTriangleV@Gu@physx@@@Gu@physx@@U?$LocalConvex@VConvexHullV@Gu@physx@@@23@@Gu@physx@@YA?AW4GjkStatus@01@AEBU?$RelativeConvex@VTriangleV@Gu@physx@@@01@AEBU?$LocalConvex@VConvexHullV@Gu@physx@@@01@AEBT__m128@@2_NPEIAE4PEIAT5@5AEAEAEAUGjkOutput@01@@Z 0000000180073ae0 f i GuCCDSweepPrimitives.obj
 0001:000740c0       ??$gjkRaycast@U?$RelativeConvex@VCapsuleV@Gu@physx@@@Gu@physx@@U?$LocalConvex@VBoxV@Gu@physx@@@23@@Gu@physx@@YA_NAEBU?$RelativeConvex@VCapsuleV@Gu@physx@@@01@AEBU?$LocalConvex@VBoxV@Gu@physx@@@01@AEBT__m128@@222AEAT4@33M@Z 00000001800750c0 f i GuCCDSweepPrimitives.obj
 0001:00074d60       ??$gjkRaycast@U?$RelativeConvex@VCapsuleV@Gu@physx@@@Gu@physx@@U?$LocalConvex@VCapsuleV@Gu@physx@@@23@@Gu@physx@@YA_NAEBU?$RelativeConvex@VCapsuleV@Gu@physx@@@01@AEBU?$LocalConvex@VCapsuleV@Gu@physx@@@01@AEBT__m128@@222AEAT4@33M@Z 0000000180075d60 f i GuCCDSweepPrimitives.obj
 0001:00075a60       ??$gjkRaycast@U?$RelativeConvex@VCapsuleV@Gu@physx@@@Gu@physx@@U?$LocalConvex@VConvexHullV@Gu@physx@@@23@@Gu@physx@@YA_NAEBU?$RelativeConvex@VCapsuleV@Gu@physx@@@01@AEBU?$LocalConvex@VConvexHullV@Gu@physx@@@01@AEBT__m128@@222AEAT4@33M@Z 0000000180076a60 f i GuCCDSweepPrimitives.obj
 0001:00076880       ??$gjkRaycast@U?$RelativeConvex@VTriangleV@Gu@physx@@@Gu@physx@@U?$LocalConvex@VBoxV@Gu@physx@@@23@@Gu@physx@@YA_NAEBU?$RelativeConvex@VTriangleV@Gu@physx@@@01@AEBU?$LocalConvex@VBoxV@Gu@physx@@@01@AEBT__m128@@222AEAT4@33M@Z 0000000180077880 f i GuCCDSweepPrimitives.obj
 0001:00077590       ??$gjkRaycast@U?$RelativeConvex@VTriangleV@Gu@physx@@@Gu@physx@@U?$LocalConvex@VCapsuleV@Gu@physx@@@23@@Gu@physx@@YA_NAEBU?$RelativeConvex@VTriangleV@Gu@physx@@@01@AEBU?$LocalConvex@VCapsuleV@Gu@physx@@@01@AEBT__m128@@222AEAT4@33M@Z 0000000180078590 f i GuCCDSweepPrimitives.obj
 0001:00078330       ??$gjkRaycast@U?$RelativeConvex@VTriangleV@Gu@physx@@@Gu@physx@@U?$LocalConvex@VConvexHullV@Gu@physx@@@23@@Gu@physx@@YA_NAEBU?$RelativeConvex@VTriangleV@Gu@physx@@@01@AEBU?$LocalConvex@VConvexHullV@Gu@physx@@@01@AEBT__m128@@222AEAT4@33M@Z 0000000180079330 f i GuCCDSweepPrimitives.obj
 0001:000791f0       ?SweepShapeShape@Gu@physx@@YAMAEBUCCDShape@12@0AEBUPxTransformPadded@2@111MAEAV?$PxVec3T@M@2@2MAEAIM@Z 000000018007a1f0 f   GuCCDSweepPrimitives.obj
 0001:00079210       ?SweepShapeTriangle@Gu@physx@@YAMAEBVPxGeometry@2@0AEBUPxTransformPadded@2@111MAEAV?$PxVec3T@M@2@2AEBVFastVertex2ShapeScaling@Cm@2@AEAVTriangleV@12@M@Z 000000018007a210 f   GuCCDSweepPrimitives.obj
 0001:00079230       ?barycentricCoordinates@Gu@physx@@YAXAEBT__m128@@000AEAT3@1@Z 000000018007a230 f   GuBarycentricCoordinates.obj
 0001:00079370       ?barycentricCoordinates@Gu@physx@@YAXAEBT__m128@@00AEAT3@@Z 000000018007a370 f   GuBarycentricCoordinates.obj
 0001:000793e0       ??$?_UV?$PxReflectionAllocator@VAdjTriangle@Gu@physx@@@physx@@@PxUserAllocated@physx@@SAPEAX_KV?$PxReflectionAllocator@VAdjTriangle@Gu@physx@@@1@PEBDH@Z 000000018007a3e0 f i GuAdjacencies.obj
 0001:000794c0       ??0AdjacenciesBuilder@Gu@physx@@QEAA@XZ 000000018007a4c0 f   GuAdjacencies.obj
 0001:000794d0       ??1AdjacenciesBuilder@Gu@physx@@QEAA@XZ 000000018007a4d0 f   GuAdjacencies.obj
 0001:00079620       ?ComputeNbBoundaryEdges@Adjacencies@Gu@physx@@QEBAIXZ 000000018007a620 f   GuAdjacencies.obj
 0001:000798b0       ?Init@AdjacenciesBuilder@Gu@physx@@QEAA_NAEBUADJACENCIESCREATE@23@@Z 000000018007a8b0 f   GuAdjacencies.obj
 0001:00079e10       ??0EdgeList@Gu@physx@@QEAA@XZ 000000018007ae10 f   GuEdgeList.obj
 0001:00079e30       ??1EdgeList@Gu@physx@@QEAA@XZ 000000018007ae30 f   GuEdgeList.obj
 0001:00079ee0       ?computeActiveEdges@EdgeList@Gu@physx@@AEAA_NIPEBIPEBGPEBV?$PxVec3T@M@3@M@Z 000000018007aee0 f   GuEdgeList.obj
 0001:0007b260       ?createEdgesToFaces@EdgeList@Gu@physx@@AEAA_NIPEBIPEBG@Z 000000018007c260 f   GuEdgeList.obj
 0001:0007b4c0       ?createFacesToEdges@EdgeList@Gu@physx@@AEAA_NIPEBIPEBG@Z 000000018007c4c0 f   GuEdgeList.obj
 0001:0007b890       ?init@EdgeList@Gu@physx@@QEAA_NAEBUEDGELISTCREATE@23@@Z 000000018007c890 f   GuEdgeList.obj
 0001:0007b9c0       ?addAxis@SeparatingAxes@Gu@physx@@QEAA_NAEBV?$PxVec3T@M@3@@Z 000000018007c9c0 f   GuSeparatingAxes.obj
 0001:0007ba80       ??$kmeans_cluster@V?$PxVec3T@M@physx@@M@@YAIPEBV?$PxVec3T@M@physx@@IIPEAV01@PEAIMM@Z 000000018007ca80 f i GuQuantizer.obj
 0001:0007c440       ??_EQuantizer@Gu@physx@@MEAAPEAXI@Z 000000018007d440 f i GuQuantizer.obj
 0001:0007c440       ??_GQuantizer@Gu@physx@@MEAAPEAXI@Z 000000018007d440 f i GuQuantizer.obj
 0001:0007c470       ??_EQuantizerImpl@@EEAAPEAXI@Z 000000018007d470 f i GuQuantizer.obj
 0001:0007c470       ??_GQuantizerImpl@@EEAAPEAXI@Z 000000018007d470 f i GuQuantizer.obj
 0001:0007c540       ?createQuantizer@Gu@physx@@YAPEAVQuantizer@12@XZ 000000018007d540 f   GuQuantizer.obj
 0001:0007c5f0       ?getDenormalizeCenter@QuantizerImpl@@UEBAAEBV?$PxVec3T@M@physx@@XZ 000000018007d5f0 f i GuQuantizer.obj
 0001:0007c600       ?getCurrentAABBTreeBounds@PruningPool@Gu@physx@@QEBAAEBVAABBTreeBounds@23@XZ 000000018007d600 f i GuIncrementalAABBPrunerCore.obj
 0001:0007c600       ?getDenormalizeScale@QuantizerImpl@@UEBAAEBV?$PxVec3T@M@physx@@XZ 000000018007d600 f i GuQuantizer.obj
 0001:0007c610       ?kmeansQuantize3D@QuantizerImpl@@UEAAPEBV?$PxVec3T@M@physx@@IPEBV23@I_NIAEAI@Z 000000018007d610 f i GuQuantizer.obj
 0001:0007c880       ?normalizeInput@QuantizerImpl@@AEAAXIPEBV?$PxVec3T@M@physx@@I@Z 000000018007d880 f i GuQuantizer.obj
 0001:0007ccd0       ?release@QuantizerImpl@@UEAAXXZ 000000018007dcd0 f i GuQuantizer.obj
 0001:0007ccf0       ??0MeshCleaner@Gu@physx@@QEAA@IPEBV?$PxVec3T@M@2@IPEBIMM@Z 000000018007dcf0 f   GuMeshCleaner.obj
 0001:0007d6c0       ??1MeshCleaner@Gu@physx@@QEAA@XZ 000000018007e6c0 f   GuMeshCleaner.obj
 0001:0007d750       ??0ReducedVertexCloud@Gu@physx@@QEAA@PEBV?$PxVec3T@M@2@I@Z 000000018007e750 f   GuVertexReducer.obj
 0001:0007d770       ??1ReducedVertexCloud@Gu@physx@@QEAA@XZ 000000018007e770 f   GuVertexReducer.obj
 0001:0007d780       ?clean@ReducedVertexCloud@Gu@physx@@QEAAAEAV123@XZ 000000018007e780 f   GuVertexReducer.obj
 0001:0007d7f0       ?reduce@ReducedVertexCloud@Gu@physx@@QEAA_NPEAUREDUCEDCLOUD@23@@Z 000000018007e7f0 f   GuVertexReducer.obj
 0001:0007da90       ?buildConsistentTriangleOrientationMap@MeshAnalyzer@Gu@physx@@SA_NPEBU?$IndexedTriangleT@H@23@IAEAV?$PxArray@_NV?$PxReflectionAllocator@_N@physx@@@3@AEAV?$PxHashMap@_KHU?$PxHash@_K@physx@@VPxAllocator@2@@3@AEAV?$PxArray@V?$PxArray@IV?$PxReflectionAllocator@I@physx@@@physx@@V?$PxReflectionAllocator@V?$PxArray@IV?$PxReflectionAllocator@I@physx@@@physx@@@2@@3@@Z 000000018007ea90 f   GuMeshAnalysis.obj
 0001:0007de40       ?buildTriangleAdjacency@MeshAnalyzer@Gu@physx@@SA_NPEBU?$IndexedTriangleT@H@23@IAEAV?$PxArray@HV?$PxReflectionAllocator@H@physx@@@3@AEAV?$PxHashMap@_KHU?$PxHash@_K@physx@@VPxAllocator@2@@3@@Z 000000018007ee40 f   GuMeshAnalysis.obj
 0001:0007e140       ?checkConsistentTriangleOrientation@MeshAnalyzer@Gu@physx@@SA_NPEBU?$IndexedTriangleT@H@23@I@Z 000000018007f140 f   GuMeshAnalysis.obj
 0001:0007e290       ?checkMeshWatertightness@MeshAnalyzer@Gu@physx@@SA_NPEBU?$IndexedTriangleT@H@23@I_N@Z 000000018007f290 f   GuMeshAnalysis.obj
 0001:0007e470       ?destroy@?$PxArray@V?$PxArray@IV?$PxReflectionAllocator@I@physx@@@physx@@V?$PxReflectionAllocator@V?$PxArray@IV?$PxReflectionAllocator@I@physx@@@physx@@@2@@physx@@KAXPEAV?$PxArray@IV?$PxReflectionAllocator@I@physx@@@2@0@Z 000000018007f470 f i GuMeshAnalysis.obj
 0001:0007e4e0       ?erase@?$PxHashBase@V?$PxPair@$$CB_KH@physx@@_KU?$PxHash@_K@2@UGetKey@?$PxHashMapBase@_KHU?$PxHash@_K@physx@@VPxAllocator@2@@2@VPxAllocator@2@$00@physx@@QEAA_NAEB_K@Z 000000018007f4e0 f i GuMeshAnalysis.obj
 0001:0007e690       ?growAndPushBack@?$PxArray@V?$PxArray@IV?$PxReflectionAllocator@I@physx@@@physx@@V?$PxReflectionAllocator@V?$PxArray@IV?$PxReflectionAllocator@I@physx@@@physx@@@2@@physx@@IEAAAEAV?$PxArray@IV?$PxReflectionAllocator@I@physx@@@2@AEBV32@@Z 000000018007f690 f i GuMeshAnalysis.obj
 0001:0007e7e0       ?makeTriOrientationConsistent@MeshAnalyzer@Gu@physx@@SA_NPEAU?$IndexedTriangleT@H@23@I_N@Z 000000018007f7e0 f   GuMeshAnalysis.obj
 0001:0007e960       ?recreate@?$PxArray@_NV?$PxReflectionAllocator@_N@physx@@@physx@@IEAAXI@Z 000000018007f960 f i GuMeshAnalysis.obj
 0001:0007ea50       ?resize@?$PxArray@HV?$PxReflectionAllocator@H@physx@@@physx@@QEAAXIAEBH@Z 000000018007fa50 f i GuMeshAnalysis.obj
 0001:0007eb10       ?resize@?$PxArray@_NV?$PxReflectionAllocator@_N@physx@@@physx@@QEAAXIAEB_N@Z 000000018007fb10 f i GuMeshAnalysis.obj
 0001:0007ebd0       ?contactBoxBox@Gu@physx@@YA_NAEBVPxGeometry@2@0AEBUPxTransformPadded@2@1AEBUNarrowPhaseParams@12@AEAUCache@12@AEAVPxContactBuffer@2@PEAVPxRenderOutput@2@@Z 000000018007fbd0 f   GuContactBoxBox.obj
 0001:00082a10       ?contactCapsuleBox@Gu@physx@@YA_NAEBVPxGeometry@2@0AEBUPxTransformPadded@2@1AEBUNarrowPhaseParams@12@AEAUCache@12@AEAVPxContactBuffer@2@PEAVPxRenderOutput@2@@Z 0000000180083a10 f   GuContactCapsuleBox.obj
 0001:00083220       ?contactCapsuleCapsule@Gu@physx@@YA_NAEBVPxGeometry@2@0AEBUPxTransformPadded@2@1AEBUNarrowPhaseParams@12@AEAUCache@12@AEAVPxContactBuffer@2@PEAVPxRenderOutput@2@@Z 0000000180084220 f   GuContactCapsuleCapsule.obj
 0001:00085c10       ?contactCapsuleConvex@Gu@physx@@YA_NAEBVPxGeometry@2@0AEBUPxTransformPadded@2@1AEBUNarrowPhaseParams@12@AEAUCache@12@AEAVPxContactBuffer@2@PEAVPxRenderOutput@2@@Z 0000000180086c10 f   GuContactCapsuleConvex.obj
 0001:00088130       ?contactCapsuleHeightfield@Gu@physx@@YA_NAEBVPxGeometry@2@0AEBUPxTransformPadded@2@1AEBUNarrowPhaseParams@12@AEAUCache@12@AEAVPxContactBuffer@2@PEAVPxRenderOutput@2@@Z 0000000180089130 f   GuContactCapsuleMesh.obj
 0001:00088970       ?contactCapsuleMesh@Gu@physx@@YA_NAEBVPxGeometry@2@0AEBUPxTransformPadded@2@1AEBUNarrowPhaseParams@12@AEAUCache@12@AEAVPxContactBuffer@2@PEAVPxRenderOutput@2@@Z 0000000180089970 f   GuContactCapsuleMesh.obj
 0001:00089af0       ?transformQueryBounds@FastVertex2ShapeScaling@Cm@physx@@QEBAXAEAV?$PxVec3T@M@3@0AEAV?$PxMat33T@M@3@@Z 000000018008aaf0 f i GuContactCapsuleMesh.obj
 0001:0008e090       ?contactBoxConvex@Gu@physx@@YA_NAEBVPxGeometry@2@0AEBUPxTransformPadded@2@1AEBUNarrowPhaseParams@12@AEAUCache@12@AEAVPxContactBuffer@2@PEAVPxRenderOutput@2@@Z 000000018008f090 f   GuContactConvexConvex.obj
 0001:0008e260       ?contactConvexConvex@Gu@physx@@YA_NAEBVPxGeometry@2@0AEBUPxTransformPadded@2@1AEBUNarrowPhaseParams@12@AEAUCache@12@AEAVPxContactBuffer@2@PEAVPxRenderOutput@2@@Z 000000018008f260 f   GuContactConvexConvex.obj
 0001:0008e6e0       ?transformPlaneToShapeSpace@FastVertex2ShapeScaling@Cm@physx@@QEBAXAEBV?$PxVec3T@M@3@MAEAV43@AEAM@Z 000000018008f6e0 f i GuContactConvexConvex.obj
 0001:0008eb90       ??_EConvexMeshContactGenerationCallback@@UEAAPEAXI@Z 000000018008fb90 f i GuContactConvexMesh.obj
 0001:0008eb90       ??_GConvexMeshContactGenerationCallback@@UEAAPEAXI@Z 000000018008fb90 f i GuContactConvexMesh.obj
 0001:0008ebf0       ?addData@?$CacheMap@UCachedEdge@Gu@physx@@$0IA@@Gu@physx@@QEAA_NAEBUCachedEdge@23@@Z 000000018008fbf0 f i GuContactConvexMesh.obj
 0001:0008ecd0       ?addData@?$CacheMap@UCachedVertex@Gu@physx@@$0IA@@Gu@physx@@QEAA_NAEBUCachedVertex@23@@Z 000000018008fcd0 f i GuContactConvexMesh.obj
 0001:0008ed60       ?allocate@?$PxArray@IV?$PxInlineAllocator@$0BBAA@V?$PxReflectionAllocator@I@physx@@@physx@@@physx@@IEAAPEAIIPEAI@Z 000000018008fd60 f i GuContactConvexMesh.obj
 0001:0008f160       ?contactBoxHeightfield@Gu@physx@@YA_NAEBVPxGeometry@2@0AEBUPxTransformPadded@2@1AEBUNarrowPhaseParams@12@AEAUCache@12@AEAVPxContactBuffer@2@PEAVPxRenderOutput@2@@Z 0000000180090160 f   GuContactConvexMesh.obj
 0001:0008f2e0       ?contactBoxMesh@Gu@physx@@YA_NAEBVPxGeometry@2@0AEBUPxTransformPadded@2@1AEBUNarrowPhaseParams@12@AEAUCache@12@AEAVPxContactBuffer@2@PEAVPxRenderOutput@2@@Z 00000001800902e0 f   GuContactConvexMesh.obj
 0001:0008f4b0       ?contactConvexHeightfield@Gu@physx@@YA_NAEBVPxGeometry@2@0AEBUPxTransformPadded@2@1AEBUNarrowPhaseParams@12@AEAUCache@12@AEAVPxContactBuffer@2@PEAVPxRenderOutput@2@@Z 00000001800904b0 f   GuContactConvexMesh.obj
 0001:0008f600       ?contactConvexMesh@Gu@physx@@YA_NAEBVPxGeometry@2@0AEBUPxTransformPadded@2@1AEBUNarrowPhaseParams@12@AEAUCache@12@AEAVPxContactBuffer@2@PEAVPxRenderOutput@2@@Z 0000000180090600 f   GuContactConvexMesh.obj
 0001:00092d20       ?processHit@ConvexMeshContactGenerationCallback@@UEAA_NAEBUPxGeomRaycastHit@physx@@AEBV?$PxVec3T@M@3@11AEAMPEBI@Z 0000000180093d20 f i GuContactConvexMesh.obj
 0001:000936e0       ?recreate@?$PxArray@IV?$PxInlineAllocator@$0BBAA@V?$PxReflectionAllocator@I@physx@@@physx@@@physx@@IEAAXI@Z 00000001800946e0 f i GuContactConvexMesh.obj
 0001:00094b80       ?contactPlaneBox@Gu@physx@@YA_NAEBVPxGeometry@2@0AEBUPxTransformPadded@2@1AEBUNarrowPhaseParams@12@AEAUCache@12@AEAVPxContactBuffer@2@PEAVPxRenderOutput@2@@Z 0000000180095b80 f   GuContactPlaneBox.obj
 0001:00095820       ?contactPlaneCapsule@Gu@physx@@YA_NAEBVPxGeometry@2@0AEBUPxTransformPadded@2@1AEBUNarrowPhaseParams@12@AEAUCache@12@AEAVPxContactBuffer@2@PEAVPxRenderOutput@2@@Z 0000000180096820 f   GuContactPlaneCapsule.obj
 0001:00095ef0       ?contactPlaneConvex@Gu@physx@@YA_NAEBVPxGeometry@2@0AEBUPxTransformPadded@2@1AEBUNarrowPhaseParams@12@AEAUCache@12@AEAVPxContactBuffer@2@PEAVPxRenderOutput@2@@Z 0000000180096ef0 f   GuContactPlaneConvex.obj
 0001:00097c20       ?contactPolygonPolygonExt@Gu@physx@@YA_NIPEBV?$PxVec3T@M@2@PEBEAEBV?$PxMat34T@M@2@AEBVPxPlane@2@AEBV?$PxMat33T@M@2@I01234AEBV32@22IIAEAVPxContactBuffer@2@_N5M@Z 0000000180098c20 f   GuContactPolygonPolygon.obj
 0001:00099390       ?findRotationMatrixFromZ@Gu@physx@@YA?AV?$PxMat33T@M@2@AEBV?$PxVec3T@M@2@@Z 000000018009a390 f   GuContactPolygonPolygon.obj
 0001:00099db0       ?contactSphereBox@Gu@physx@@YA_NAEBVPxGeometry@2@0AEBUPxTransformPadded@2@1AEBUNarrowPhaseParams@12@AEAUCache@12@AEAVPxContactBuffer@2@PEAVPxRenderOutput@2@@Z 000000018009adb0 f   GuContactSphereBox.obj
 0001:0009a370       ?contactSphereCapsule@Gu@physx@@YA_NAEBVPxGeometry@2@0AEBUPxTransformPadded@2@1AEBUNarrowPhaseParams@12@AEAUCache@12@AEAVPxContactBuffer@2@PEAVPxRenderOutput@2@@Z 000000018009b370 f   GuContactSphereCapsule.obj
 0001:0009b150       ?contactSphereHeightfield@Gu@physx@@YA_NAEBVPxGeometry@2@0AEBUPxTransformPadded@2@1AEBUNarrowPhaseParams@12@AEAUCache@12@AEAVPxContactBuffer@2@PEAVPxRenderOutput@2@@Z 000000018009c150 f   GuContactSphereMesh.obj
 0001:0009bb40       ?contactSphereMesh@Gu@physx@@YA_NAEBVPxGeometry@2@0AEBUPxTransformPadded@2@1AEBUNarrowPhaseParams@12@AEAUCache@12@AEAVPxContactBuffer@2@PEAVPxRenderOutput@2@@Z 000000018009cb40 f   GuContactSphereMesh.obj
 0001:0009de60       ?contactSpherePlane@Gu@physx@@YA_NAEBVPxGeometry@2@0AEBUPxTransformPadded@2@1AEBUNarrowPhaseParams@12@AEAUCache@12@AEAVPxContactBuffer@2@PEAVPxRenderOutput@2@@Z 000000018009ee60 f   GuContactSpherePlane.obj
 0001:0009e070       ?contactSphereSphere@Gu@physx@@YA_NAEBVPxGeometry@2@0AEBUPxTransformPadded@2@1AEBUNarrowPhaseParams@12@AEAUCache@12@AEAVPxContactBuffer@2@PEAVPxRenderOutput@2@@Z 000000018009f070 f   GuContactSphereSphere.obj
 0001:0009e1f0       ?contactCustomGeometryGeometry@Gu@physx@@YA_NAEBVPxGeometry@2@0AEBUPxTransformPadded@2@1AEBUNarrowPhaseParams@12@AEAUCache@12@AEAVPxContactBuffer@2@PEAVPxRenderOutput@2@@Z 000000018009f1f0 f   GuContactCustomGeometry.obj
 0001:0009e250       ?contactGeometryCustomGeometry@Gu@physx@@YA_NAEBVPxGeometry@2@0AEBUPxTransformPadded@2@1AEBUNarrowPhaseParams@12@AEAUCache@12@AEAVPxContactBuffer@2@PEAVPxRenderOutput@2@@Z 000000018009f250 f   GuContactCustomGeometry.obj
 0001:0009e310       ?selectNormal@Gu@physx@@YA_NEMM@Z 000000018009f310 f   GuFeatureCode.obj
 0001:0009e390       ??0BigConvexData@physx@@QEAA@XZ 000000018009f390 f   GuBigConvexData.obj
 0001:0009e3b0       ??1BigConvexData@physx@@QEAA@XZ 000000018009f3b0 f   GuBigConvexData.obj
 0001:0009e470       ?ComputeNearestOffset@BigConvexData@physx@@QEBAIAEBV?$PxVec3T@M@2@@Z 000000018009f470 f   GuBigConvexData.obj
 0001:0009e570       ?ComputeOffset@BigConvexData@physx@@QEBAIAEBV?$PxVec3T@M@2@@Z 000000018009f570 f   GuBigConvexData.obj
 0001:0009e670       ?CreateOffsets@BigConvexData@physx@@IEAAXXZ 000000018009f670 f   GuBigConvexData.obj
 0001:0009e6c0       ?Load@BigConvexData@physx@@QEAA_NAEAVPxInputStream@2@@Z 000000018009f6c0 f   GuBigConvexData.obj
 0001:0009e7d0       ?VLoad@BigConvexData@physx@@IEAA_NAEAVPxInputStream@2@@Z 000000018009f7d0 f   GuBigConvexData.obj
 0001:0009e970       ?exportExtraData@BigConvexData@physx@@QEAAXAEAVPxSerializationContext@2@@Z 000000018009f970 f   GuBigConvexData.obj
 0001:0009e9f0       ?importExtraData@BigConvexData@physx@@QEAAXAEAVPxDeserializationContext@2@@Z 000000018009f9f0 f   GuBigConvexData.obj
 0001:0009ea60       ?findUniqueConvexEdges@Gu@physx@@YAIIPEIAUConvexEdge@12@IPEIBUHullPolygonData@12@PEIBE@Z 000000018009fa60 f   GuConvexHelper.obj
 0001:0009eba0       ?getConvexData@Gu@physx@@YA_NAEBVPxConvexMeshGeometry@2@AEAVFastVertex2ShapeScaling@Cm@2@AEAVPxBounds3@2@AEAUPolygonalData@12@@Z 000000018009fba0 f   GuConvexHelper.obj
 0001:0009ee30       ?getScaledConvex@Gu@physx@@YAXAEAPEAV?$PxVec3T@M@2@AEAPEAEPEAV32@PEAE_NPEBV32@PEBEIAEBVFastVertex2ShapeScaling@Cm@2@@Z 000000018009fe30 f   GuConvexHelper.obj
 0001:0009ef60       ??0ConvexMesh@Gu@physx@@QEAA@PEAVMeshFactory@12@@Z 000000018009ff60 f   GuConvexMesh.obj
 0001:0009eff0       ??0ConvexMesh@Gu@physx@@QEAA@PEAVMeshFactory@12@AEAUConvexHullInitData@12@@Z 000000018009fff0 f   GuConvexMesh.obj
 0001:0009f130       ??_EConvexMesh@Gu@physx@@UEAAPEAXI@Z 00000001800a0130 f i GuConvexMesh.obj
 0001:0009f130       ??_GConvexMesh@Gu@physx@@UEAAPEAXI@Z 00000001800a0130 f i GuConvexMesh.obj
 0001:0009f240       ??_EPxBVH@physx@@MEAAPEAXI@Z 00000001800a0240 f i GuBVH.obj
 0001:0009f240       ??_EPxBase@physx@@MEAAPEAXI@Z 00000001800a0240 f i GuConvexMesh.obj
 0001:0009f240       ??_GPxBVH@physx@@MEAAPEAXI@Z 00000001800a0240 f i GuBVH.obj
 0001:0009f240       ??_GPxBase@physx@@MEAAPEAXI@Z 00000001800a0240 f i GuConvexMesh.obj
 0001:0009f270       ?acquireReference@ConvexMesh@Gu@physx@@UEAAXXZ 00000001800a0270 f   GuConvexMesh.obj
 0001:0009f270       ?acquireReference@HeightField@Gu@physx@@UEAAXXZ 00000001800a0270 f   GuHeightField.obj
 0001:0009f270       ?acquireReference@SoftBodyAuxData@Gu@physx@@UEAAXXZ 00000001800a0270 f   GuTetrahedronMesh.obj
 0001:0009f270       ?acquireReference@SoftBodyMesh@Gu@physx@@UEAAXXZ 00000001800a0270 f   GuTetrahedronMesh.obj
 0001:0009f270       ?acquireReference@TetrahedronMesh@Gu@physx@@UEAAXXZ 00000001800a0270 f   GuTetrahedronMesh.obj
 0001:0009f270       ?acquireReference@TriangleMesh@Gu@physx@@UEAAXXZ 00000001800a0270 f   GuTriangleMesh.obj
 0001:0009f740       ?createObject@ConvexMesh@Gu@physx@@SAPEAV123@AEAPEAEAEAVPxDeserializationContext@3@@Z 00000001800a0740 f   GuConvexMesh.obj
 0001:0009f860       ?exportExtraData@ConvexMesh@Gu@physx@@UEAAXAEAVPxSerializationContext@3@@Z 00000001800a0860 f   GuConvexMesh.obj
 0001:0009f960       ?getConcreteTypeName@PxConvexMesh@physx@@UEBAPEBDXZ 00000001800a0960 f i GuConvexMesh.obj
 0001:0009f970       ?getIndexBuffer@ConvexMesh@Gu@physx@@UEBAPEBEXZ 00000001800a0970 f i GuConvexMesh.obj
 0001:0009f9b0       ?getLocalBounds@ConvexMesh@Gu@physx@@UEBA?AVPxBounds3@3@XZ 00000001800a09b0 f   GuConvexMesh.obj
 0001:0009fa40       ?getMassInformation@ConvexMesh@Gu@physx@@UEBAXAEAMAEAV?$PxMat33T@M@3@AEAV?$PxVec3T@M@3@@Z 00000001800a0a40 f   GuConvexMesh.obj
 0001:0009fab0       ?getNbPolygons@ConvexMesh@Gu@physx@@UEBAIXZ 00000001800a0ab0 f i GuConvexMesh.obj
 0001:0009fac0       ?getNbVertices@ConvexMesh@Gu@physx@@UEBAIXZ 00000001800a0ac0 f i GuConvexMesh.obj
 0001:0009fad0       ?getPolygonData@ConvexMesh@Gu@physx@@UEBA_NIAEAUPxHullPolygon@3@@Z 00000001800a0ad0 f   GuConvexMesh.obj
 0001:0009fb20       ?getReferenceCount@ConvexMesh@Gu@physx@@UEBAIXZ 00000001800a0b20 f   GuConvexMesh.obj
 0001:0009fb20       ?getReferenceCount@HeightField@Gu@physx@@UEBAIXZ 00000001800a0b20 f   GuHeightField.obj
 0001:0009fb20       ?getReferenceCount@SoftBodyAuxData@Gu@physx@@UEBAIXZ 00000001800a0b20 f   GuTetrahedronMesh.obj
 0001:0009fb20       ?getReferenceCount@SoftBodyMesh@Gu@physx@@UEBAIXZ 00000001800a0b20 f   GuTetrahedronMesh.obj
 0001:0009fb20       ?getReferenceCount@TetrahedronMesh@Gu@physx@@UEBAIXZ 00000001800a0b20 f   GuTetrahedronMesh.obj
 0001:0009fb20       ?getReferenceCount@TriangleMesh@Gu@physx@@UEBAIXZ 00000001800a0b20 f   GuTriangleMesh.obj
 0001:0009fb20       ?length@DNameStatusNode@@UEBAHXZ 00000001800a0b20 f   libvcruntime:undname.obj
 0001:0009fb20       ?raw_length@DNameStatusNode@@UEBAHXZ 00000001800a0b20 f   libvcruntime:undname.obj
 0001:0009fb30       ?getSDF@ConvexMesh@Gu@physx@@UEBAPEBMXZ 00000001800a0b30 f   GuConvexMesh.obj
 0001:0009fb40       ?getVertices@ConvexMesh@Gu@physx@@UEBAPEBV?$PxVec3T@M@3@XZ 00000001800a0b40 f i GuConvexMesh.obj
 0001:0009fb60       ?isGpuCompatible@ConvexMesh@Gu@physx@@UEBA_NXZ 00000001800a0b60 f   GuConvexMesh.obj
 0001:0009fba0       ?isKindOf@PxBase@physx@@MEBA_NPEBD@Z 00000001800a0ba0 f i GuConvexMesh.obj
 0001:0009fbc0       ?isKindOf@PxConvexMesh@physx@@MEBA_NPEBD@Z 00000001800a0bc0 f i GuConvexMesh.obj
 0001:0009fc50       ?isReleasable@PxBase@physx@@UEBA_NXZ 00000001800a0c50 f i GuConvexMesh.obj
 0001:0009fc60       ?load@ConvexMesh@Gu@physx@@QEAA_NAEAVPxInputStream@3@@Z 00000001800a0c60 f   GuConvexMesh.obj
 0001:000a01e0       ?onRefCountZero@ConvexMesh@Gu@physx@@UEAAXXZ 00000001800a11e0 f   GuConvexMesh.obj
 0001:000a0310       ?release@ConvexMesh@Gu@physx@@UEAAXXZ 00000001800a1310 f   GuConvexMesh.obj
 0001:000a0310       ?release@HeightField@Gu@physx@@UEAAXXZ 00000001800a1310 f   GuHeightField.obj
 0001:000a0310       ?release@SoftBodyAuxData@Gu@physx@@UEAAXXZ 00000001800a1310 f   GuTetrahedronMesh.obj
 0001:000a0310       ?release@SoftBodyMesh@Gu@physx@@UEAAXXZ 00000001800a1310 f   GuTetrahedronMesh.obj
 0001:000a0310       ?release@TetrahedronMesh@Gu@physx@@UEAAXXZ 00000001800a1310 f   GuTetrahedronMesh.obj
 0001:000a0310       ?release@TriangleMesh@Gu@physx@@UEAAXXZ 00000001800a1310 f   GuTriangleMesh.obj
 0001:000a0340       ??Dphysx@@YA?AV?$PxMat34T@M@0@AEBVPxMeshScale@0@AEBV10@@Z 00000001800a1340 f i GuConvexUtilsInternal.obj
 0001:000a08e0       ?computeHullOBB@Gu@physx@@YAXAEAVBox@12@AEBVPxBounds3@2@MAEBV?$PxMat34T@M@2@2AEBVFastVertex2ShapeScaling@Cm@2@_N@Z 00000001800a18e0 f   GuConvexUtilsInternal.obj
 0001:000a0d90       ?computeOBBAroundConvex@Gu@physx@@YAXAEAVBox@12@AEBVPxConvexMeshGeometry@2@PEBVPxConvexMesh@2@AEBV?$PxTransformT@M@2@@Z 00000001800a1d90 f   GuConvexUtilsInternal.obj
 0001:000a1600       ?computeVertexSpaceOBB@Gu@physx@@YAXAEAVBox@12@AEBV312@AEBV?$PxTransformT@M@2@AEBVPxMeshScale@2@@Z 00000001800a2600 f   GuConvexUtilsInternal.obj
 0001:000a1930       ?transform@physx@@YA?AVBox@Gu@1@AEBV?$PxMat34T@M@1@AEBV231@@Z 00000001800a2930 f i GuConvexUtilsInternal.obj
 0001:000a1b80       ?localSearch@physx@@YAXAEAIAEBV?$PxVec3T@M@1@PEBV21@PEBUBigConvexRawData@Gu@1@@Z 00000001800a2b80 f   GuHillClimbing.obj
 0001:000a1cb0       ??0PCMPolygonalBox@Gu@physx@@QEAA@AEBV?$PxVec3T@M@2@@Z 00000001800a2cb0 f   GuPCMShapeConvex.obj
 0001:000a1cb0       ??0PolygonalBox@Gu@physx@@QEAA@AEBV?$PxVec3T@M@2@@Z 00000001800a2cb0 f   GuShapeConvex.obj
 0001:000a3170       ?getPolygonalData@PolygonalBox@Gu@physx@@QEBAXPEIAUPolygonalData@23@@Z 00000001800a4170 f   GuShapeConvex.obj
 0001:000a31e0       ?getPolygonalData_Convex@Gu@physx@@YAXPEIAUPolygonalData@12@PEIBUConvexHullData@12@AEBVFastVertex2ShapeScaling@Cm@2@@Z 00000001800a41e0 f   GuShapeConvex.obj
 0001:000a3350       ?distancePointBoxSquared@Gu@physx@@YAMAEBV?$PxVec3T@M@2@00AEBV?$PxMat33T@M@2@PEAV32@@Z 00000001800a4350 f   GuDistancePointBox.obj
 0001:000a34a0       ?closestPtPointTriangle@Gu@physx@@YA?AV?$PxVec3T@M@2@AEBV32@000AEAM1@Z 00000001800a44a0 f   GuDistancePointTriangle.obj
 0001:000a39c0       ?distancePointTriangleSquared2UnitBox@Gu@physx@@YA?AT__m128@@AEBT3@000AEAT3@11@Z 00000001800a49c0 f   GuDistancePointTriangle.obj
 0001:000a3ae0       ?distancePointTriangleSquared@Gu@physx@@YA?AT__m128@@AEBT3@000AEAT3@11@Z 00000001800a4ae0 f   GuDistancePointTriangle.obj
 0001:000a4830       ?distanceSegmentBoxSquared@Gu@physx@@YAMAEBV?$PxVec3T@M@2@000AEBV?$PxMat33T@M@2@PEAMPEAV32@@Z 00000001800a5830 f   GuDistanceSegmentBox.obj
 0001:000a50b0       ?distanceSegmentSegmentSquared4@Gu@physx@@YA?AT__m128@@AEBT3@000000000AEAT3@1@Z 00000001800a60b0 f   GuDistanceSegmentSegment.obj
 0001:000a53c0       ?distanceSegmentSegmentSquared@Gu@physx@@YA?AT__m128@@AEBT3@000AEAT3@1@Z 00000001800a63c0 f   GuDistanceSegmentSegment.obj
 0001:000a5580       ?distanceSegmentSegmentSquared@Gu@physx@@YAMAEBV?$PxVec3T@M@2@000PEAM1@Z 00000001800a6580 f   GuDistanceSegmentSegment.obj
 0001:000a5810       ?distanceSegmentSegmentSquared@Gu@physx@@YAMAEBV?$PxVec3T@M@2@0M00MPEAM1@Z 00000001800a6810 f   GuDistanceSegmentSegment.obj
 0001:000a5f50       ?distanceSegmentTriangleSquared@Gu@physx@@YA?AT__m128@@AEBT3@0000AEAT3@1@Z 00000001800a6f50 f   GuDistanceSegmentTriangle.obj
 0001:000a6690       ?distanceSegmentTriangleSquared@Gu@physx@@YAMAEBV?$PxVec3T@M@2@0000PEAM11@Z 00000001800a7690 f   GuDistanceSegmentTriangle.obj
 0001:000a7d00       ?distanceTriangleTriangleSquared@Gu@physx@@YAMAEAV?$PxVec3T@M@2@0QEBVPxVec3Padded@2@1@Z 00000001800a8d00 f   GuDistanceTriangleTriangle.obj
 0001:000a8820       ?closestPtPointTetrahedron@Gu@physx@@YA?AV?$PxVec3T@M@2@AEBV32@0000AEBV?$PxVec4T@M@2@@Z 00000001800a9820 f   GuDistancePointTetrahedron.obj
 0001:000a9910       ?PenetrationDepth@EPA@Gu@physx@@QEAA?AW4GjkStatus@23@AEBUGjkConvex@23@0PEIBT__m128@@1E_NT6@AEAUGjkOutput@23@@Z 00000001800aa910 f   GuEPA.obj
 0001:000aa430       ?addFacet@EPA@Gu@physx@@QEAAPEAVFacet@23@IIIAEBT__m128@@@Z 00000001800ab430 f   GuEPA.obj
 0001:000aa860       ?epaPenetration@Gu@physx@@YA?AW4GjkStatus@12@AEBUGjkConvex@12@0PEIBE1E_NT__m128@@AEAUGjkOutput@12@@Z 00000001800ab860 f   GuEPA.obj
 0001:000aa9d0       ?epaPenetration@Gu@physx@@YA?AW4GjkStatus@12@AEBUGjkConvex@12@0PEIBT__m128@@1E_NT5@AEAUGjkOutput@12@@Z 00000001800ab9d0 f   GuEPA.obj
 0001:000aaa80       ?silhouette@Facet@Gu@physx@@QEAAXAEBT__m128@@PEIBT4@1AEAVEdgeBuffer@23@AEAV?$InlineDeferredIDPool@$0EA@@Cm@3@@Z 00000001800aba80 f   GuEPA.obj
 0001:000aac50       ?closestPtPointTetrahedron@Gu@physx@@YA?AT__m128@@PEIAT3@00AEAI@Z 00000001800abc50 f   GuGJKSimplex.obj
 0001:000ab3d0       ?closestPtPointTetrahedron@Gu@physx@@YA?AT__m128@@PEIAT3@00PEIAH1AEAI@Z 00000001800ac3d0 f   GuGJKSimplex.obj
 0001:000ace60       ??$gjk@UGjkConvex@Gu@physx@@U123@@Gu@physx@@YA?AW4GjkStatus@01@AEBUGjkConvex@01@0AEBT__m128@@1AEAT4@222@Z 00000001800ade60 f i GuGJKTest.obj
 0001:000ada80       ??$gjkPenetration@UGjkConvex@Gu@physx@@U123@@Gu@physx@@YA?AW4GjkStatus@01@AEBUGjkConvex@01@0AEBT__m128@@1_NPEIAE3AEAEAEAUGjkOutput@01@@Z 00000001800aea80 f i GuGJKTest.obj
 0001:000adaf0       ??$gjkPenetration@UGjkConvex@Gu@physx@@U123@@Gu@physx@@YA?AW4GjkStatus@01@AEBUGjkConvex@01@0AEBT__m128@@1_NPEIAE3PEIAT4@4AEAEAEAUGjkOutput@01@@Z 00000001800aeaf0 f i GuGJKTest.obj
 0001:000aef70       ??$gjkRaycast@UGjkConvex@Gu@physx@@U123@@Gu@physx@@YA_NAEBUGjkConvex@01@0AEBT__m128@@111AEAT3@22M@Z 00000001800aff70 f i GuGJKTest.obj
 0001:000afaf0       ?testEpaPenetration@Gu@physx@@YA?AW4GjkStatus@12@AEBUGjkConvex@12@0PEBE1EAEAUGjkOutput@12@@Z 00000001800b0af0 f   GuGJKTest.obj
 0001:000afb40       ?testGjk@Gu@physx@@YA?AW4GjkStatus@12@AEBUGjkConvex@12@0AEBT__m128@@1AEAT5@222@Z 00000001800b0b40 f   GuGJKTest.obj
 0001:000afb50       ?testGjkPenetration@Gu@physx@@YA?AW4GjkStatus@12@AEBUGjkConvex@12@0AEBT__m128@@1PEAE2AEAEAEAUGjkOutput@12@@Z 00000001800b0b50 f   GuGJKTest.obj
 0001:000afba0       ?testGjkRaycast@Gu@physx@@YA_NAEBUGjkConvex@12@0AEBT__m128@@111AEAT4@22M@Z 00000001800b0ba0 f   GuGJKTest.obj
 0001:000afbb0       ??0HeightField@Gu@physx@@QEAA@PEAVMeshFactory@12@@Z 00000001800b0bb0 f   GuHeightField.obj
 0001:000afc00       ??0HeightField@Gu@physx@@QEAA@PEAVMeshFactory@12@AEAUHeightFieldData@12@@Z 00000001800b0c00 f   GuHeightField.obj
 0001:000afcb0       ??1HeightField@Gu@physx@@UEAA@XZ 00000001800b0cb0 f   GuHeightField.obj
 0001:000afd30       ??_EHeightField@Gu@physx@@UEAAPEAXI@Z 00000001800b0d30 f i GuHeightField.obj
 0001:000afd30       ??_GHeightField@Gu@physx@@UEAAPEAXI@Z 00000001800b0d30 f i GuHeightField.obj
 0001:000afde0       ?computeCellCoordinates@HeightField@Gu@physx@@QEBAIMMAEAM0@Z 00000001800b0de0 f   GuHeightField.obj
 0001:000aff00       ?createObject@HeightField@Gu@physx@@SAPEAV123@AEAPEAEAEAVPxDeserializationContext@3@@Z 00000001800b0f00 f   GuHeightField.obj
 0001:000aff50       ?exportExtraData@HeightField@Gu@physx@@UEAAXAEAVPxSerializationContext@3@@Z 00000001800b0f50 f   GuHeightField.obj
 0001:000affa0       ?getConcreteTypeName@PxHeightField@physx@@UEBAPEBDXZ 00000001800b0fa0 f i GuHeightField.obj
 0001:000affb0       ?getConvexEdgeThreshold@HeightField@Gu@physx@@UEBAMXZ 00000001800b0fb0 f i GuHeightField.obj
 0001:000affc0       ?getFlags@HeightField@Gu@physx@@UEBA?AV?$PxFlags@W4Enum@PxHeightFieldFlag@physx@@G@3@XZ 00000001800b0fc0 f i GuHeightField.obj
 0001:000affd0       ?getFormat@HeightField@Gu@physx@@UEBA?AW4Enum@PxHeightFieldFormat@3@XZ 00000001800b0fd0 f i GuHeightField.obj
 0001:000affe0       ?getHeight@HeightField@Gu@physx@@UEBAMMM@Z 00000001800b0fe0 f i GuHeightField.obj
 0001:000b0100       ?getNbColumns@HeightField@Gu@physx@@UEBAIXZ 00000001800b1100 f i GuHeightField.obj
 0001:000b0110       ?getNbBounds@BVH@Gu@physx@@UEBAIXZ 00000001800b1110 f i GuBVH.obj
 0001:000b0110       ?getNbPrimitives@SourceMesh@Gu@physx@@UEBAIXZ 00000001800b1110 f i GuBV4.obj
 0001:000b0110       ?getNbPrimitives@TetrahedronSourceMesh@Gu@physx@@UEBAIXZ 00000001800b1110 f i GuBV4.obj
 0001:000b0110       ?getNbRows@HeightField@Gu@physx@@UEBAIXZ 00000001800b1110 f i GuHeightField.obj
 0001:000b0120       ?getSample@HeightField@Gu@physx@@UEBAAEBUPxHeightFieldSample@3@II@Z 00000001800b1120 f i GuHeightField.obj
 0001:000b0130       ?getSampleStride@HeightField@Gu@physx@@UEBAIXZ 00000001800b1130 f i GuHeightField.obj
 0001:000b0140       ?getTimestamp@HeightField@Gu@physx@@UEBAIXZ 00000001800b1140 f i GuHeightField.obj
 0001:000b0150       ?getTriangleMaterialIndex@HeightField@Gu@physx@@UEBAGI@Z 00000001800b1150 f i GuHeightField.obj
 0001:000b0180       ?getTriangleNormal@HeightField@Gu@physx@@UEBA?AV?$PxVec3T@M@3@I@Z 00000001800b1180 f i GuHeightField.obj
 0001:000b01a0       ?getTriangleNormalInternal@HeightField@Gu@physx@@QEBA?AV?$PxVec3T@M@3@I@Z 00000001800b11a0 f i GuHeightField.obj
 0001:000b02f0       ?isKindOf@PxHeightField@physx@@MEBA_NPEBD@Z 00000001800b12f0 f i GuHeightField.obj
 0001:000b0380       ?load@HeightField@Gu@physx@@QEAA_NAEAVPxInputStream@3@@Z 00000001800b1380 f   GuHeightField.obj
 0001:000b06e0       ?loadFromDesc@HeightField@Gu@physx@@QEAA_NAEBVPxHeightFieldDesc@3@@Z 00000001800b16e0 f   GuHeightField.obj
 0001:000b08e0       ?modifySamples@HeightField@Gu@physx@@UEAA_NHHAEBVPxHeightFieldDesc@3@_N@Z 00000001800b18e0 f   GuHeightField.obj
 0001:000b0c70       ?onRefCountZero@HeightField@Gu@physx@@UEAAXXZ 00000001800b1c70 f   GuHeightField.obj
 0001:000b0d40       ?releaseMemory@HeightField@Gu@physx@@QEAAXXZ 00000001800b1d40 f   GuHeightField.obj
 0001:000b0d90       ?save@HeightField@Gu@physx@@QEAA_NAEAVPxOutputStream@3@_N@Z 00000001800b1d90 f   GuHeightField.obj
 0001:000b0fd0       ?saveCells@HeightField@Gu@physx@@UEBAIPEAXI@Z 00000001800b1fd0 f   GuHeightField.obj
 0001:000b1010       ?computeLocalBounds@HeightFieldUtil@Gu@physx@@QEBAXAEAVPxBounds3@3@@Z 00000001800b2010 f   GuHeightFieldUtil.obj
 0001:000b14e0       ?getTriangle@HeightFieldUtil@Gu@physx@@QEBAIAEBV?$PxTransformT@M@3@AEAVPxTriangle@3@PEAI2I_N3@Z 00000001800b24e0 f   GuHeightFieldUtil.obj
 0001:000b1fe0       ?getTriangleAdjacencyIndices@HeightField@Gu@physx@@QEBAXIIIIAEAI00@Z 00000001800b2fe0 f i GuHeightFieldUtil.obj
 0001:000b2190       ?getTriangleVertexIndices@HeightField@Gu@physx@@QEBAXIAEAI00@Z 00000001800b3190 f i GuHeightFieldUtil.obj
 0001:000b2250       ?overlapAABBTriangles@HeightFieldUtil@Gu@physx@@QEBAXAEBVPxBounds3@3@AEAVOverlapReport@23@I@Z 00000001800b3250 f   GuHeightFieldUtil.obj
 0001:000b26b0       ??$gjk@U?$RelativeConvex@VTriangleV@Gu@physx@@@Gu@physx@@U?$LocalConvex@VConvexHullV@Gu@physx@@@23@@Gu@physx@@YA?AW4GjkStatus@01@AEBU?$RelativeConvex@VTriangleV@Gu@physx@@@01@AEBU?$LocalConvex@VConvexHullV@Gu@physx@@@01@AEBT__m128@@2AEAT5@333@Z 00000001800b36b0 f i GuOverlapTestsHF.obj
 0001:000b35f0       ?GeomOverlapCallback_BoxHeightfield@@YA_NAEBVPxGeometry@physx@@AEBV?$PxTransformT@M@2@01PEAUTriggerCache@Gu@2@PEAUPxQueryThreadContext@2@@Z 00000001800b45f0 f   GuOverlapTestsHF.obj
 0001:000b3b50       ?GeomOverlapCallback_CapsuleHeightfield@@YA_NAEBVPxGeometry@physx@@AEBV?$PxTransformT@M@2@01PEAUTriggerCache@Gu@2@PEAUPxQueryThreadContext@2@@Z 00000001800b4b50 f   GuOverlapTestsHF.obj
 0001:000b4150       ?GeomOverlapCallback_ConvexHeightfield@@YA_NAEBVPxGeometry@physx@@AEBV?$PxTransformT@M@2@01PEAUTriggerCache@Gu@2@PEAUPxQueryThreadContext@2@@Z 00000001800b5150 f   GuOverlapTestsHF.obj
 0001:000b4bb0       ?GeomOverlapCallback_SphereHeightfield@@YA_NAEBVPxGeometry@physx@@AEBV?$PxTransformT@M@2@01PEAUTriggerCache@Gu@2@PEAUPxQueryThreadContext@2@@Z 00000001800b5bb0 f   GuOverlapTestsHF.obj
 0001:000b5770       ??$gjkRaycast@U?$LocalConvex@VTriangleV@Gu@physx@@@Gu@physx@@U?$LocalConvex@VConvexHullV@Gu@physx@@@23@@Gu@physx@@YA_NAEBU?$LocalConvex@VTriangleV@Gu@physx@@@01@AEBU?$LocalConvex@VConvexHullV@Gu@physx@@@01@AEBT__m128@@222AEAT4@33M@Z 00000001800b6770 f i GuSweepsHF.obj
 0001:000b6550       ??$traceSegment@VBoxTraceSegmentReport@@$0A@$00@HeightFieldTraceUtil@Gu@physx@@QEBAXAEBV?$PxVec3T@M@2@0MPEAVBoxTraceSegmentReport@@AEBVPxBounds3@2@_NPEBV32@@Z 00000001800b7550 f i GuSweepsHF.obj
 0001:000b6550       ??$traceSegment@VCapsuleTraceSegmentReport@@$0A@$00@HeightFieldTraceUtil@Gu@physx@@QEBAXAEBV?$PxVec3T@M@2@0MPEAVCapsuleTraceSegmentReport@@AEBVPxBounds3@2@_NPEBV32@@Z 00000001800b7550 f i GuSweepsHF.obj
 0001:000b6550       ??$traceSegment@VConvexTraceSegmentReport@@$0A@$00@HeightFieldTraceUtil@Gu@physx@@QEBAXAEBV?$PxVec3T@M@2@0MPEAVConvexTraceSegmentReport@@AEBVPxBounds3@2@_NPEBV32@@Z 00000001800b7550 f i GuSweepsHF.obj
 0001:000b6d20       ??0ConvexTraceSegmentReport@@QEAA@AEBVHeightFieldUtil@Gu@physx@@AEBUConvexHullData@23@AEBVPxMeshScale@3@AEBV?$PxTransformT@M@3@3AEBV?$PxVec3T@M@3@MV?$PxFlags@W4Enum@PxHitFlag@physx@@G@3@M@Z 00000001800b7d20 f i GuSweepsHF.obj
 0001:000b76a0       ??_EBoxTraceSegmentReport@@UEAAPEAXI@Z 00000001800b86a0 f i GuSweepsHF.obj
 0001:000b76a0       ??_GBoxTraceSegmentReport@@UEAAPEAXI@Z 00000001800b86a0 f i GuSweepsHF.obj
 0001:000b76d0       ??_ECapsuleTraceSegmentReport@@UEAAPEAXI@Z 00000001800b86d0 f i GuSweepsHF.obj
 0001:000b76d0       ??_GCapsuleTraceSegmentReport@@UEAAPEAXI@Z 00000001800b86d0 f i GuSweepsHF.obj
 0001:000b7700       ??_EConvexTraceSegmentReport@@UEAAPEAXI@Z 00000001800b8700 f i GuSweepsHF.obj
 0001:000b7700       ??_GConvexTraceSegmentReport@@UEAAPEAXI@Z 00000001800b8700 f i GuSweepsHF.obj
 0001:000b7730       ??_EHeightFieldTraceSegmentReport@@UEAAPEAXI@Z 00000001800b8730 f i GuSweepsHF.obj
 0001:000b7730       ??_GHeightFieldTraceSegmentReport@@UEAAPEAXI@Z 00000001800b8730 f i GuSweepsHF.obj
 0001:000b7760       ?finalizeHit@ConvexTraceSegmentReport@@QEAA_NAEAUPxGeomSweepHit@physx@@AEBVPxHeightFieldGeometry@3@AEBV?$PxTransformT@M@3@AEBVPxConvexMeshGeometry@3@2AEBV?$PxVec3T@M@3@M@Z 00000001800b8760 f i GuSweepsHF.obj
 0001:000b7990       ?onEvent@BoxTraceSegmentReport@@UEAA_NIPEBI@Z 00000001800b8990 f i GuSweepsHF.obj
 0001:000b7de0       ?onEvent@CapsuleTraceSegmentReport@@UEAA_NIPEBI@Z 00000001800b8de0 f i GuSweepsHF.obj
 0001:000b8010       ?onEvent@ConvexTraceSegmentReport@@UEAA_NIPEBI@Z 00000001800b9010 f i GuSweepsHF.obj
 0001:000b85d0       ?prepare@?$OverlapTraceSegment@VBoxTraceSegmentReport@@@HeightFieldTraceUtil@Gu@physx@@QEAAXAEBV?$PxVec3T@M@4@00AEAM1@Z 00000001800b95d0 f i GuSweepsHF.obj
 0001:000b85d0       ?prepare@?$OverlapTraceSegment@VCapsuleTraceSegmentReport@@@HeightFieldTraceUtil@Gu@physx@@QEAAXAEBV?$PxVec3T@M@4@00AEAM1@Z 00000001800b95d0 f i GuSweepsHF.obj
 0001:000b85d0       ?prepare@?$OverlapTraceSegment@VConvexTraceSegmentReport@@@HeightFieldTraceUtil@Gu@physx@@QEAAXAEBV?$PxVec3T@M@4@00AEAM1@Z 00000001800b95d0 f i GuSweepsHF.obj
 0001:000b8890       ?sweepBox_HeightFieldGeom@@YA_NAEBVPxGeometry@physx@@AEBV?$PxTransformT@M@2@AEBVPxBoxGeometry@2@1AEBVBox@Gu@2@AEBV?$PxVec3T@M@2@MAEAUPxGeomSweepHit@2@V?$PxFlags@W4Enum@PxHitFlag@physx@@G@2@MPEAUPxQueryThreadContext@2@@Z 00000001800b9890 f   GuSweepsHF.obj
 0001:000b96e0       ?sweepCapsule_HeightFieldGeom@@YA_NAEBVPxGeometry@physx@@AEBV?$PxTransformT@M@2@AEBVPxCapsuleGeometry@2@1AEBVCapsule@Gu@2@AEBV?$PxVec3T@M@2@MAEAUPxGeomSweepHit@2@V?$PxFlags@W4Enum@PxHitFlag@physx@@G@2@MPEAUPxQueryThreadContext@2@@Z 00000001800ba6e0 f   GuSweepsHF.obj
 0001:000ba030       ?sweepConvex_HeightFieldGeom@@YA_NAEBVPxGeometry@physx@@AEBV?$PxTransformT@M@2@AEBVPxConvexMeshGeometry@2@1AEBV?$PxVec3T@M@2@MAEAUPxGeomSweepHit@2@V?$PxFlags@W4Enum@PxHitFlag@physx@@G@2@MPEAUPxQueryThreadContext@2@@Z 00000001800bb030 f   GuSweepsHF.obj
 0001:000baa00       ?testVertexIndex@?$OverlapTraceSegment@VBoxTraceSegmentReport@@@HeightFieldTraceUtil@Gu@physx@@QEAA_NI@Z 00000001800bba00 f i GuSweepsHF.obj
 0001:000baa00       ?testVertexIndex@?$OverlapTraceSegment@VCapsuleTraceSegmentReport@@@HeightFieldTraceUtil@Gu@physx@@QEAA_NI@Z 00000001800bba00 f i GuSweepsHF.obj
 0001:000baa00       ?testVertexIndex@?$OverlapTraceSegment@VConvexTraceSegmentReport@@@HeightFieldTraceUtil@Gu@physx@@QEAA_NI@Z 00000001800bba00 f i GuSweepsHF.obj
 0001:000bab60       ?transformFast@PxBounds3@physx@@SA?AV12@AEBV?$PxTransformT@M@2@AEBV12@@Z 00000001800bbb60 f i GuSweepsHF.obj
 0001:000baf40       ?visitCells@?$OverlapTraceSegment@VBoxTraceSegmentReport@@@HeightFieldTraceUtil@Gu@physx@@QEAA_NAEBUOverlapRectangle@1234@@Z 00000001800bbf40 f i GuSweepsHF.obj
 0001:000baf40       ?visitCells@?$OverlapTraceSegment@VCapsuleTraceSegmentReport@@@HeightFieldTraceUtil@Gu@physx@@QEAA_NAEBUOverlapRectangle@1234@@Z 00000001800bbf40 f i GuSweepsHF.obj
 0001:000baf40       ?visitCells@?$OverlapTraceSegment@VConvexTraceSegmentReport@@@HeightFieldTraceUtil@Gu@physx@@QEAA_NAEBUOverlapRectangle@1234@@Z 00000001800bbf40 f i GuSweepsHF.obj
 0001:000bb130       ?intersectOBBOBB@Gu@physx@@YA_NAEBV?$PxVec3T@M@2@0AEBV?$PxMat33T@M@2@001_N@Z 00000001800bc130 f   GuIntersectionBoxBox.obj
 0001:000bb780       ?intersectCapsuleTriangle@Gu@physx@@YA_NAEBV?$PxVec3T@M@2@000AEBVCapsule@12@AEBUCapsuleTriangleOverlapData@12@@Z 00000001800bc780 f   GuIntersectionCapsuleTriangle.obj
 0001:000bc370       ?intersectEdgeEdge@Gu@physx@@YA_NAEBV?$PxVec3T@M@2@0000AEAMAEAV32@@Z 00000001800bd370 f   GuIntersectionEdgeEdge.obj
 0001:000bc690       ?intersectRayAABB2@Gu@physx@@YA_NAEBT__m128@@0000AEAT3@1@Z 00000001800bd690 f   GuIntersectionRayBox.obj
 0001:000bc750       ?intersectRayAABB2@Gu@physx@@YA_NAEBV?$PxVec3T@M@2@000MAEAM1@Z 00000001800bd750 f   GuIntersectionRayBox.obj
 0001:000bc900       ?intersectRayAABB@Gu@physx@@YAHAEBV?$PxVec3T@M@2@000AEAM1@Z 00000001800bd900 f   GuIntersectionRayBox.obj
 0001:000bca10       ?rayAABBIntersect2@Gu@physx@@YAIAEBV?$PxVec3T@M@2@000AEAV32@AEAM@Z 00000001800bda10 f   GuIntersectionRayBox.obj
 0001:000bcc10       ?intersectRayCapsuleInternal@Gu@physx@@YAIAEBV?$PxVec3T@M@2@000MQEAM@Z 00000001800bdc10 f   GuIntersectionRayCapsule.obj
 0001:000bd0d0       ?intersectRaySphere@Gu@physx@@YA_NAEBV?$PxVec3T@M@2@0M0MAEAMPEAV32@@Z 00000001800be0d0 f   GuIntersectionRaySphere.obj
 0001:000bd1c0       ?intersectRaySphereBasic@Gu@physx@@YA_NAEBV?$PxVec3T@M@2@0M0MAEAMPEAV32@@Z 00000001800be1c0 f   GuIntersectionRaySphere.obj
 0001:000bd320       ?intersectSphereBox@Gu@physx@@YA_NAEBVSphere@12@AEBVBox@12@@Z 00000001800be320 f   GuIntersectionSphereBox.obj
 0001:000bd550       ?intersectTetrahedronBox@Gu@physx@@YA_NAEBV?$PxVec3T@M@2@000AEBVPxBounds3@2@@Z 00000001800be550 f   GuIntersectionTetrahedronBox.obj
 0001:000bd920       ?intersectTriangleBox@Gu@physx@@YAHAEBVBoxPadded@12@AEBV?$PxVec3T@M@2@11@Z 00000001800be920 f   GuIntersectionTriangleBox.obj
 0001:000bdef0       ?intersectTriangleBoxBV4@@YAHAEBV?$PxVec3T@M@physx@@00AEBV?$PxMat33T@M@2@00@Z 00000001800beef0 f   GuIntersectionTriangleBox.obj
 0001:000be330       ?intersectTriangleBox_ReferenceCode@Gu@physx@@YAHAEBV?$PxVec3T@M@2@0000@Z 00000001800bf330 f   GuIntersectionTriangleBox.obj
 0001:000beb00       ?intersectTriangleBox_Unsafe@Gu@physx@@YAHAEBV?$PxVec3T@M@2@0000@Z 00000001800bfb00 f   GuIntersectionTriangleBox.obj
 0001:000beec0       ?intersectTriangleTriangle@Gu@physx@@YA_NAEBV?$PxVec3T@M@2@00000_N@Z 00000001800bfec0 f   GuIntersectionTriangleTriangle.obj
 0001:000c02d0       ??0BV4Tree@Gu@physx@@QEAA@W4PxEMPTY@2@@Z 00000001800c12d0 f   GuBV4.obj
 0001:000c02e0       ??0BV4Tree@Gu@physx@@QEAA@XZ 00000001800c12e0 f   GuBV4.obj
 0001:000c0310       ??0SourceMesh@Gu@physx@@QEAA@XZ 00000001800c1310 f   GuBV4.obj
 0001:000c0340       ??0TetrahedronSourceMesh@Gu@physx@@QEAA@XZ 00000001800c1340 f   GuBV4.obj
 0001:000c0370       ??1BV4Tree@Gu@physx@@QEAA@XZ 00000001800c1370 f   GuBV4.obj
 0001:000c03d0       ??1SourceMesh@Gu@physx@@UEAA@XZ 00000001800c13d0 f   GuBV4.obj
 0001:000c03d0       ??1TetrahedronSourceMesh@Gu@physx@@UEAA@XZ 00000001800c13d0 f   GuBV4.obj
 0001:000c0420       ??4BV4Tree@Gu@physx@@QEAAXAEAV012@@Z 00000001800c1420 f   GuBV4.obj
 0001:000c04b0       ??4SourceMesh@Gu@physx@@QEAAXAEAV012@@Z 00000001800c14b0 f   GuBV4.obj
 0001:000c0500       ??_ESourceMesh@Gu@physx@@UEAAPEAXI@Z 00000001800c1500 f i GuBV4.obj
 0001:000c0500       ??_ETetrahedronSourceMesh@Gu@physx@@UEAAPEAXI@Z 00000001800c1500 f i GuBV4.obj
 0001:000c0500       ??_GSourceMesh@Gu@physx@@UEAAPEAXI@Z 00000001800c1500 f i GuBV4.obj
 0001:000c0500       ??_GTetrahedronSourceMesh@Gu@physx@@UEAAPEAXI@Z 00000001800c1500 f i GuBV4.obj
 0001:000c05a0       ??_ESourceMeshBase@Gu@physx@@UEAAPEAXI@Z 00000001800c15a0 f i GuBV4.obj
 0001:000c05a0       ??_GSourceMeshBase@Gu@physx@@UEAAPEAXI@Z 00000001800c15a0 f i GuBV4.obj
 0001:000c0640       ?exportExtraData@BV4Tree@Gu@physx@@QEAAXAEAVPxSerializationContext@3@@Z 00000001800c1640 f   GuBV4.obj
 0001:000c06a0       ?getPrimitiveBox@SourceMesh@Gu@physx@@UEAAXIAEAT__m128@@0@Z 00000001800c16a0 f   GuBV4.obj
 0001:000c0740       ?getPrimitiveBox@TetrahedronSourceMesh@Gu@physx@@UEAAXIAEAT__m128@@0@Z 00000001800c1740 f   GuBV4.obj
 0001:000c0800       ?importExtraData@BV4Tree@Gu@physx@@QEAAXAEAVPxDeserializationContext@3@@Z 00000001800c1800 f   GuBV4.obj
 0001:000c0850       ?init@BV32Tree@Gu@physx@@QEAA_NPEAVSourceMeshBase@23@AEBVPxBounds3@3@@Z 00000001800c1850 f   GuBV32.obj
 0001:000c0850       ?init@BV4Tree@Gu@physx@@QEAA_NPEAVSourceMeshBase@23@AEBVPxBounds3@3@@Z 00000001800c1850 f   GuBV4.obj
 0001:000c08f0       ?load@BV4Tree@Gu@physx@@QEAA_NAEAVPxInputStream@3@_N@Z 00000001800c18f0 f   GuBV4.obj
 0001:000c0b30       ?refit@BV4Tree@Gu@physx@@QEAA_NAEAVPxBounds3@3@M@Z 00000001800c1b30 f   GuBV4.obj
 0001:000c11a0       ?refit@SourceMesh@Gu@physx@@UEAAXIAEAVPxBounds3@3@@Z 00000001800c21a0 f   GuBV4.obj
 0001:000c1340       ?refit@TetrahedronSourceMesh@Gu@physx@@UEAAXIAEAVPxBounds3@3@@Z 00000001800c2340 f   GuBV4.obj
 0001:000c1560       ?remapTopology@SourceMesh@Gu@physx@@UEAAXPEBI@Z 00000001800c2560 f   GuBV4.obj
 0001:000c17f0       ?remapTopology@TetrahedronSourceMesh@Gu@physx@@UEAAXPEBI@Z 00000001800c27f0 f   GuBV4.obj
 0001:000c1a70       ??0BV4_AABBTree@Gu@physx@@QEAA@XZ 00000001800c2a70 f   GuBV4Build.obj
 0001:000c1a80       ??0BVData@@QEAA@XZ         00000001800c2a80 f   GuBV4Build.obj
 0001:000c1ab0       ??0BuildStats@Gu@physx@@QEAA@XZ 00000001800c2ab0 f i GuBV4Build.obj
 0001:000c1ac0       ??1BV4_AABBTree@Gu@physx@@QEAA@XZ 00000001800c2ac0 f   GuBV4Build.obj
 0001:000c1ad0       ??4BuildStats@Gu@physx@@QEAAAEAU012@$$QEAU012@@Z 00000001800c2ad0 f i GuBV4Build.obj
 0001:000c1ae0       ??4BuildStats@Gu@physx@@QEAAAEAU012@AEBU012@@Z 00000001800c2ae0 f i GuBV4Build.obj
 0001:000c1af0       ?BuildBV4Ex@Gu@physx@@YA_NAEAVBV4Tree@12@AEAVSourceMeshBase@12@MI_NW4BV4_BuildStrategy@12@@Z 00000001800c2af0 f   GuBV4Build.obj
 0001:000c29c0       ?allocateNode@BV4BuildParams@@QEAAPEAUBV4Node@@XZ 00000001800c39c0 f   GuBV4Build.obj
 0001:000c2e30       ?buildFromMesh@BV4_AABBTree@Gu@physx@@QEAA_NAEAVSourceMeshBase@23@IW4BV4_BuildStrategy@23@@Z 00000001800c3e30 f   GuBV4Build.obj
 0001:000c3c90       ?getCount@BuildStats@Gu@physx@@QEBAIXZ 00000001800c4c90 f i GuBV4Build.obj
 0001:000c3c90       ?getNbActiveObjects@PruningPool@Gu@physx@@QEBAIXZ 00000001800c4c90 f i GuIncrementalAABBPrunerCore.obj
 0001:000c3d70       ?increaseCount@BuildStats@Gu@physx@@QEAAXI@Z 00000001800c4d70 f i GuBV4Build.obj
 0001:000c47d0       ?release@BV4_AABBTree@Gu@physx@@QEAAXXZ 00000001800c57d0 f   GuBV4Build.obj
 0001:000c4880       ?releaseNodes@BV4BuildParams@@QEAAXXZ 00000001800c5880 f   GuBV4Build.obj
 0001:000c48f0       ?reset@BuildStats@Gu@physx@@QEAAXXZ 00000001800c58f0 f i GuBV4Build.obj
 0001:000c4900       ?setCount@BuildStats@Gu@physx@@QEAAXI@Z 00000001800c5900 f i GuBV4Build.obj
 0001:000c4f60       ?walk@BV4_AABBTree@Gu@physx@@QEBAIP6A_NPEBVAABBTreeNode@23@IPEAX@Z1@Z 00000001800c5f60 f   GuBV4Build.obj
 0001:000c5020       ?walkDistance@BV4_AABBTree@Gu@physx@@QEBAIP6A_NPEBVAABBTreeNode@23@IPEAX@ZP6A_N01@Z1@Z 00000001800c6020 f   GuBV4Build.obj
 0001:000c9040       ?GenericSweep_AABB_CB@@YAXAEBVBox@Gu@physx@@AEBV?$PxVec3T@M@3@MAEBVBV4Tree@23@P6A_NPEAX111IAEAM@Z3I@Z 00000001800ca040 f   GuBV4_AABBSweep.obj
 0001:000c91a0       ?Sweep_AABB_BV4@@YAHAEBVBox@Gu@physx@@AEBV?$PxVec3T@M@3@MAEBVBV4Tree@23@PEIAVSweepHit@23@I@Z 00000001800ca1a0 f   GuBV4_AABBSweep.obj
 0001:000d1ee0       ?BV4_OverlapBoxAll@@YAIAEBVBox@Gu@physx@@AEBVBV4Tree@23@PEIBV?$PxMat44T@M@3@PEAIIAEA_N@Z 00000001800d2ee0 f   GuBV4_BoxOverlap.obj
 0001:000d2700       ?BV4_OverlapBoxAny@@YAHAEBVBox@Gu@physx@@AEBVBV4Tree@23@PEIBV?$PxMat44T@M@3@@Z 00000001800d3700 f   GuBV4_BoxOverlap.obj
 0001:000d2f10       ?BV4_OverlapBoxCB@@YAXAEBVBox@Gu@physx@@AEBVBV4Tree@23@P6A_NPEAXAEBV?$PxVec3T@M@3@333IPEBI@Z2@Z 00000001800d3f10 f   GuBV4_BoxOverlap.obj
 0001:000d35d0       ?BV4_OverlapBoxCB@@YAXAEBVBox@Gu@physx@@AEBVBV4Tree@23@P6A_NPEAXAEBV?$PxVec3T@M@3@33IPEBI@Z2@Z 00000001800d45d0 f   GuBV4_BoxOverlap.obj
 0001:000d3a80       ?BV4_OverlapCapsuleAll@@YAIAEBVCapsule@Gu@physx@@AEBVBV4Tree@23@PEIBV?$PxMat44T@M@3@PEAIIAEA_N@Z 00000001800d4a80 f   GuBV4_BoxOverlap.obj
 0001:000d41a0       ?BV4_OverlapCapsuleAny@@YAHAEBVCapsule@Gu@physx@@AEBVBV4Tree@23@PEIBV?$PxMat44T@M@3@@Z 00000001800d51a0 f   GuBV4_BoxOverlap.obj
 0001:000d7050       ?BV4_CapsuleSweepSingle@@YAHAEBVCapsule@Gu@physx@@AEBV?$PxVec3T@M@3@MAEBVBV4Tree@23@PEIAVSweepHit@23@I@Z 00000001800d8050 f   GuBV4_CapsuleSweep.obj
 0001:000db130       ?BV4_CapsuleSweepSingleAA@@YAHAEBVCapsule@Gu@physx@@AEBV?$PxVec3T@M@3@MAEBVBV4Tree@23@PEIAVSweepHit@23@I@Z 00000001800dc130 f   GuBV4_CapsuleSweepAA.obj
 0001:000eaf10       ?BV4_OverlapMeshVsMesh@@YA_NAEAV?$PxReportCallback@UPxGeomIndexPair@physx@@@physx@@AEBVBV4Tree@Gu@2@1PEBV?$PxMat44T@M@2@2AEBV?$PxTransformT@M@2@3AEBVPxMeshScale@2@4V?$PxFlags@W4Enum@PxMeshMeshQueryFlag@physx@@I@2@M@Z 00000001800ebf10 f   GuBV4_MeshMeshOverlap.obj
 0001:000f4810       ??D?$PxMat33T@M@physx@@QEBA?BV?$PxVec3T@M@1@AEBV21@@Z 00000001800f5810 f i GuBV4_OBBSweep.obj
 0001:000f48a0       ?BV4_BoxSweepSingle@@YAHAEBVBox@Gu@physx@@AEBV?$PxVec3T@M@3@MAEBVBV4Tree@23@PEIBV?$PxMat44T@M@3@PEIAVSweepHit@23@I@Z 00000001800f58a0 f   GuBV4_OBBSweep.obj
 0001:000f4fd0       ?BV4_GenericSweepCB@@YAXAEBVBox@Gu@physx@@AEBV?$PxVec3T@M@3@MAEBVBV4Tree@23@P6A_NPEAX111IAEAM@Z3_N@Z 00000001800f5fd0 f   GuBV4_OBBSweep.obj
 0001:000f51f0       ?Sweep_OBB_BV4@@YAHAEBVBox@Gu@physx@@AEBV?$PxVec3T@M@3@MAEBVBV4Tree@23@PEIAVSweepHit@23@I@Z 00000001800f61f0 f   GuBV4_OBBSweep.obj
 0001:000f7d30       ?BV4_RaycastCB@@YAXAEBV?$PxVec3T@M@physx@@0AEBVBV4Tree@Gu@2@PEIBV?$PxMat44T@M@2@MMIP6A?AW4HitCode@42@PEAX000IMMM@Z3@Z 00000001800f8d30 f   GuBV4_Raycast.obj
 0001:000f8170       ?BV4_RaycastSingle@@YAHAEBV?$PxVec3T@M@physx@@0AEBVBV4Tree@Gu@2@PEIBV?$PxMat44T@M@2@PEIAUPxGeomRaycastHit@2@MMIV?$PxFlags@W4Enum@PxHitFlag@physx@@G@2@@Z 00000001800f9170 f   GuBV4_Raycast.obj
 0001:000fa6a0       ?BV4_OverlapSphereAll@@YAIAEBVSphere@Gu@physx@@AEBVBV4Tree@23@PEIBV?$PxMat44T@M@3@PEAIIAEA_N@Z 00000001800fb6a0 f   GuBV4_SphereOverlap.obj
 0001:000fa9c0       ?BV4_OverlapSphereAny@@YAHAEBVSphere@Gu@physx@@AEBVBV4Tree@23@PEIBV?$PxMat44T@M@3@@Z 00000001800fb9c0 f   GuBV4_SphereOverlap.obj
 0001:000faca0       ?BV4_PointDistance@@YAXAEBV?$PxVec3T@M@physx@@AEBVBV4Tree@Gu@2@MAEAIAEAMAEAV12@@Z 00000001800fbca0 f   GuBV4_SphereOverlap.obj
 0001:00101670       ?BV4_GenericSweepCB_Old@@YAXAEBV?$PxVec3T@M@physx@@00MAEBVBV4Tree@Gu@2@PEIBV?$PxMat44T@M@2@P6A_NPEAX000IAEAM@Z3@Z 0000000180102670 f   GuBV4_SphereSweep.obj
 0001:00101a80       ?BV4_SphereSweepSingle@@YAHAEBVSphere@Gu@physx@@AEBV?$PxVec3T@M@3@MAEBVBV4Tree@23@PEIBV?$PxMat44T@M@3@PEIAVSweepHit@23@I@Z 0000000180102a80 f   GuBV4_SphereSweep.obj
 0001:00102d90       ?computeSweepData@physx@@YAMAEBVPxTriangleMeshGeometry@1@AEAV?$PxVec3T@M@1@11M@Z 0000000180103d90 f i GuMidphaseBV4.obj
 0001:001041d0       ?intersectBoxVsMesh_BV4@Gu@physx@@YA_NAEBVBox@12@AEBVTriangleMesh@12@AEBV?$PxTransformT@M@2@AEBVPxMeshScale@2@PEAULimitedResults@12@@Z 00000001801051d0 f   GuMidphaseBV4.obj
 0001:00104cb0       ?intersectCapsuleVsMesh_BV4@Gu@physx@@YA_NAEBVCapsule@12@AEBVTriangleMesh@12@AEBV?$PxTransformT@M@2@AEBVPxMeshScale@2@PEAULimitedResults@12@@Z 0000000180105cb0 f   GuMidphaseBV4.obj
 0001:001054c0       ?intersectMeshVsMesh_BV4@Gu@physx@@YA_NAEAV?$PxReportCallback@UPxGeomIndexPair@physx@@@2@AEBVTriangleMesh@12@AEBV?$PxTransformT@M@2@AEBVPxMeshScale@2@123V?$PxFlags@W4Enum@PxMeshMeshQueryFlag@physx@@I@2@M@Z 00000001801064c0 f   GuMidphaseBV4.obj
 0001:00105d80       ?intersectOBB_BV4@Gu@physx@@YAXPEBVTetrahedronMesh@12@AEBVBox@12@AEAU?$TetMeshHitCallback@UPxGeomRaycastHit@physx@@@12@@Z 0000000180106d80 f   GuMidphaseBV4.obj
 0001:00105da0       ?intersectOBB_BV4@Gu@physx@@YAXPEBVTriangleMesh@12@AEBVBox@12@AEAU?$MeshHitCallback@UPxGeomRaycastHit@physx@@@12@_N3@Z 0000000180106da0 f   GuMidphaseBV4.obj
 0001:00105dc0       ?intersectSphereVsMesh_BV4@Gu@physx@@YA_NAEBVSphere@12@AEBVTriangleMesh@12@AEBV?$PxTransformT@M@2@AEBVPxMeshScale@2@PEAULimitedResults@12@@Z 0000000180106dc0 f   GuMidphaseBV4.obj
 0001:001064c0       ?pointMeshDistance_BV4@Gu@physx@@YAXPEBVTriangleMesh@12@AEBVPxTriangleMeshGeometry@2@AEBV?$PxTransformT@M@2@AEBV?$PxVec3T@M@2@MAEAIAEAMAEAV62@@Z 00000001801074c0 f   GuMidphaseBV4.obj
 0001:00106b70       ?raycast_triangleMesh_BV4@Gu@physx@@YAIPEBVTriangleMesh@12@AEBVPxTriangleMeshGeometry@2@AEBV?$PxTransformT@M@2@AEBV?$PxVec3T@M@2@3MV?$PxFlags@W4Enum@PxHitFlag@physx@@G@2@IPEIAUPxGeomRaycastHit@2@I@Z 0000000180107b70 f   GuMidphaseBV4.obj
 0001:00107980       ?sweepBox_MeshGeom_BV4@Gu@physx@@YA_NPEBVTriangleMesh@12@AEBVPxTriangleMeshGeometry@2@AEBV?$PxTransformT@M@2@AEBVBox@12@AEBV?$PxVec3T@M@2@MAEAUPxGeomSweepHit@2@V?$PxFlags@W4Enum@PxHitFlag@physx@@G@2@M@Z 0000000180108980 f   GuMidphaseBV4.obj
 0001:00109080       ?sweepCapsule_MeshGeom_BV4@Gu@physx@@YA_NPEBVTriangleMesh@12@AEBVPxTriangleMeshGeometry@2@AEBV?$PxTransformT@M@2@AEBVCapsule@12@AEBV?$PxVec3T@M@2@MAEAUPxGeomSweepHit@2@V?$PxFlags@W4Enum@PxHitFlag@physx@@G@2@M@Z 000000018010a080 f   GuMidphaseBV4.obj
 0001:00109ba0       ?sweepConvex_MeshGeom_BV4@Gu@physx@@YAXPEBVTriangleMesh@12@AEBVBox@12@AEBV?$PxVec3T@M@2@MAEAUSweepConvexMeshHitCallback@12@_N@Z 000000018010aba0 f   GuMidphaseBV4.obj
 0001:00109be0       ?transform@PxMeshScale@physx@@QEBA?AV?$PxVec3T@M@2@AEBV32@@Z 000000018010abe0 f i GuMidphaseBV4.obj
 0001:00109e20       ?findOverlapHeightField@PxMeshQuery@physx@@SAIAEBVPxGeometry@2@AEBV?$PxTransformT@M@2@AEBVPxHeightFieldGeometry@2@1PEAIIIAEA_NV?$PxFlags@W4Enum@PxGeometryQueryFlag@physx@@I@2@@Z 000000018010ae20 f   GuMeshQuery.obj
 0001:0010a590       ?findOverlapTriangleMesh@PxMeshQuery@physx@@SAIAEBVPxGeometry@2@AEBV?$PxTransformT@M@2@AEBVPxTriangleMeshGeometry@2@1PEAIIIAEA_NV?$PxFlags@W4Enum@PxGeometryQueryFlag@physx@@I@2@@Z 000000018010b590 f   GuMeshQuery.obj
 0001:0010a8b0       ?findOverlapTriangleMesh@PxMeshQuery@physx@@SA_NAEAV?$PxReportCallback@UPxGeomIndexPair@physx@@@2@AEBVPxTriangleMeshGeometry@2@AEBV?$PxTransformT@M@2@12V?$PxFlags@W4Enum@PxGeometryQueryFlag@physx@@I@2@V?$PxFlags@W4Enum@PxMeshMeshQueryFlag@physx@@I@2@M@Z 000000018010b8b0 f   GuMeshQuery.obj
 0001:0010a9e0       ?getTriangle@PxMeshQuery@physx@@SAXAEBVPxHeightFieldGeometry@2@AEBV?$PxTransformT@M@2@IAEAVPxTriangle@2@PEAI3@Z 000000018010b9e0 f   GuMeshQuery.obj
 0001:0010aa60       ?getTriangle@PxMeshQuery@physx@@SAXAEBVPxTriangleMeshGeometry@2@AEBV?$PxTransformT@M@2@IAEAVPxTriangle@2@PEAI3@Z 000000018010ba60 f   GuMeshQuery.obj
 0001:0010af60       ?sweep@PxMeshQuery@physx@@SA_NAEBV?$PxVec3T@M@2@MAEBVPxGeometry@2@AEBV?$PxTransformT@M@2@IPEBVPxTriangle@2@AEAUPxGeomSweepHit@2@V?$PxFlags@W4Enum@PxHitFlag@physx@@G@2@PEBIM_NV?$PxFlags@W4Enum@PxGeometryQueryFlag@physx@@I@2@@Z 000000018010bf60 f   GuMeshQuery.obj
 0001:0010b1e0       ??$collide@$00$00@MeshRayCollider@@SAXAEBV?$PxVec3T@M@physx@@0M_NPEBVRTreeTriangleMesh@Gu@2@AEAU?$MeshHitCallback@UPxGeomRaycastHit@physx@@@42@PEBV12@@Z 000000018010c1e0 f i GuMidphaseRTree.obj
 0001:0010b550       ??$collide@$00$0A@@MeshRayCollider@@SAXAEBV?$PxVec3T@M@physx@@0M_NPEBVRTreeTriangleMesh@Gu@2@AEAU?$MeshHitCallback@UPxGeomRaycastHit@physx@@@42@PEBV12@@Z 000000018010c550 f i GuMidphaseRTree.obj
 0001:0010b790       ??$collide@$0A@$00@MeshRayCollider@@SAXAEBV?$PxVec3T@M@physx@@0M_NPEBVRTreeTriangleMesh@Gu@2@AEAU?$MeshHitCallback@UPxGeomRaycastHit@physx@@@42@PEBV12@@Z 000000018010c790 f i GuMidphaseRTree.obj
 0001:0010dad0       ??0?$RayRTreeCallback@$00$0A@@@QEAA@MAEAU?$MeshHitCallback@UPxGeomRaycastHit@physx@@@Gu@physx@@HPEBXPEBV?$PxVec3T@M@3@AEBV43@3M_N2@Z 000000018010ead0 f i GuMidphaseRTree.obj
 0001:0010dbf0       ??1?$RayRTreeCallback@$00$00@@UEAA@XZ 000000018010ebf0 f i GuMidphaseRTree.obj
 0001:0010dc80       ??1?$RayRTreeCallback@$00$0A@@@UEAA@XZ 000000018010ec80 f i GuMidphaseRTree.obj
 0001:0010dc80       ??1?$RayRTreeCallback@$0A@$0A@@@UEAA@XZ 000000018010ec80 f i GuMidphaseRTree.obj
 0001:0010dd10       ??1?$RayRTreeCallback@$0A@$00@@UEAA@XZ 000000018010ed10 f i GuMidphaseRTree.obj
 0001:0010dd98       ??_E?$RayRTreeCallback@$00$00@@W7EAAPEAXI@Z 000000018010ed98 f i GuMidphaseRTree.obj
 0001:0010dda4       ??_E?$RayRTreeCallback@$00$0A@@@W7EAAPEAXI@Z 000000018010eda4 f i GuMidphaseRTree.obj
 0001:0010dda4       ??_E?$RayRTreeCallback@$0A@$0A@@@W7EAAPEAXI@Z 000000018010eda4 f i GuMidphaseRTree.obj
 0001:0010ddb0       ??_E?$RayRTreeCallback@$0A@$00@@W7EAAPEAXI@Z 000000018010edb0 f i GuMidphaseRTree.obj
 0001:0010de20       ??_E?$RayRTreeCallback@$00$00@@UEAAPEAXI@Z 000000018010ee20 f i GuMidphaseRTree.obj
 0001:0010de20       ??_G?$RayRTreeCallback@$00$00@@UEAAPEAXI@Z 000000018010ee20 f i GuMidphaseRTree.obj
 0001:0010de60       ??_E?$RayRTreeCallback@$00$0A@@@UEAAPEAXI@Z 000000018010ee60 f i GuMidphaseRTree.obj
 0001:0010de60       ??_E?$RayRTreeCallback@$0A@$0A@@@UEAAPEAXI@Z 000000018010ee60 f i GuMidphaseRTree.obj
 0001:0010de60       ??_G?$RayRTreeCallback@$00$0A@@@UEAAPEAXI@Z 000000018010ee60 f i GuMidphaseRTree.obj
 0001:0010de60       ??_G?$RayRTreeCallback@$0A@$0A@@@UEAAPEAXI@Z 000000018010ee60 f i GuMidphaseRTree.obj
 0001:0010dea0       ??_E?$RayRTreeCallback@$0A@$00@@UEAAPEAXI@Z 000000018010eea0 f i GuMidphaseRTree.obj
 0001:0010dea0       ??_G?$RayRTreeCallback@$0A@$00@@UEAAPEAXI@Z 000000018010eea0 f i GuMidphaseRTree.obj
 0001:0010dee0       ??_ECallback@RTree@Gu@physx@@UEAAPEAXI@Z 000000018010eee0 f i GuMidphaseRTree.obj
 0001:0010dee0       ??_GCallback@RTree@Gu@physx@@UEAAPEAXI@Z 000000018010eee0 f i GuMidphaseRTree.obj
 0001:0010df10       ??_ERayMeshColliderCallback@@UEAAPEAXI@Z 000000018010ef10 f i GuMidphaseRTree.obj
 0001:0010df10       ??_ESweepCapsuleMeshHitCallback@Gu@physx@@UEAAPEAXI@Z 000000018010ef10 f i GuSweepsMesh.obj
 0001:0010df10       ??_GRayMeshColliderCallback@@UEAAPEAXI@Z 000000018010ef10 f i GuMidphaseRTree.obj
 0001:0010df10       ??_GSweepCapsuleMeshHitCallback@Gu@physx@@UEAAPEAXI@Z 000000018010ef10 f i GuSweepsMesh.obj
 0001:0010df40       ?collideOBB@MeshRayCollider@@SAXAEBVBox@Gu@physx@@_NPEBVRTreeTriangleMesh@34@AEAU?$MeshHitCallback@UPxGeomRaycastHit@physx@@@34@1@Z 000000018010ef40 f   GuMidphaseRTree.obj
 0001:0010e410       ?intersectBoxVsMesh_RTREE@Gu@physx@@YA_NAEBVBox@12@AEBVTriangleMesh@12@AEBV?$PxTransformT@M@2@AEBVPxMeshScale@2@PEAULimitedResults@12@@Z 000000018010f410 f   GuMidphaseRTree.obj
 0001:0010e480       ?intersectCapsuleVsMesh_RTREE@Gu@physx@@YA_NAEBVCapsule@12@AEBVTriangleMesh@12@AEBV?$PxTransformT@M@2@AEBVPxMeshScale@2@PEAULimitedResults@12@@Z 000000018010f480 f   GuMidphaseRTree.obj
 0001:0010e500       ?intersectOBB_RTREE@Gu@physx@@YAXPEBVTriangleMesh@12@AEBVBox@12@AEAU?$MeshHitCallback@UPxGeomRaycastHit@physx@@@12@_N3@Z 000000018010f500 f   GuMidphaseRTree.obj
 0001:0010e530       ?intersectSphereVsMesh_RTREE@Gu@physx@@YA_NAEBVSphere@12@AEBVTriangleMesh@12@AEBV?$PxTransformT@M@2@AEBVPxMeshScale@2@PEAULimitedResults@12@@Z 000000018010f530 f   GuMidphaseRTree.obj
 0001:0010e560       ?pointMeshDistance_RTREE@Gu@physx@@YAXPEBVTriangleMesh@12@AEBVPxTriangleMeshGeometry@2@AEBV?$PxTransformT@M@2@AEBV?$PxVec3T@M@2@MAEAIAEAMAEAV62@@Z 000000018010f560 f   GuMidphaseRTree.obj
 0001:0010f350       ?processHit@RayMeshColliderCallback@@UEAA_NAEBUPxGeomRaycastHit@physx@@AEBV?$PxVec3T@M@3@11AEAMPEBI@Z 0000000180110350 f i GuMidphaseRTree.obj
 0001:0010faf0       ?processResults@?$RayRTreeCallback@$00$00@@UEAA_NIPEAI@Z 0000000180110af0 f i GuMidphaseRTree.obj
 0001:0010fe60       ?processResults@?$RayRTreeCallback@$00$00@@UEAA_NIPEAIAEAM@Z 0000000180110e60 f i GuMidphaseRTree.obj
 0001:001101e0       ?processResults@?$RayRTreeCallback@$00$0A@@@UEAA_NIPEAI@Z 00000001801111e0 f i GuMidphaseRTree.obj
 0001:001101e0       ?processResults@?$RayRTreeCallback@$0A@$0A@@@UEAA_NIPEAI@Z 00000001801111e0 f i GuMidphaseRTree.obj
 0001:00110440       ?processResults@?$RayRTreeCallback@$00$0A@@@UEAA_NIPEAIAEAM@Z 0000000180111440 f i GuMidphaseRTree.obj
 0001:00110440       ?processResults@?$RayRTreeCallback@$0A@$0A@@@UEAA_NIPEAIAEAM@Z 0000000180111440 f i GuMidphaseRTree.obj
 0001:001106d0       ?processResults@?$RayRTreeCallback@$0A@$00@@UEAA_NIPEAI@Z 00000001801116d0 f i GuMidphaseRTree.obj
 0001:00110d10       ?processResults@?$RayRTreeCallback@$0A@$00@@UEAA_NIPEAIAEAM@Z 0000000180111d10 f i GuMidphaseRTree.obj
 0001:00111360       ?raycast_triangleMesh_RTREE@Gu@physx@@YAIPEBVTriangleMesh@12@AEBVPxTriangleMeshGeometry@2@AEBV?$PxTransformT@M@2@AEBV?$PxVec3T@M@2@3MV?$PxFlags@W4Enum@PxHitFlag@physx@@G@2@IPEIAUPxGeomRaycastHit@2@I@Z 0000000180112360 f   GuMidphaseRTree.obj
 0001:00111ae0       ?sweepBox_MeshGeom_RTREE@Gu@physx@@YA_NPEBVTriangleMesh@12@AEBVPxTriangleMeshGeometry@2@AEBV?$PxTransformT@M@2@AEBVBox@12@AEBV?$PxVec3T@M@2@MAEAUPxGeomSweepHit@2@V?$PxFlags@W4Enum@PxHitFlag@physx@@G@2@M@Z 0000000180112ae0 f   GuMidphaseRTree.obj
 0001:00113000       ?sweepCapsule_MeshGeom_RTREE@Gu@physx@@YA_NPEBVTriangleMesh@12@AEBVPxTriangleMeshGeometry@2@AEBV?$PxTransformT@M@2@AEBVCapsule@12@AEBV?$PxVec3T@M@2@MAEAUPxGeomSweepHit@2@V?$PxFlags@W4Enum@PxHitFlag@physx@@G@2@M@Z 0000000180114000 f   GuMidphaseRTree.obj
 0001:001137b0       ?sweepConvex_MeshGeom_RTREE@Gu@physx@@YAXPEBVTriangleMesh@12@AEBVBox@12@AEBV?$PxVec3T@M@2@MAEAUSweepConvexMeshHitCallback@12@_N@Z 00000001801147b0 f   GuMidphaseRTree.obj
 0001:00114170       ??_E?$PxReportCallback@UPxGeomIndexPair@physx@@@physx@@UEAAPEAXI@Z 0000000180115170 f i GuOverlapTestsMesh.obj
 0001:00114170       ??_G?$PxReportCallback@UPxGeomIndexPair@physx@@@physx@@UEAAPEAXI@Z 0000000180115170 f i GuOverlapTestsMesh.obj
 0001:00114200       ?GeomOverlapCallback_BoxMesh@@YA_NAEBVPxGeometry@physx@@AEBV?$PxTransformT@M@2@01PEAUTriggerCache@Gu@2@PEAUPxQueryThreadContext@2@@Z 0000000180115200 f   GuOverlapTestsMesh.obj
 0001:00114310       ?GeomOverlapCallback_CapsuleMesh@@YA_NAEBVPxGeometry@physx@@AEBV?$PxTransformT@M@2@01PEAUTriggerCache@Gu@2@PEAUPxQueryThreadContext@2@@Z 0000000180115310 f   GuOverlapTestsMesh.obj
 0001:00114420       ?GeomOverlapCallback_ConvexMesh@@YA_NAEBVPxGeometry@physx@@AEBV?$PxTransformT@M@2@01PEAUTriggerCache@Gu@2@PEAUPxQueryThreadContext@2@@Z 0000000180115420 f   GuOverlapTestsMesh.obj
 0001:00114920       ?GeomOverlapCallback_MeshMesh@@YA_NAEBVPxGeometry@physx@@AEBV?$PxTransformT@M@2@01PEAUTriggerCache@Gu@2@PEAUPxQueryThreadContext@2@@Z 0000000180115920 f   GuOverlapTestsMesh.obj
 0001:001149f0       ?GeomOverlapCallback_SphereMesh@@YA_NAEBVPxGeometry@physx@@AEBV?$PxTransformT@M@2@01PEAUTriggerCache@Gu@2@PEAUPxQueryThreadContext@2@@Z 00000001801159f0 f   GuOverlapTestsMesh.obj
 0001:00114de0       ??0RTree@Gu@physx@@QEAA@W4PxEMPTY@2@@Z 0000000180115de0 f   GuRTree.obj
 0001:00114df0       ?exportExtraData@RTree@Gu@physx@@QEAAXAEAVPxSerializationContext@3@@Z 0000000180115df0 f   GuRTree.obj
 0001:00114e30       ?importExtraData@RTree@Gu@physx@@QEAAXAEAVPxDeserializationContext@3@@Z 0000000180115e30 f   GuRTree.obj
 0001:00114e60       ?load@RTree@Gu@physx@@QEAA_NAEAVPxInputStream@3@I_N@Z 0000000180115e60 f   GuRTree.obj
 0001:00115160       ?refitAllStaticTree@RTree@Gu@physx@@QEAAXAEAUCallbackRefit@123@PEAVPxBounds3@3@@Z 0000000180116160 f   GuRTree.obj
 0001:001156c0       ?validate@RTree@Gu@physx@@QEAAXPEAUCallbackRefit@123@@Z 00000001801166c0 f   GuRTree.obj
 0001:00115900       ?validateRecursive@RTree@Gu@physx@@IEAAXIURTreeNodeQ@23@PEAURTreePage@23@PEAUCallbackRefit@123@@Z 0000000180116900 f   GuRTree.obj
 0001:00115ac0       ??$traverseRay@$00@RTree@Gu@physx@@QEBAXAEBV?$PxVec3T@M@2@0IPEAIPEAUCallbackRaycast@012@PEBV32@M@Z 0000000180116ac0 f i GuRTreeQueries.obj
 0001:00115e60       ??$traverseRay@$0A@@RTree@Gu@physx@@QEBAXAEBV?$PxVec3T@M@2@0IPEAIPEAUCallbackRaycast@012@PEBV32@M@Z 0000000180116e60 f i GuRTreeQueries.obj
 0001:001161b0       ?traverseAABB@RTree@Gu@physx@@QEBAXAEBV?$PxVec3T@M@3@0IPEAIPEAUCallback@123@@Z 00000001801171b0 f   GuRTreeQueries.obj
 0001:00116370       ?traverseOBB@RTree@Gu@physx@@QEBAXAEBVBox@23@IPEAIPEAUCallback@123@@Z 0000000180117370 f   GuRTreeQueries.obj
 0001:00116c50       ??0SweepBoxMeshHitCallback@Gu@physx@@QEAA@W4Enum@CallbackMode@12@AEBVPxMat34Padded@2@M_NAEBVBox@12@AEBV?$PxVec3T@M@2@44AEBV?$PxFlags@W4Enum@PxHitFlag@physx@@G@2@M2M@Z 0000000180117c50 f   GuSweepsMesh.obj
 0001:00116d60       ??0SweepCapsuleMeshHitCallback@Gu@physx@@QEAA@AEAUPxGeomSweepHit@2@AEBV?$PxMat34T@M@2@M_NAEBVCapsule@12@AEBV?$PxVec3T@M@2@AEBV?$PxFlags@W4Enum@PxHitFlag@physx@@G@2@2M@Z 0000000180117d60 f   GuSweepsMesh.obj
 0001:00116e30       ??0SweepConvexMeshHitCallback@Gu@physx@@QEAA@AEBUConvexHullData@12@AEBVPxMeshScale@2@AEBVFastVertex2ShapeScaling@Cm@2@AEBV?$PxTransformT@M@2@3AEBV?$PxVec3T@M@2@MV?$PxFlags@W4Enum@PxHitFlag@physx@@G@2@_NM6M@Z 0000000180117e30 f   GuSweepsMesh.obj
 0001:00117790       ??_ESweepBoxMeshHitCallback@Gu@physx@@UEAAPEAXI@Z 0000000180118790 f i GuSweepsMesh.obj
 0001:00117790       ??_GSweepBoxMeshHitCallback@Gu@physx@@UEAAPEAXI@Z 0000000180118790 f i GuSweepsMesh.obj
 0001:001177c0       ??_ESweepConvexMeshHitCallback@Gu@physx@@UEAAPEAXI@Z 00000001801187c0 f i GuSweepsMesh.obj
 0001:001177c0       ??_GSweepConvexMeshHitCallback@Gu@physx@@UEAAPEAXI@Z 00000001801187c0 f i GuSweepsMesh.obj
 0001:001177f0       ??_ESweepShapeMeshHitCallback@Gu@physx@@UEAAPEAXI@Z 00000001801187f0 f i GuSweepsMesh.obj
 0001:001177f0       ??_GSweepShapeMeshHitCallback@Gu@physx@@UEAAPEAXI@Z 00000001801187f0 f i GuSweepsMesh.obj
 0001:00117820       ?finalizeHit@SweepBoxMeshHitCallback@Gu@physx@@QEBA_NAEAUPxGeomSweepHit@3@AEBVPxTriangleMeshGeometry@3@AEBV?$PxTransformT@M@3@2AEBV?$PxVec3T@M@3@_N4@Z 0000000180118820 f   GuSweepsMesh.obj
 0001:00117ee0       ?finalizeHit@SweepCapsuleMeshHitCallback@Gu@physx@@QEBA_NAEAUPxGeomSweepHit@3@AEBVCapsule@23@AEBVPxTriangleMeshGeometry@3@AEBV?$PxTransformT@M@3@_N@Z 0000000180118ee0 f   GuSweepsMesh.obj
 0001:00118090       ?finalizeHit@SweepConvexMeshHitCallback@Gu@physx@@QEAA_NAEAUPxGeomSweepHit@3@AEBVPxTriangleMeshGeometry@3@AEBV?$PxTransformT@M@3@AEBVPxConvexMeshGeometry@3@2AEBV?$PxVec3T@M@3@M_N555@Z 0000000180119090 f   GuSweepsMesh.obj
 0001:00118560       ?processHit@SweepBoxMeshHitCallback@Gu@physx@@UEAA_NAEBUPxGeomRaycastHit@3@AEBV?$PxVec3T@M@3@11AEAMPEBI@Z 0000000180119560 f   GuSweepsMesh.obj
 0001:00118d50       ?processHit@SweepCapsuleMeshHitCallback@Gu@physx@@UEAA_NAEBUPxGeomRaycastHit@3@AEBV?$PxVec3T@M@3@11AEAMPEBI@Z 0000000180119d50 f   GuSweepsMesh.obj
 0001:001192b0       ?processHit@SweepConvexMeshHitCallback@Gu@physx@@UEAA_NAEBUPxGeomRaycastHit@3@AEBV?$PxVec3T@M@3@11AEAMPEBI@Z 000000018011a2b0 f   GuSweepsMesh.obj
 0001:00119a00       ?sweepBox_MeshGeom@@YA_NAEBVPxGeometry@physx@@AEBV?$PxTransformT@M@2@AEBVPxBoxGeometry@2@1AEBVBox@Gu@2@AEBV?$PxVec3T@M@2@MAEAUPxGeomSweepHit@2@V?$PxFlags@W4Enum@PxHitFlag@physx@@G@2@MPEAUPxQueryThreadContext@2@@Z 000000018011aa00 f   GuSweepsMesh.obj
 0001:00119a90       ?sweepCapsule_MeshGeom@@YA_NAEBVPxGeometry@physx@@AEBV?$PxTransformT@M@2@AEBVPxCapsuleGeometry@2@1AEBVCapsule@Gu@2@AEBV?$PxVec3T@M@2@MAEAUPxGeomSweepHit@2@V?$PxFlags@W4Enum@PxHitFlag@physx@@G@2@MPEAUPxQueryThreadContext@2@@Z 000000018011aa90 f   GuSweepsMesh.obj
 0001:00119b20       ?sweepConvex_MeshGeom@@YA_NAEBVPxGeometry@physx@@AEBV?$PxTransformT@M@2@AEBVPxConvexMeshGeometry@2@1AEBV?$PxVec3T@M@2@MAEAUPxGeomSweepHit@2@V?$PxFlags@W4Enum@PxHitFlag@physx@@G@2@MPEAUPxQueryThreadContext@2@@Z 000000018011ab20 f   GuSweepsMesh.obj
 0001:0011a660       ??0TriangleMesh@Gu@physx@@QEAA@AEBUPxTriangleMeshInternalData@2@@Z 000000018011b660 f   GuTriangleMesh.obj
 0001:0011a740       ??0TriangleMesh@Gu@physx@@QEAA@PEAVMeshFactory@12@AEAVTriangleMeshData@12@@Z 000000018011b740 f   GuTriangleMesh.obj
 0001:0011aac0       ??1TriangleMesh@Gu@physx@@UEAA@XZ 000000018011bac0 f   GuTriangleMesh.obj
 0001:0011ad30       ??_ETriangleMesh@Gu@physx@@UEAAPEAXI@Z 000000018011bd30 f i GuTriangleMesh.obj
 0001:0011ad30       ??_GTriangleMesh@Gu@physx@@UEAAPEAXI@Z 000000018011bd30 f i GuTriangleMesh.obj
 0001:0011ada0       ?exportExtraData@TriangleMesh@Gu@physx@@UEAAXAEAVPxSerializationContext@3@@Z 000000018011bda0 f   GuTriangleMesh.obj
 0001:0011b000       ?getLocalBounds@TriangleMesh@Gu@physx@@UEBA?AVPxBounds3@3@XZ 000000018011c000 f i GuTriangleMesh.obj
 0001:0011b090       ?getMassInformation@TriangleMesh@Gu@physx@@UEBAXAEAMAEAV?$PxMat33T@M@3@AEAV?$PxVec3T@M@3@@Z 000000018011c090 f i GuTriangleMesh.obj
 0001:0011b110       ?getNbTriangles@TriangleMesh@Gu@physx@@UEBAIXZ 000000018011c110 f i GuTriangleMesh.obj
 0001:0011b120       ?getPreferSDFProjection@TriangleMesh@Gu@physx@@UEBA_NXZ 000000018011c120 f i GuTriangleMesh.obj
 0001:0011b130       ?getSDF@TriangleMesh@Gu@physx@@UEBAPEBMXZ 000000018011c130 f i GuTriangleMesh.obj
 0001:0011b140       ?getSDFDimensions@TriangleMesh@Gu@physx@@UEBAXAEAI00@Z 000000018011c140 f i GuTriangleMesh.obj
 0001:0011b170       ?getTriangleMaterialIndex@TriangleMesh@Gu@physx@@UEBAGI@Z 000000018011c170 f i GuTriangleMesh.obj
 0001:0011b190       ?getTriangleMeshFlags@TriangleMesh@Gu@physx@@UEBA?AV?$PxFlags@W4Enum@PxTriangleMeshFlag@physx@@E@3@XZ 000000018011c190 f i GuTriangleMesh.obj
 0001:0011b1a0       ?getTrianglesRemap@TriangleMesh@Gu@physx@@UEBAPEBIXZ 000000018011c1a0 f i GuTriangleMesh.obj
 0001:0011b1b0       ?getVerticesForModification@TriangleMesh@Gu@physx@@UEAAPEAV?$PxVec3T@M@3@XZ 000000018011c1b0 f   GuTriangleMesh.obj
 0001:0011b1f0       ?importExtraData@TriangleMesh@Gu@physx@@QEAAXAEAVPxDeserializationContext@3@@Z 000000018011c1f0 f   GuTriangleMesh.obj
 0001:0011b400       ?isKindOf@PxTriangleMesh@physx@@MEBA_NPEBD@Z 000000018011c400 f i GuTriangleMesh.obj
 0001:0011b490       ?onRefCountZero@TriangleMesh@Gu@physx@@UEAAXXZ 000000018011c490 f   GuTriangleMesh.obj
 0001:0011b560       ?refitBVH@TriangleMesh@Gu@physx@@UEAA?AVPxBounds3@3@XZ 000000018011c560 f   GuTriangleMesh.obj
 0001:0011b630       ?requestEdgeList@TriangleMesh@Gu@physx@@QEBAPEBVEdgeList@23@XZ 000000018011c630 f   GuTriangleMesh.obj
 0001:0011b720       ?setAllEdgesActive@TriangleMesh@Gu@physx@@QEAAXXZ 000000018011c720 f   GuTriangleMesh.obj
 0001:0011b810       ?setPreferSDFProjection@TriangleMesh@Gu@physx@@UEAAX_N@Z 000000018011c810 f i GuTriangleMesh.obj
 0001:0011b840       ??0BV4TriangleMesh@Gu@physx@@QEAA@AEBUPxTriangleMeshInternalData@2@@Z 000000018011c840 f   GuTriangleMeshBV4.obj
 0001:0011b9a0       ??0BV4TriangleMesh@Gu@physx@@QEAA@PEAVMeshFactory@12@AEAVTriangleMeshData@12@@Z 000000018011c9a0 f   GuTriangleMeshBV4.obj
 0001:0011ba30       ??_EBV4TriangleMesh@Gu@physx@@UEAAPEAXI@Z 000000018011ca30 f i GuTriangleMeshBV4.obj
 0001:0011ba30       ??_GBV4TriangleMesh@Gu@physx@@UEAAPEAXI@Z 000000018011ca30 f i GuTriangleMeshBV4.obj
 0001:0011bac0       ?createObject@BV4TriangleMesh@Gu@physx@@SAPEAVTriangleMesh@23@AEAPEAEAEAVPxDeserializationContext@3@@Z 000000018011cac0 f   GuTriangleMeshBV4.obj
 0001:0011bb90       ?exportExtraData@BV4TriangleMesh@Gu@physx@@UEAAXAEAVPxSerializationContext@3@@Z 000000018011cb90 f   GuTriangleMeshBV4.obj
 0001:0011bbd0       ?getConcreteTypeName@BV4TriangleMesh@Gu@physx@@UEBAPEBDXZ 000000018011cbd0 f i GuTriangleMeshBV4.obj
 0001:0011bbe0       ?getInternalData@BV4TriangleMesh@Gu@physx@@UEBA_NAEAUPxTriangleMeshInternalData@3@_N@Z 000000018011cbe0 f   GuTriangleMeshBV4.obj
 0001:0011bcd0       ?getMidphaseID@BV4TriangleMesh@Gu@physx@@UEBA?AW4Enum@PxMeshMidPhase@3@XZ 000000018011ccd0 f i GuTriangleMeshBV4.obj
 0001:0011bcd0       ?getMidphaseID@BV4TriangleMeshBuilder@physx@@UEBA?AW4Enum@PxMeshMidPhase@2@XZ 000000018011ccd0 f i GuCookingTriangleMesh.obj
 0001:0011bcd0       ?length@charNode@@UEBAHXZ  000000018011ccd0 f i libvcruntime:undname.obj
 0001:0011bcd0       ?raw_length@charNode@@UEBAHXZ 000000018011ccd0 f i libvcruntime:undname.obj
 0001:0011bcd0       DllMain                    000000018011ccd0 f i LIBCMT:dll_dllmain_stub.obj
 0001:0011bcd0       _get_startup_argv_mode     000000018011ccd0 f i LIBCMT:argv_mode.obj
 0001:0011bce0       ?getVerticesForModification@BV4TriangleMesh@Gu@physx@@UEAAPEAV?$PxVec3T@M@3@XZ 000000018011cce0 f   GuTriangleMeshBV4.obj
 0001:0011bce0       ?getVerticesForModification@RTreeTriangleMesh@Gu@physx@@UEAAPEAV?$PxVec3T@M@3@XZ 000000018011cce0 f   GuTriangleMeshRTree.obj
 0001:0011bcf0       ?refitBVH@BV4TriangleMesh@Gu@physx@@UEAA?AVPxBounds3@3@XZ 000000018011ccf0 f   GuTriangleMeshBV4.obj
 0001:0011be60       PxGetTriangleMeshInternalData 000000018011ce60 f   GuTriangleMeshBV4.obj
 0001:0011be80       ??0RTreeTriangleMesh@Gu@physx@@QEAA@PEAVMeshFactory@12@AEAVTriangleMeshData@12@@Z 000000018011ce80 f   GuTriangleMeshRTree.obj
 0001:0011bff0       ??_E?$RefitCallback@G@physx@@UEAAPEAXI@Z 000000018011cff0 f i GuTriangleMeshRTree.obj
 0001:0011bff0       ??_E?$RefitCallback@I@physx@@UEAAPEAXI@Z 000000018011cff0 f i GuTriangleMeshRTree.obj
 0001:0011bff0       ??_G?$RefitCallback@G@physx@@UEAAPEAXI@Z 000000018011cff0 f i GuTriangleMeshRTree.obj
 0001:0011bff0       ??_G?$RefitCallback@I@physx@@UEAAPEAXI@Z 000000018011cff0 f i GuTriangleMeshRTree.obj
 0001:0011c020       ??_ERTreeTriangleMesh@Gu@physx@@UEAAPEAXI@Z 000000018011d020 f i GuTriangleMeshRTree.obj
 0001:0011c020       ??_GRTreeTriangleMesh@Gu@physx@@UEAAPEAXI@Z 000000018011d020 f i GuTriangleMeshRTree.obj
 0001:0011c0d0       ?createObject@RTreeTriangleMesh@Gu@physx@@SAPEAVTriangleMesh@23@AEAPEAEAEAVPxDeserializationContext@3@@Z 000000018011d0d0 f   GuTriangleMeshRTree.obj
 0001:0011c150       ?exportExtraData@RTreeTriangleMesh@Gu@physx@@UEAAXAEAVPxSerializationContext@3@@Z 000000018011d150 f   GuTriangleMeshRTree.obj
 0001:0011c190       ?getConcreteTypeName@RTreeTriangleMesh@Gu@physx@@UEBAPEBDXZ 000000018011d190 f i GuTriangleMeshRTree.obj
 0001:0011c1a0       ?recomputeBounds@?$RefitCallback@G@physx@@UEAAXIAEAT__m128@@0@Z 000000018011d1a0 f i GuTriangleMeshRTree.obj
 0001:0011c4d0       ?recomputeBounds@?$RefitCallback@I@physx@@UEAAXIAEAT__m128@@0@Z 000000018011d4d0 f i GuTriangleMeshRTree.obj
 0001:0011c7f0       ?refitBVH@RTreeTriangleMesh@Gu@physx@@UEAA?AVPxBounds3@3@XZ 000000018011d7f0 f   GuTriangleMeshRTree.obj
 0001:0011c910       ??0BV32Tree@Gu@physx@@QEAA@W4PxEMPTY@2@@Z 000000018011d910 f   GuBV32.obj
 0001:0011c930       ??0BV32Tree@Gu@physx@@QEAA@XZ 000000018011d930 f   GuBV32.obj
 0001:0011c960       ??1BV32Tree@Gu@physx@@QEAA@XZ 000000018011d960 f   GuBV32.obj
 0001:0011c970       ?createSOAformatNode@BV32Tree@Gu@physx@@QEAAXAEAUBV32DataPacked@23@AEBUBV32Data@23@IAEAI2@Z 000000018011d970 f   GuBV32.obj
 0001:0011cdd0       ?exportExtraData@BV32Tree@Gu@physx@@QEAAXAEAVPxSerializationContext@3@@Z 000000018011ddd0 f   GuBV32.obj
 0001:0011ce10       ?importExtraData@BV32Tree@Gu@physx@@QEAAXAEAVPxDeserializationContext@3@@Z 000000018011de10 f   GuBV32.obj
 0001:0011ce40       ?load@BV32Tree@Gu@physx@@QEAA_NAEAVPxInputStream@3@_N@Z 000000018011de40 f   GuBV32.obj
 0001:0011d180       ?release@BV32Tree@Gu@physx@@QEAAXXZ 000000018011e180 f   GuBV32.obj
 0001:0011d240       ??0BV32Node@@QEAA@XZ       000000018011e240 f i GuBV32Build.obj
 0001:0011d6c0       ?BuildBV32Ex@Gu@physx@@YA_NAEAVBV32Tree@12@AEAVSourceMeshBase@12@MI@Z 000000018011e6c0 f   GuBV32Build.obj
 0001:0011e6e0       ??0BVTetrahedronMesh@Gu@physx@@QEAA@AEAVTetrahedronMeshData@12@AEAVSoftBodyCollisionData@12@PEAVMeshFactory@12@@Z 000000018011f6e0 f   GuTetrahedronMesh.obj
 0001:0011e940       ??0SoftBodyMesh@Gu@physx@@QEAA@PEAVMeshFactory@12@AEAVSoftBodyMeshData@12@@Z 000000018011f940 f   GuTetrahedronMesh.obj
 0001:0011ece0       ??0TetrahedronMesh@Gu@physx@@QEAA@PEAVMeshFactory@12@AEAVTetrahedronMeshData@12@@Z 000000018011fce0 f   GuTetrahedronMesh.obj
 0001:0011edd0       ??1SoftBodyAuxData@Gu@physx@@UEAA@XZ 000000018011fdd0 f   GuTetrahedronMesh.obj
 0001:0011f050       ??1TetrahedronMesh@Gu@physx@@UEAA@XZ 0000000180120050 f   GuTetrahedronMesh.obj
 0001:0011f0f0       ??_EBVTetrahedronMesh@Gu@physx@@UEAAPEAXI@Z 00000001801200f0 f i GuTetrahedronMesh.obj
 0001:0011f0f0       ??_GBVTetrahedronMesh@Gu@physx@@UEAAPEAXI@Z 00000001801200f0 f i GuTetrahedronMesh.obj
 0001:0011f270       ??_ESoftBodyAuxData@Gu@physx@@UEAAPEAXI@Z 0000000180120270 f i GuTetrahedronMesh.obj
 0001:0011f270       ??_GSoftBodyAuxData@Gu@physx@@UEAAPEAXI@Z 0000000180120270 f i GuTetrahedronMesh.obj
 0001:0011f2e0       ??_ESoftBodyMesh@Gu@physx@@UEAAPEAXI@Z 00000001801202e0 f i GuTetrahedronMesh.obj
 0001:0011f2e0       ??_GSoftBodyMesh@Gu@physx@@UEAAPEAXI@Z 00000001801202e0 f i GuTetrahedronMesh.obj
 0001:0011f3b0       ??_ETetrahedronMesh@Gu@physx@@UEAAPEAXI@Z 00000001801203b0 f i GuTetrahedronMesh.obj
 0001:0011f3b0       ??_GTetrahedronMesh@Gu@physx@@UEAAPEAXI@Z 00000001801203b0 f i GuTetrahedronMesh.obj
 0001:0011f420       ?exportExtraData@SoftBodyMesh@Gu@physx@@UEAAXAEAVPxSerializationContext@3@@Z 0000000180120420 f   GuTetrahedronMesh.obj
 0001:0011f510       ?getConcreteTypeName@SoftBodyAuxData@Gu@physx@@UEBAPEBDXZ 0000000180120510 f i GuTetrahedronMesh.obj
 0001:0011f520       ?getConcreteTypeName@SoftBodyMesh@Gu@physx@@UEBAPEBDXZ 0000000180120520 f i GuTetrahedronMesh.obj
 0001:0011f530       ?getConcreteTypeName@TetrahedronMesh@Gu@physx@@UEBAPEBDXZ 0000000180120530 f i GuTetrahedronMesh.obj
 0001:0011f540       ?getLocalBounds@TetrahedronMesh@Gu@physx@@UEBA?AVPxBounds3@3@XZ 0000000180120540 f i GuTetrahedronMesh.obj
 0001:0011f5d0       ?getNbTetrahedrons@TetrahedronMesh@Gu@physx@@UEBAIXZ 00000001801205d0 f i GuTetrahedronMesh.obj
 0001:0011f5e0       ?getBounds@BVH@Gu@physx@@UEBAPEBVPxBounds3@3@XZ 00000001801205e0 f i GuBVH.obj
 0001:0011f5e0       ?getTetrahedraRemap@BVTetrahedronMesh@Gu@physx@@UEBAPEBIXZ 00000001801205e0 f i GuTetrahedronMesh.obj
 0001:0011f5f0       ?getTetrahedronMeshFlags@TetrahedronMesh@Gu@physx@@UEBA?AV?$PxFlags@W4Enum@PxTetrahedronMeshFlag@physx@@E@3@XZ 00000001801205f0 f i GuTetrahedronMesh.obj
 0001:0011f600       ?getTetrahedrons@TetrahedronMesh@Gu@physx@@UEBAPEBXXZ 0000000180120600 f i GuTetrahedronMesh.obj
 0001:0011f610       ?isKindOf@PxSoftBodyAuxData@physx@@MEBA_NPEBD@Z 0000000180120610 f i GuTetrahedronMesh.obj
 0001:0011f6a0       ?isKindOf@PxSoftBodyMesh@physx@@MEBA_NPEBD@Z 00000001801206a0 f i GuTetrahedronMesh.obj
 0001:0011f730       ?isKindOf@PxTetrahedronMesh@physx@@MEBA_NPEBD@Z 0000000180120730 f i GuTetrahedronMesh.obj
 0001:0011f7c0       ?onRefCountZero@SoftBodyAuxData@Gu@physx@@UEAAXXZ 00000001801207c0 f i GuTetrahedronMesh.obj
 0001:0011f7c0       ?release@SimulationTetrahedronMeshData@Gu@physx@@UEAAXXZ 00000001801207c0 f i GuCookingTetrahedronMesh.obj
 0001:0011f7e0       ?onRefCountZero@SoftBodyMesh@Gu@physx@@UEAAXXZ 00000001801207e0 f   GuTetrahedronMesh.obj
 0001:0011f880       ?onRefCountZero@TetrahedronMesh@Gu@physx@@UEAAXXZ 0000000180120880 f   GuTetrahedronMesh.obj
 0001:0011f920       ?addAxisToSimMeshBarycentric@Gu@physx@@YA?AV?$PxVec4T@M@2@AEBVPxTetrahedronMesh@2@IAEBV32@AEBV?$PxVec3T@M@2@@Z 0000000180120920 f   GuTetrahedronMeshUtils.obj
 0001:0011fbe0       ?closestPtPointTetrahedron@Gu@physx@@YA?AV?$PxVec3T@M@2@AEBV32@0000@Z 0000000180120be0 f i GuTetrahedronMeshUtils.obj
 0001:00120d20       ?computeBarycentric@physx@@YAXAEBV?$PxVec3T@M@1@0000AEAV?$PxVec4T@M@1@@Z 0000000180121d20 f i GuTetrahedronMeshUtils.obj
 0001:00120fd0       ?convertSoftbodyCollisionToSimMeshTets@Gu@physx@@YAXAEBVPxTetrahedronMesh@2@AEBVSoftBodyAuxData@12@AEBVBVTetrahedronMesh@12@IAEBV?$PxVec4T@M@2@AEAIAEAV62@@Z 0000000180121fd0 f   GuTetrahedronMeshUtils.obj
 0001:00123ba0       ?pcmContactBoxBox@Gu@physx@@YA_NAEBVPxGeometry@2@0AEBUPxTransformPadded@2@1AEBUNarrowPhaseParams@12@AEAUCache@12@AEAVPxContactBuffer@2@PEAVPxRenderOutput@2@@Z 0000000180124ba0 f   GuPCMContactBoxBox.obj
 0001:00124a40       ??$gjkPenetration@U?$RelativeConvex@VBoxV@Gu@physx@@@Gu@physx@@U?$LocalConvex@VConvexHullNoScaleV@Gu@physx@@@23@@Gu@physx@@YA?AW4GjkStatus@01@AEBU?$RelativeConvex@VBoxV@Gu@physx@@@01@AEBU?$LocalConvex@VConvexHullNoScaleV@Gu@physx@@@01@AEBT__m128@@2_NPEIAE4AEAEAEAUGjkOutput@01@@Z 0000000180125a40 f i GuPCMContactBoxConvex.obj
 0001:00124ab0       ??$gjkPenetration@U?$RelativeConvex@VBoxV@Gu@physx@@@Gu@physx@@U?$LocalConvex@VConvexHullNoScaleV@Gu@physx@@@23@@Gu@physx@@YA?AW4GjkStatus@01@AEBU?$RelativeConvex@VBoxV@Gu@physx@@@01@AEBU?$LocalConvex@VConvexHullNoScaleV@Gu@physx@@@01@AEBT__m128@@2_NPEIAE4PEIAT5@5AEAEAEAUGjkOutput@01@@Z 0000000180125ab0 f i GuPCMContactBoxConvex.obj
 0001:001266a0       ?pcmContactBoxConvex@Gu@physx@@YA_NAEBVPxGeometry@2@0AEBUPxTransformPadded@2@1AEBUNarrowPhaseParams@12@AEAUCache@12@AEAVPxContactBuffer@2@PEAVPxRenderOutput@2@@Z 00000001801276a0 f   GuPCMContactBoxConvex.obj
 0001:001274a0       ?support@?$LocalConvex@VConvexHullNoScaleV@Gu@physx@@@Gu@physx@@UEBA?AT__m128@@AEBT4@@Z 00000001801284a0 f i GuPCMContactBoxConvex.obj
 0001:001274f0       ?support@?$LocalConvex@VConvexHullNoScaleV@Gu@physx@@@Gu@physx@@UEBA?AT__m128@@AEBT4@AEAH@Z 00000001801284f0 f i GuPCMContactBoxConvex.obj
 0001:00127550       ?supportPoint@?$LocalConvex@VConvexHullNoScaleV@Gu@physx@@@Gu@physx@@UEBA?AT__m128@@H@Z 0000000180128550 f i GuPCMContactBoxConvex.obj
 0001:00127580       ?pcmContactCapsuleBox@Gu@physx@@YA_NAEBVPxGeometry@2@0AEBUPxTransformPadded@2@1AEBUNarrowPhaseParams@12@AEAUCache@12@AEAVPxContactBuffer@2@PEAVPxRenderOutput@2@@Z 0000000180128580 f   GuPCMContactCapsuleBox.obj
 0001:001284f0       ?pcmContactCapsuleCapsule@Gu@physx@@YA_NAEBVPxGeometry@2@0AEBUPxTransformPadded@2@1AEBUNarrowPhaseParams@12@AEAUCache@12@AEAVPxContactBuffer@2@PEAVPxRenderOutput@2@@Z 00000001801294f0 f   GuPCMContactCapsuleCapsule.obj
 0001:00128c90       ??$gjkPenetration@U?$LocalConvex@VCapsuleV@Gu@physx@@@Gu@physx@@U?$LocalConvex@VConvexHullNoScaleV@Gu@physx@@@23@@Gu@physx@@YA?AW4GjkStatus@01@AEBU?$LocalConvex@VCapsuleV@Gu@physx@@@01@AEBU?$LocalConvex@VConvexHullNoScaleV@Gu@physx@@@01@AEBT__m128@@2_NPEIAE4AEAEAEAUGjkOutput@01@@Z 0000000180129c90 f i GuPCMContactCapsuleConvex.obj
 0001:00128d00       ??$gjkPenetration@U?$LocalConvex@VCapsuleV@Gu@physx@@@Gu@physx@@U?$LocalConvex@VConvexHullNoScaleV@Gu@physx@@@23@@Gu@physx@@YA?AW4GjkStatus@01@AEBU?$LocalConvex@VCapsuleV@Gu@physx@@@01@AEBU?$LocalConvex@VConvexHullNoScaleV@Gu@physx@@@01@AEBT__m128@@2_NPEIAE4PEIAT5@5AEAEAEAUGjkOutput@01@@Z 0000000180129d00 f i GuPCMContactCapsuleConvex.obj
 0001:0012a3e0       ?pcmContactCapsuleConvex@Gu@physx@@YA_NAEBVPxGeometry@2@0AEBUPxTransformPadded@2@1AEBUNarrowPhaseParams@12@AEAUCache@12@AEAVPxContactBuffer@2@PEAVPxRenderOutput@2@@Z 000000018012b3e0 f   GuPCMContactCapsuleConvex.obj
 0001:0012b5c0       ??_EPCMCapsuleVsHeightfieldContactGenerationCallback@@UEAAPEAXI@Z 000000018012c5c0 f i GuPCMContactCapsuleHeightField.obj
 0001:0012b5c0       ??_GPCMCapsuleVsHeightfieldContactGenerationCallback@@UEAAPEAXI@Z 000000018012c5c0 f i GuPCMContactCapsuleHeightField.obj
 0001:0012b5f0       ?pcmContactCapsuleHeightField@Gu@physx@@YA_NAEBVPxGeometry@2@0AEBUPxTransformPadded@2@1AEBUNarrowPhaseParams@12@AEAUCache@12@AEAVPxContactBuffer@2@PEAVPxRenderOutput@2@@Z 000000018012c5f0 f   GuPCMContactCapsuleHeightField.obj
 0001:0012c510       ?reportTouchedTris@?$PCMHeightfieldContactGenerationCallback@UPCMCapsuleVsHeightfieldContactGenerationCallback@@@Gu@physx@@UEAA_NIPEBI@Z 000000018012d510 f i GuPCMContactCapsuleHeightField.obj
 0001:0012cb80       ?generateContacts@PCMCapsuleVsMeshContactGeneration@Gu@physx@@SAXAEBT__m128@@0000I000PEAVMeshPersistentContact@23@AEAI@Z 000000018012db80 f   GuPCMContactCapsuleMesh.obj
 0001:0012cfa0       ?generateEE@PCMCapsuleVsMeshContactGeneration@Gu@physx@@QEAAXAEBT__m128@@000I00PEAVMeshPersistentContact@23@AEAI@Z 000000018012dfa0 f   GuPCMContactCapsuleMesh.obj
 0001:0012d210       ?generateEEMTD@PCMCapsuleVsMeshContactGeneration@Gu@physx@@SAXAEBT__m128@@000I00PEAVMeshPersistentContact@23@AEAI@Z 000000018012e210 f   GuPCMContactCapsuleMesh.obj
 0001:0012d440       ?pcmContactCapsuleMesh@Gu@physx@@YA_NAEBVPxGeometry@2@0AEBUPxTransformPadded@2@1AEBUNarrowPhaseParams@12@AEAUCache@12@AEAVPxContactBuffer@2@PEAVPxRenderOutput@2@@Z 000000018012e440 f   GuPCMContactCapsuleMesh.obj
 0001:0012ecb0       ?pcmDistanceSegmentTriangleSquaredExported@@YA?AT__m128@@AEBT1@0000AEAT1@11@Z 000000018012fcb0 f   GuPCMContactCapsuleMesh.obj
 0001:0012f110       ?processTriangle@PCMCapsuleVsMeshContactGeneration@Gu@physx@@QEAA_NPEBV?$PxVec3T@M@3@IEPEBI@Z 0000000180130110 f   GuPCMContactCapsuleMesh.obj
 0001:0012fd10       ?processTriangle@PCMCapsuleVsMeshContactGeneration@Gu@physx@@SA_NAEBVTriangleV@23@IAEBVCapsuleV@23@AEBT__m128@@EPEAVMeshPersistentContact@23@AEAI@Z 0000000180130d10 f   GuPCMContactCapsuleMesh.obj
 0001:00130040       ?addContactsToPatch@PCMConvexVsMeshContactGeneration@Gu@physx@@QEAAXAEBT__m128@@I@Z 0000000180131040 f   GuPCMContactConvexCommon.obj
 0001:00130980       ?doSupport@?$SupportLocalImpl@VTriangleV@Gu@physx@@@Gu@physx@@UEBA?AT__m128@@AEBT4@@Z 0000000180131980 f i GuPCMContactConvexCommon.obj
 0001:00130a10       ?doSupport@?$SupportLocalImpl@VTriangleV@Gu@physx@@@Gu@physx@@UEBAXAEBT__m128@@AEAT4@1@Z 0000000180131a10 f i GuPCMContactConvexCommon.obj
 0001:00130a80       ?generateLastContacts@PCMConvexVsMeshContactGeneration@Gu@physx@@QEAAXXZ 0000000180131a80 f   GuPCMContactConvexCommon.obj
 0001:00130fe0       ?populateVerts@?$SupportLocalImpl@VTriangleV@Gu@physx@@@Gu@physx@@UEBAXPEBEIPEBV?$PxVec3T@M@3@PEAT__m128@@@Z 0000000180131fe0 f i GuPCMContactConvexCommon.obj
 0001:00131120       ?processTriangle@PCMConvexVsMeshContactGeneration@Gu@physx@@QEAA_NPEBV?$PxVec3T@M@3@IEPEBI@Z 0000000180132120 f   GuPCMContactConvexCommon.obj
 0001:00131670       ?processTriangle@PCMConvexVsMeshContactGeneration@Gu@physx@@SA_NAEBUPolygonalData@23@PEBVSupportLocal@23@PEBV?$PxVec3T@M@3@IEAEBT__m128@@_NAEBVPxTransformV@aos@3@AEBVPxMatTransformV@93@PEAVMeshPersistentContact@23@AEAI@Z 0000000180132670 f   GuPCMContactConvexCommon.obj
 0001:001318f0       ??$gjkPenetration@U?$RelativeConvex@VConvexHullNoScaleV@Gu@physx@@@Gu@physx@@U?$LocalConvex@VConvexHullNoScaleV@Gu@physx@@@23@@Gu@physx@@YA?AW4GjkStatus@01@AEBU?$RelativeConvex@VConvexHullNoScaleV@Gu@physx@@@01@AEBU?$LocalConvex@VConvexHullNoScaleV@Gu@physx@@@01@AEBT__m128@@2_NPEIAE4AEAEAEAUGjkOutput@01@@Z 00000001801328f0 f i GuPCMContactConvexConvex.obj
 0001:00131960       ??$gjkPenetration@U?$RelativeConvex@VConvexHullNoScaleV@Gu@physx@@@Gu@physx@@U?$LocalConvex@VConvexHullNoScaleV@Gu@physx@@@23@@Gu@physx@@YA?AW4GjkStatus@01@AEBU?$RelativeConvex@VConvexHullNoScaleV@Gu@physx@@@01@AEBU?$LocalConvex@VConvexHullNoScaleV@Gu@physx@@@01@AEBT__m128@@2_NPEIAE4PEIAT5@5AEAEAEAUGjkOutput@01@@Z 0000000180132960 f i GuPCMContactConvexConvex.obj
 0001:00132e90       ??$gjkPenetration@U?$RelativeConvex@VConvexHullNoScaleV@Gu@physx@@@Gu@physx@@U?$LocalConvex@VConvexHullV@Gu@physx@@@23@@Gu@physx@@YA?AW4GjkStatus@01@AEBU?$RelativeConvex@VConvexHullNoScaleV@Gu@physx@@@01@AEBU?$LocalConvex@VConvexHullV@Gu@physx@@@01@AEBT__m128@@2_NPEIAE4AEAEAEAUGjkOutput@01@@Z 0000000180133e90 f i GuPCMContactConvexConvex.obj
 0001:00132f00       ??$gjkPenetration@U?$RelativeConvex@VConvexHullNoScaleV@Gu@physx@@@Gu@physx@@U?$LocalConvex@VConvexHullV@Gu@physx@@@23@@Gu@physx@@YA?AW4GjkStatus@01@AEBU?$RelativeConvex@VConvexHullNoScaleV@Gu@physx@@@01@AEBU?$LocalConvex@VConvexHullV@Gu@physx@@@01@AEBT__m128@@2_NPEIAE4PEIAT5@5AEAEAEAUGjkOutput@01@@Z 0000000180133f00 f i GuPCMContactConvexConvex.obj
 0001:001344c0       ??$gjkPenetration@U?$RelativeConvex@VConvexHullV@Gu@physx@@@Gu@physx@@U?$LocalConvex@VConvexHullNoScaleV@Gu@physx@@@23@@Gu@physx@@YA?AW4GjkStatus@01@AEBU?$RelativeConvex@VConvexHullV@Gu@physx@@@01@AEBU?$LocalConvex@VConvexHullNoScaleV@Gu@physx@@@01@AEBT__m128@@2_NPEIAE4AEAEAEAUGjkOutput@01@@Z 00000001801354c0 f i GuPCMContactConvexConvex.obj
 0001:00134530       ??$gjkPenetration@U?$RelativeConvex@VConvexHullV@Gu@physx@@@Gu@physx@@U?$LocalConvex@VConvexHullNoScaleV@Gu@physx@@@23@@Gu@physx@@YA?AW4GjkStatus@01@AEBU?$RelativeConvex@VConvexHullV@Gu@physx@@@01@AEBU?$LocalConvex@VConvexHullNoScaleV@Gu@physx@@@01@AEBT__m128@@2_NPEIAE4PEIAT5@5AEAEAEAUGjkOutput@01@@Z 0000000180135530 f i GuPCMContactConvexConvex.obj
 0001:00136560       ?pcmContactConvexConvex@Gu@physx@@YA_NAEBVPxGeometry@2@0AEBUPxTransformPadded@2@1AEBUNarrowPhaseParams@12@AEAUCache@12@AEAVPxContactBuffer@2@PEAVPxRenderOutput@2@@Z 0000000180137560 f   GuPCMContactConvexConvex.obj
 0001:00137650       ?support@?$RelativeConvex@VConvexHullNoScaleV@Gu@physx@@@Gu@physx@@UEBA?AT__m128@@AEBT4@@Z 0000000180138650 f i GuPCMContactConvexConvex.obj
 0001:00137700       ?support@?$RelativeConvex@VConvexHullNoScaleV@Gu@physx@@@Gu@physx@@UEBA?AT__m128@@AEBT4@AEAH@Z 0000000180138700 f i GuPCMContactConvexConvex.obj
 0001:001377c0       ?supportPoint@?$RelativeConvex@VConvexHullNoScaleV@Gu@physx@@@Gu@physx@@UEBA?AT__m128@@H@Z 00000001801387c0 f i GuPCMContactConvexConvex.obj
 0001:00137850       ?PCMContactConvexHeightfield@Gu@physx@@YA_NAEBUPolygonalData@12@PEBVSupportLocal@12@AEBT__m128@@AEBVPxBounds3@2@AEBVPxHeightFieldGeometry@2@AEBV?$PxTransformT@M@2@5MAEAVPxContactBuffer@2@AEBVFastVertex2ShapeScaling@Cm@2@_NAEAVMultiplePersistentContactManifold@12@PEAVPxRenderOutput@2@@Z 0000000180138850 f   GuPCMContactConvexHeightField.obj
 0001:001386f0       ?pcmContactBoxHeightField@Gu@physx@@YA_NAEBVPxGeometry@2@0AEBUPxTransformPadded@2@1AEBUNarrowPhaseParams@12@AEAUCache@12@AEAVPxContactBuffer@2@PEAVPxRenderOutput@2@@Z 00000001801396f0 f   GuPCMContactConvexHeightField.obj
 0001:00138990       ?pcmContactConvexHeightField@Gu@physx@@YA_NAEBVPxGeometry@2@0AEBUPxTransformPadded@2@1AEBUNarrowPhaseParams@12@AEAUCache@12@AEAVPxContactBuffer@2@PEAVPxRenderOutput@2@@Z 0000000180139990 f   GuPCMContactConvexHeightField.obj
 0001:001396d0       ?PCMContactConvexMesh@Gu@physx@@YA_NAEBUPolygonalData@12@PEBVSupportLocal@12@AEBT__m128@@AEBVPxBounds3@2@AEBVPxTriangleMeshGeometry@2@AEBV?$PxTransformT@M@2@5MAEAVPxContactBuffer@2@AEBVFastVertex2ShapeScaling@Cm@2@7_N8AEAVMultiplePersistentContactManifold@12@PEAVPxRenderOutput@2@@Z 000000018013a6d0 f   GuPCMContactConvexMesh.obj
 0001:0013a1d0       ?pcmContactBoxMesh@Gu@physx@@YA_NAEBVPxGeometry@2@0AEBUPxTransformPadded@2@1AEBUNarrowPhaseParams@12@AEAUCache@12@AEAVPxContactBuffer@2@PEAVPxRenderOutput@2@@Z 000000018013b1d0 f   GuPCMContactConvexMesh.obj
 0001:0013a510       ?pcmContactConvexMesh@Gu@physx@@YA_NAEBVPxGeometry@2@0AEBUPxTransformPadded@2@1AEBUNarrowPhaseParams@12@AEAUCache@12@AEAVPxContactBuffer@2@PEAVPxRenderOutput@2@@Z 000000018013b510 f   GuPCMContactConvexMesh.obj
 0001:0013b1a0       ?addGJKEPAContacts@Gu@physx@@YA_NPEBUGjkConvex@12@0AEBVPxMatTransformV@aos@2@W4GjkStatus@12@PEAVPersistentContact@12@T__m128@@4AEAUGjkOutput@12@AEAVPersistentContactManifold@12@@Z 000000018013c1a0 f   GuPCMContactGenBoxConvex.obj
 0001:0013b680       ?computeMTD@Gu@physx@@YA_NAEBUPolygonalData@12@0PEBVSupportLocal@12@1AEAT__m128@@2@Z 000000018013c680 f   GuPCMContactGenBoxConvex.obj
 0001:0013bcb0       ?generateFullContactManifold@Gu@physx@@YA_NAEBUPolygonalData@12@0PEBVSupportLocal@12@1PEAVPersistentContact@12@AEAIAEBT__m128@@444MM_NPEAVPxRenderOutput@2@M@Z 000000018013ccb0 f   GuPCMContactGenBoxConvex.obj
 0001:0013dc10       ?computeMTD@Gu@physx@@YA_NAEBVCapsuleV@12@AEBUPolygonalData@12@PEBVSupportLocal@12@AEAT__m128@@3@Z 000000018013ec10 f   GuPCMContactGenSphereCapsule.obj
 0001:0013dd00       ?generateCapsuleBoxFullContactManifold@Gu@physx@@YA_NAEBVCapsuleV@12@AEBUPolygonalData@12@PEBVSupportLocal@12@AEBVPxMatTransformV@aos@2@PEAVPersistentContact@12@AEAIAEBT__m128@@AEAT9@6M_NMPEAVPxRenderOutput@2@@Z 000000018013ed00 f   GuPCMContactGenSphereCapsule.obj
 0001:0013dea0       ?generateFullContactManifold@Gu@physx@@YA_NAEBVCapsuleV@12@AEBUPolygonalData@12@PEBVSupportLocal@12@AEBVPxMatTransformV@aos@2@PEAVPersistentContact@12@AEAIAEBT__m128@@AEAT9@6M_NM@Z 000000018013eea0 f   GuPCMContactGenSphereCapsule.obj
 0001:0013e090       ?generateSphereFullContactManifold@Gu@physx@@YA_NAEBVCapsuleV@12@AEBUPolygonalData@12@PEBVSupportLocal@12@PEAVPersistentContact@12@AEAIAEBT__m128@@AEAT7@_N@Z 000000018013f090 f   GuPCMContactGenSphereCapsule.obj
 0001:0013f560       ?pcmContactPlaneBox@Gu@physx@@YA_NAEBVPxGeometry@2@0AEBUPxTransformPadded@2@1AEBUNarrowPhaseParams@12@AEAUCache@12@AEAVPxContactBuffer@2@PEAVPxRenderOutput@2@@Z 0000000180140560 f   GuPCMContactPlaneBox.obj
 0001:00140120       ?pcmContactPlaneCapsule@Gu@physx@@YA_NAEBVPxGeometry@2@0AEBUPxTransformPadded@2@1AEBUNarrowPhaseParams@12@AEAUCache@12@AEAVPxContactBuffer@2@PEAVPxRenderOutput@2@@Z 0000000180141120 f   GuPCMContactPlaneCapsule.obj
 0001:001408a0       ?pcmContactPlaneConvex@Gu@physx@@YA_NAEBVPxGeometry@2@0AEBUPxTransformPadded@2@1AEBUNarrowPhaseParams@12@AEAUCache@12@AEAVPxContactBuffer@2@PEAVPxRenderOutput@2@@Z 00000001801418a0 f   GuPCMContactPlaneConvex.obj
 0001:00141500       ?pcmContactSphereBox@Gu@physx@@YA_NAEBVPxGeometry@2@0AEBUPxTransformPadded@2@1AEBUNarrowPhaseParams@12@AEAUCache@12@AEAVPxContactBuffer@2@PEAVPxRenderOutput@2@@Z 0000000180142500 f   GuPCMContactSphereBox.obj
 0001:00141960       ?pcmContactSphereCapsule@Gu@physx@@YA_NAEBVPxGeometry@2@0AEBUPxTransformPadded@2@1AEBUNarrowPhaseParams@12@AEAUCache@12@AEAVPxContactBuffer@2@PEAVPxRenderOutput@2@@Z 0000000180142960 f   GuPCMContactSphereCapsule.obj
 0001:00141dd0       ?pcmContactSphereConvex@Gu@physx@@YA_NAEBVPxGeometry@2@0AEBUPxTransformPadded@2@1AEBUNarrowPhaseParams@12@AEAUCache@12@AEAVPxContactBuffer@2@PEAVPxRenderOutput@2@@Z 0000000180142dd0 f   GuPCMContactSphereConvex.obj
 0001:00142a90       ??1?$PxArray@USortedTriangle@Gu@physx@@V?$PxInlineAllocator@$0IAA@V?$PxReflectionAllocator@USortedTriangle@Gu@physx@@@physx@@@3@@physx@@QEAA@XZ 0000000180143a90 f i GuPCMContactSphereHeightField.obj
 0001:00142b50       ?pcmContactSphereHeightField@Gu@physx@@YA_NAEBVPxGeometry@2@0AEBUPxTransformPadded@2@1AEBUNarrowPhaseParams@12@AEAUCache@12@AEAVPxContactBuffer@2@PEAVPxRenderOutput@2@@Z 0000000180143b50 f   GuPCMContactSphereHeightField.obj
 0001:00143bc0       ??$PxSort@USortedTriangle@Gu@physx@@U?$PxLess@USortedTriangle@Gu@physx@@@3@V?$PxReflectionAllocator@USortedTriangle@Gu@physx@@@3@@physx@@YAXPEAUSortedTriangle@Gu@0@IAEBU?$PxLess@USortedTriangle@Gu@physx@@@0@AEBV?$PxReflectionAllocator@USortedTriangle@Gu@physx@@@0@I@Z 0000000180144bc0 f i GuPCMContactSphereMesh.obj
 0001:001440e0       ??$processTriangleCache@$0BA@VPCMSphereVsMeshContactGeneration@Gu@physx@@@PCMMeshContactGeneration@Gu@physx@@QEAA_NAEAU?$TriangleCache@$0BA@@12@@Z 00000001801450e0 f i GuPCMContactSphereMesh.obj
 0001:001445b0       ?addToPatch@PCMSphereVsMeshContactGeneration@Gu@physx@@QEAAXAEBT__m128@@0T4@I@Z 00000001801455b0 f   GuPCMContactSphereMesh.obj
 0001:00144c70       ?allocate@?$PxArray@IV?$PxInlineAllocator@$0PAA@V?$PxReflectionAllocator@I@physx@@@physx@@@physx@@IEAAPEAIIPEAI@Z 0000000180145c70 f i GuPCMContactSphereMesh.obj
 0001:00144d30       ?allocate@?$PxArray@USortedTriangle@Gu@physx@@V?$PxInlineAllocator@$0IAA@V?$PxReflectionAllocator@USortedTriangle@Gu@physx@@@physx@@@3@@physx@@IEAAPEAUSortedTriangle@Gu@2@IPEAI@Z 0000000180145d30 f i GuPCMContactSphereMesh.obj
 0001:00144df0       ?generateLastContacts@PCMSphereVsMeshContactGeneration@Gu@physx@@QEAAXXZ 0000000180145df0 f   GuPCMContactSphereMesh.obj
 0001:00145420       ?growAndPushBack@?$PxArray@USortedTriangle@Gu@physx@@V?$PxInlineAllocator@$0IAA@V?$PxReflectionAllocator@USortedTriangle@Gu@physx@@@physx@@@3@@physx@@IEAAAEAUSortedTriangle@Gu@2@AEBU342@@Z 0000000180146420 f i GuPCMContactSphereMesh.obj
 0001:00145530       ?pcmContactSphereMesh@Gu@physx@@YA_NAEBVPxGeometry@2@0AEBUPxTransformPadded@2@1AEBUNarrowPhaseParams@12@AEAUCache@12@AEAVPxContactBuffer@2@PEAVPxRenderOutput@2@@Z 0000000180146530 f   GuPCMContactSphereMesh.obj
 0001:00146aa0       ?processTriangle@PCMSphereVsMeshContactGeneration@Gu@physx@@QEAA_NPEBV?$PxVec3T@M@3@IEPEBI@Z 0000000180147aa0 f   GuPCMContactSphereMesh.obj
 0001:00146e90       ?recreate@?$PxArray@IV?$PxInlineAllocator@$0PAA@V?$PxReflectionAllocator@I@physx@@@physx@@@physx@@IEAAXI@Z 0000000180147e90 f i GuPCMContactSphereMesh.obj
 0001:00146f50       ?pcmContactSpherePlane@Gu@physx@@YA_NAEBVPxGeometry@2@0AEBUPxTransformPadded@2@1AEBUNarrowPhaseParams@12@AEAUCache@12@AEAVPxContactBuffer@2@PEAVPxRenderOutput@2@@Z 0000000180147f50 f   GuPCMContactSpherePlane.obj
 0001:001470d0       ?pcmContactSphereSphere@Gu@physx@@YA_NAEBVPxGeometry@2@0AEBUPxTransformPadded@2@1AEBUNarrowPhaseParams@12@AEAUCache@12@AEAVPxContactBuffer@2@PEAVPxRenderOutput@2@@Z 00000001801480d0 f   GuPCMContactSphereSphere.obj
 0001:001479a0       ?pcmContactGeometryCustomGeometry@Gu@physx@@YA_NAEBVPxGeometry@2@0AEBUPxTransformPadded@2@1AEBUNarrowPhaseParams@12@AEAUCache@12@AEAVPxContactBuffer@2@PEAVPxRenderOutput@2@@Z 00000001801489a0 f   GuPCMContactCustomGeometry.obj
 0001:00147a50       ?getPCMConvexData@Gu@physx@@YAXAEBVConvexHullV@12@_NAEAUPolygonalData@12@@Z 0000000180148a50 f   GuPCMShapeConvex.obj
 0001:00147a90       ?getPCMConvexData@Gu@physx@@YA_NAEBVPxConvexMeshGeometry@2@AEAVFastVertex2ShapeScaling@Cm@2@AEAVPxBounds3@2@AEAUPolygonalData@12@@Z 0000000180148a90 f   GuPCMShapeConvex.obj
 0001:00148010       ?getPolygonalData@PCMPolygonalBox@Gu@physx@@QEBAXPEIAUPolygonalData@23@@Z 0000000180149010 f   GuPCMShapeConvex.obj
 0001:00148090       ?generatePolyDataContactManifold@PCMConvexVsMeshContactGeneration@Gu@physx@@QEAA_NAEBVTriangleV@23@IIEPEAVMeshPersistentContact@23@AEAIAEBT__m128@@AEAT6@@Z 0000000180149090 f   GuPCMTriangleContactGen.obj
 0001:001481b0       ?generateTriangleFullContactManifold@PCMConvexVsMeshContactGeneration@Gu@physx@@QEAA_NAEBVTriangleV@23@IPEBIEAEBUPolygonalData@23@PEBV?$SupportLocalImpl@VTriangleV@Gu@physx@@@23@PEBVSupportLocal@23@PEAVMeshPersistentContact@23@AEAIAEBT__m128@@AEAT9@@Z 00000001801491b0 f   GuPCMTriangleContactGen.obj
 0001:001486e0       ?generateTriangleFullContactManifold@PCMConvexVsMeshContactGeneration@Gu@physx@@SA_NAEBVTriangleV@23@IEAEBUPolygonalData@23@PEBV?$SupportLocalImpl@VTriangleV@Gu@physx@@@23@PEBVSupportLocal@23@PEAVMeshPersistentContact@23@AEAIAEBT__m128@@AEAT9@PEAVPxRenderOutput@3@@Z 00000001801496e0 f   GuPCMTriangleContactGen.obj
 0001:0014a770       ?addBatchManifoldContacts2@PersistentContactManifold@Gu@physx@@QEAAXPEBVPersistentContact@23@I@Z 000000018014b770 f   GuPersistentContactManifold.obj
 0001:0014a7e0       ?addBatchManifoldContacts@PersistentContactManifold@Gu@physx@@QEAAXPEBVPersistentContact@23@IM@Z 000000018014b7e0 f   GuPersistentContactManifold.obj
 0001:0014a860       ?addBatchManifoldContactsCluster@PersistentContactManifold@Gu@physx@@QEAAXPEBVPersistentContact@23@I@Z 000000018014b860 f   GuPersistentContactManifold.obj
 0001:0014aae0       ?addManifoldContactPoints@MultiplePersistentContactManifold@Gu@physx@@QEAAXPEAVMeshPersistentContact@23@IPEAPEAUPCMContactPatch@23@IAEBT__m128@@2E@Z 000000018014bae0 f   GuPersistentContactManifold.obj
 0001:0014aed0       ?addManifoldContactsToContactBuffer@MultiplePersistentContactManifold@Gu@physx@@QEAA_NAEAVPxContactBuffer@3@AEBVPxTransformV@aos@3@1AEBT__m128@@@Z 000000018014bed0 f   GuPersistentContactManifold.obj
 0001:0014b190       ?addManifoldContactsToContactBuffer@MultiplePersistentContactManifold@Gu@physx@@QEAA_NAEAVPxContactBuffer@3@AEBVPxTransformV@aos@3@@Z 000000018014c190 f   GuPersistentContactManifold.obj
 0001:0014b410       ?addManifoldContactsToContactBuffer@PersistentContactManifold@Gu@physx@@QEAAXAEAVPxContactBuffer@3@AEBT__m128@@1AEBVPxTransformV@aos@3@11@Z 000000018014c410 f   GuPersistentContactManifold.obj
 0001:0014b5a0       ?addManifoldContactsToContactBuffer@PersistentContactManifold@Gu@physx@@QEAAXAEAVPxContactBuffer@3@AEBT__m128@@AEBVPxMatTransformV@aos@3@@Z 000000018014c5a0 f   GuPersistentContactManifold.obj
 0001:0014b650       ?addManifoldContactsToContactBuffer@PersistentContactManifold@Gu@physx@@QEAAXAEAVPxContactBuffer@3@AEBT__m128@@AEBVPxTransformV@aos@3@1@Z 000000018014c650 f   GuPersistentContactManifold.obj
 0001:0014b7b0       ?addManifoldPoint2@PersistentContactManifold@Gu@physx@@QEAAIAEBT__m128@@000@Z 000000018014c7b0 f   GuPersistentContactManifold.obj
 0001:0014b8e0       ?addManifoldPoint@Gu@physx@@YAXPEAVPersistentContact@12@AEAVPersistentContactManifold@12@AEAUGjkOutput@12@AEBVPxMatTransformV@aos@2@T__m128@@@Z 000000018014c8e0 f   GuPersistentContactManifold.obj
 0001:0014ba90       ?addManifoldPoint@PersistentContactManifold@Gu@physx@@QEAAIAEBT__m128@@000@Z 000000018014ca90 f   GuPersistentContactManifold.obj
 0001:0014bed0       ?drawLine@MultiplePersistentContactManifold@Gu@physx@@SAXAEAVPxRenderOutput@3@AEBT__m128@@1I@Z 000000018014ced0 f   GuPersistentContactManifold.obj
 0001:0014bf80       ?drawLine@MultiplePersistentContactManifold@Gu@physx@@SAXAEAVPxRenderOutput@3@V?$PxVec3T@M@3@1I@Z 000000018014cf80 f   GuPersistentContactManifold.obj
 0001:0014bff0       ?drawManifold@MultiplePersistentContactManifold@Gu@physx@@QEBAXAEAVPxRenderOutput@3@AEBVPxTransformV@aos@3@1@Z 000000018014cff0 f   GuPersistentContactManifold.obj
 0001:0014c070       ?drawManifold@SinglePersistentContactManifold@Gu@physx@@QEBAXAEAVPxRenderOutput@3@AEBVPxTransformV@aos@3@1@Z 000000018014d070 f   GuPersistentContactManifold.obj
 0001:0014c6a0       ?drawPoint@MultiplePersistentContactManifold@Gu@physx@@SAXAEAVPxRenderOutput@3@AEBT__m128@@MI@Z 000000018014d6a0 f   GuPersistentContactManifold.obj
 0001:0014c8b0       ?drawPolygon@MultiplePersistentContactManifold@Gu@physx@@SAXAEAVPxRenderOutput@3@AEBVPxTransformV@aos@3@PEAT__m128@@II@Z 000000018014d8b0 f   GuPersistentContactManifold.obj
 0001:0014cb30       ?findRotationMatrixFromZAxis@Gu@physx@@YA?AUMat33V@aos@2@AEBT__m128@@@Z 000000018014db30 f   GuPersistentContactManifold.obj
 0001:0014cdb0       ?fromBuffer@MultiplePersistentContactManifold@Gu@physx@@QEAAXPEIAE@Z 000000018014ddb0 f   GuPersistentContactManifold.obj
 0001:0014cf00       ?reduceBatchContacts2@PersistentContactManifold@Gu@physx@@QEAAXPEBVPersistentContact@23@I@Z 000000018014df00 f   GuPersistentContactManifold.obj
 0001:0014d100       ?reduceBatchContacts@PersistentContactManifold@Gu@physx@@QEAAXPEBVPersistentContact@23@IM@Z 000000018014e100 f   GuPersistentContactManifold.obj
 0001:0014d5c0       ?reduceBatchContactsCapsule@SinglePersistentContactManifold@Gu@physx@@QEAA?AT__m128@@PEBVMeshPersistentContact@23@IAEAUPCMContactPatch@23@@Z 000000018014e5c0 f   GuPersistentContactManifold.obj
 0001:0014d850       ?reduceBatchContactsCluster@PersistentContactManifold@Gu@physx@@QEAAXPEBVPersistentContact@23@I@Z 000000018014e850 f   GuPersistentContactManifold.obj
 0001:0014dce0       ?reduceBatchContactsConvex@SinglePersistentContactManifold@Gu@physx@@QEAA?AT__m128@@PEBVMeshPersistentContact@23@IAEAUPCMContactPatch@23@@Z 000000018014ece0 f   GuPersistentContactManifold.obj
 0001:0014e2d0       ?reduceContacts@SinglePersistentContactManifold@Gu@physx@@SAIPEAVMeshPersistentContact@23@I@Z 000000018014f2d0 f   GuPersistentContactManifold.obj
 0001:0014e850       ?reduceContactsForPCM@PersistentContactManifold@Gu@physx@@QEAAIAEBT__m128@@00@Z 000000018014f850 f   GuPersistentContactManifold.obj
 0001:0014edf0       ?refreshContactPoints@SinglePersistentContactManifold@Gu@physx@@QEAA?AT__m128@@AEBVPxMatTransformV@aos@3@AEBT4@1@Z 000000018014fdf0 f   GuPersistentContactManifold.obj
 0001:0014ef40       ?replaceManifoldPoint@PersistentContactManifold@Gu@physx@@QEAA_NAEBT__m128@@000@Z 000000018014ff40 f   GuPersistentContactManifold.obj
 0001:0014f000       ?toBuffer@MultiplePersistentContactManifold@Gu@physx@@QEBAXPEIAE@Z 0000000180150000 f   GuPersistentContactManifold.obj
 0001:0014f0e0       ?contains@Gu@physx@@YA_NPEAT__m128@@IAEBT3@11@Z 00000001801500e0 f   GuPCMContactGenUtil.obj
 0001:0014f2a0       ?getPolygonIndex@Gu@physx@@YAHAEBUPolygonalData@12@PEBVSupportLocal@12@AEBT__m128@@AEAH@Z 00000001801502a0 f   GuPCMContactGenUtil.obj
 0001:0014f540       ?getWitnessPolygonIndex@Gu@physx@@YAIAEBUPolygonalData@12@PEBVSupportLocal@12@AEBT__m128@@2M@Z 0000000180150540 f   GuPCMContactGenUtil.obj
 0001:0014fa90       ?sweepBoxBox@Gu@physx@@YA_NAEBVBox@12@0AEBV?$PxVec3T@M@2@MV?$PxFlags@W4Enum@PxHitFlag@physx@@G@2@AEAUPxGeomSweepHit@2@@Z 0000000180150a90 f   GuSweepBoxBox.obj
 0001:001510d0       ?sweepBoxSphere@Gu@physx@@YA_NAEBVBox@12@MAEBV?$PxVec3T@M@2@1MAEAMAEAV42@V?$PxFlags@W4Enum@PxHitFlag@physx@@G@2@@Z 00000001801520d0 f   GuSweepBoxSphere.obj
 0001:00151d90       ?sweepBoxTriangle@Gu@physx@@YA_NAEBVPxTriangle@2@AEBVPxBounds3@2@AEBV?$PxVec3T@M@2@2AEAV52@3AEAM_N@Z 0000000180152d90 f   GuSweepBoxTriangle_FeatureBased.obj
 0001:001534b0       ?triBoxSweepTestBoxSpace@Gu@physx@@YAHAEBVPxTriangle@2@AEBV?$PxVec3T@M@2@11MAEAM_N@Z 00000001801544b0 f   GuSweepBoxTriangle_SAT.obj
 0001:00154db0       ?sweepCapsuleBox@Gu@physx@@YA_NAEBVCapsule@12@AEBV?$PxTransformT@M@2@AEBV?$PxVec3T@M@2@2MAEAV52@AEAM3V?$PxFlags@W4Enum@PxHitFlag@physx@@G@2@@Z 0000000180155db0 f   GuSweepCapsuleBox.obj
 0001:00155110       ?distancePointSegmentSquared@Gu@physx@@YAMAEBVSegment@12@AEBV?$PxVec3T@M@2@PEAM@Z 0000000180156110 f i GuSweepCapsuleCapsule.obj
 0001:00155220       ?edgeEdgeDist@@YAXAEAV?$PxVec3T@M@physx@@0AEBV12@111@Z 0000000180156220 f   GuSweepCapsuleCapsule.obj
 0001:00155490       ?sweepCapsuleCapsule@Gu@physx@@YA_NAEBVCapsule@12@0AEBV?$PxVec3T@M@2@MAEAMAEAV42@3IAEAG@Z 0000000180156490 f   GuSweepCapsuleCapsule.obj
 0001:001562a0       ?sweepCapsuleTriangles_Precise@Gu@physx@@YA_NIPEIBVPxTriangle@2@AEBVCapsule@12@AEBV?$PxVec3T@M@2@MPEIBIAEAUPxGeomSweepHit@2@AEAV52@V?$PxFlags@W4Enum@PxHitFlag@physx@@G@2@_NPEBVBoxPadded@12@@Z 00000001801572a0 f   GuSweepCapsuleTriangle.obj
 0001:00158440       ?sweepSphereCapsule@Gu@physx@@YA_NAEBVSphere@12@AEBVCapsule@12@AEBV?$PxVec3T@M@2@MAEAMAEAV52@4V?$PxFlags@W4Enum@PxHitFlag@physx@@G@2@@Z 0000000180159440 f   GuSweepSphereCapsule.obj
 0001:00158ae0       ?sweepSphereSphere@Gu@physx@@YA_NAEBV?$PxVec3T@M@2@M0M0AEAMAEAV32@@Z 0000000180159ae0 f   GuSweepSphereSphere.obj
 0001:00158d50       ?sweepSphereTriangles@Gu@physx@@YA_NIPEIBVPxTriangle@2@AEBV?$PxVec3T@M@2@M1MPEIBIAEAUPxGeomSweepHit@2@AEAV42@_N555@Z 0000000180159d50 f   GuSweepSphereTriangle.obj
 0001:00159620       ?sweepSphereVSQuad@Gu@physx@@YA_NPEIBV?$PxVec3T@M@2@AEBV32@1M1AEAM@Z 000000018015a620 f   GuSweepSphereTriangle.obj
 0001:0015a600       ?sweepSphereVSTri@Gu@physx@@YA_NPEIBV?$PxVec3T@M@2@AEBV32@1M1AEAMAEA_N_N@Z 000000018015b600 f   GuSweepSphereTriangle.obj
 0001:0015b320       ??$gjk@U?$LocalConvex@VTriangleV@Gu@physx@@@Gu@physx@@U?$LocalConvex@VBoxV@Gu@physx@@@23@@Gu@physx@@YA?AW4GjkStatus@01@AEBU?$LocalConvex@VTriangleV@Gu@physx@@@01@AEBU?$LocalConvex@VBoxV@Gu@physx@@@01@AEBT__m128@@2AEAT5@333@Z 000000018015c320 f i GuSweepTriangleUtils.obj
 0001:0015c010       ?computeBoxTriImpactData@Gu@physx@@YAXAEAV?$PxVec3T@M@2@0AEBV32@1AEBVPxTriangle@2@M@Z 000000018015d010 f   GuSweepTriangleUtils.obj
 0001:0015c2a0       ?computeEdgeEdgeNormal@Gu@physx@@YAXAEAV?$PxVec3T@M@2@AEBV32@1111M@Z 000000018015d2a0 f   GuSweepTriangleUtils.obj
 0001:0015c550       ?computeSphereTriImpactData@Gu@physx@@YAXAEAV?$PxVec3T@M@2@0AEBV32@1MAEBVPxTriangle@2@@Z 000000018015d550 f   GuSweepTriangleUtils.obj
 0001:0015ca30       ??0ShapeData@Gu@physx@@QEAA@AEBVPxGeometry@2@AEBV?$PxTransformT@M@2@M@Z 000000018015da30 f   GuBounds.obj
 0001:0015cfa0       ?computeBounds@Gu@physx@@YAXAEAVPxBounds3@2@AEBVPxGeometry@2@AEBV?$PxTransformT@M@2@MM@Z 000000018015dfa0 f   GuBounds.obj
 0001:0015db20       ?computeBoundsAroundVertices@Gu@physx@@YAXAEAVPxBounds3@2@IPEIBV?$PxVec3T@M@2@@Z 000000018015eb20 f   GuBounds.obj
 0001:0015dbd0       ?computeGlobalBox@Gu@physx@@YAXAEAVPxBounds3@2@IPEIBV32@PEIBI@Z 000000018015ebd0 f   GuBounds.obj
 0001:0015dc60       ?computeLocalBoundsAndGeomEpsilon@Gu@physx@@YAXPEBV?$PxVec3T@M@2@IAEAVPxBounds3@2@AEAM@Z 000000018015ec60 f   GuBounds.obj
 0001:0015ed80       ?computeTightBounds@Gu@physx@@YAXAEAVPxBounds3@2@IPEIBV?$PxVec3T@M@2@AEBV?$PxTransformT@M@2@AEBVPxMeshScale@2@MM@Z 000000018015fd80 f   GuBounds.obj
 0001:0015f140       ??0AABBTree@Gu@physx@@QEAA@XZ 0000000180160140 f   GuAABBTree.obj
 0001:0015f170       ??0BVHPartialRefitData@Gu@physx@@QEAA@XZ 0000000180160170 f   GuAABBTree.obj
 0001:0015f1a0       ??0NodeAllocator@Gu@physx@@QEAA@XZ 00000001801601a0 f   GuAABBTree.obj
 0001:0015f1c0       ??1AABBTree@Gu@physx@@QEAA@XZ 00000001801601c0 f   GuAABBTree.obj
 0001:0015f1e0       ??1BVHPartialRefitData@Gu@physx@@QEAA@XZ 00000001801601e0 f   GuAABBTree.obj
 0001:0015f280       ??1NodeAllocator@Gu@physx@@QEAA@XZ 0000000180160280 f   GuAABBTree.obj
 0001:0015f2d0       ?addRuntimeChilds@AABBTree@Gu@physx@@AEAAXAEAIAEBVAABBTreeMergeData@23@@Z 00000001801602d0 f   GuAABBTree.obj
 0001:0015f3d0       ?allocate@?$PxArray@PEAVAABBTreeBuildNode@Gu@physx@@V?$PxInlineAllocator@$0IAA@V?$PxReflectionAllocator@PEAVAABBTreeBuildNode@Gu@physx@@@physx@@@3@@physx@@IEAAPEAPEAVAABBTreeBuildNode@Gu@2@IPEAI@Z 00000001801603d0 f i GuAABBTree.obj
 0001:0015f490       ?build@AABBTree@Gu@physx@@QEAA_NAEBVAABBTreeBuildParams@23@AEAVNodeAllocator@23@@Z 0000000180160490 f   GuAABBTree.obj
 0001:0015f540       ?buildAABBTree@Gu@physx@@YAPEAIAEBVAABBTreeBuildParams@12@AEAVNodeAllocator@12@AEAUBuildStats@12@@Z 0000000180160540 f   GuAABBTree.obj
 0001:0015f5b0       ?buildAABBTree@Gu@physx@@YAXIAEBVAABBTreeBounds@12@AEAV?$PxArray@UBVHNode@Gu@physx@@V?$PxReflectionAllocator@UBVHNode@Gu@physx@@@3@@2@@Z 00000001801605b0 f   GuAABBTree.obj
 0001:0015f760       ?buildEnd@AABBTree@Gu@physx@@AEAAXAEBVAABBTreeBuildParams@23@AEAVNodeAllocator@23@AEBUBuildStats@23@@Z 0000000180160760 f   GuAABBTree.obj
 0001:0015fbe0       ?createUpdateMap@BVHPartialRefitData@Gu@physx@@QEAAXI@Z 0000000180160be0 f   GuAABBTree.obj
 0001:0015fd00       ?flattenTree@Gu@physx@@YAXAEBVNodeAllocator@12@PEAUBVHNode@12@PEBI@Z 0000000180160d00 f   GuAABBTree.obj
 0001:0015fef0       ?fullRefit@BVHCoreData@Gu@physx@@QEAAXPEBVPxBounds3@3@@Z 0000000180160ef0 f   GuAABBTree.obj
 0001:001600b0       ?getBiNode@NodeAllocator@Gu@physx@@QEAAPEAVAABBTreeBuildNode@23@XZ 00000001801610b0 f   GuAABBTree.obj
 0001:001601e0       ?getParentIndices@BVHPartialRefitData@Gu@physx@@IEAAPEAIXZ 00000001801611e0 f   GuAABBTree.obj
 0001:00160270       ?growAndPushBack@?$PxArray@PEAVAABBTreeBuildNode@Gu@physx@@V?$PxReflectionAllocator@PEAVAABBTreeBuildNode@Gu@physx@@@3@@physx@@IEAAAEAPEAVAABBTreeBuildNode@Gu@2@AEBQEAV342@@Z 0000000180161270 f i GuAABBTree.obj
 0001:00160390       ?growAndPushBack@?$PxArray@USlab@NodeAllocator@Gu@physx@@V?$PxReflectionAllocator@USlab@NodeAllocator@Gu@physx@@@4@@physx@@IEAAAEAUSlab@NodeAllocator@Gu@2@AEBU3452@@Z 0000000180161390 f i GuAABBTree.obj
 0001:001604b0       ?init@AABBTreeBounds@Gu@physx@@QEAAXIPEBVPxBounds3@3@@Z 00000001801614b0 f   GuAABBTree.obj
 0001:00160570       ?init@NodeAllocator@Gu@physx@@QEAAXII@Z 0000000180161570 f   GuAABBTree.obj
 0001:001608b0       ?initTree@AABBTree@Gu@physx@@QEAAXAEBVAABBTreeMergeData@23@@Z 00000001801618b0 f   GuAABBTree.obj
 0001:001609e0       ?markNodeForRefit@BVHPartialRefitData@Gu@physx@@QEAAXI@Z 00000001801619e0 f   GuAABBTree.obj
 0001:00160af0       ?mergeRuntimeLeaf@AABBTree@Gu@physx@@AEAAXAEAUBVHNode@23@AEBVAABBTreeMergeData@23@I@Z 0000000180161af0 f   GuAABBTree.obj
 0001:00160d40       ?mergeRuntimeNode@AABBTree@Gu@physx@@AEAAXAEAUBVHNode@23@AEBVAABBTreeMergeData@23@I@Z 0000000180161d40 f   GuAABBTree.obj
 0001:00161060       ?mergeTree@AABBTree@Gu@physx@@QEAAXAEBVAABBTreeMergeData@23@@Z 0000000180162060 f   GuAABBTree.obj
 0001:001612f0       ?progressiveBuild@AABBTree@Gu@physx@@QEAAIAEBVAABBTreeBuildParams@23@AEAVNodeAllocator@23@AEAUBuildStats@23@II@Z 00000001801622f0 f   GuAABBTree.obj
 0001:001615a0       ?recreate@?$PxArray@PEAVAABBTreeBuildNode@Gu@physx@@V?$PxInlineAllocator@$0IAA@V?$PxReflectionAllocator@PEAVAABBTreeBuildNode@Gu@physx@@@physx@@@3@@physx@@IEAAXI@Z 00000001801625a0 f i GuAABBTree.obj
 0001:00161660       ?refitMarkedNodes@BVHPartialRefitData@Gu@physx@@QEAAXPEBVPxBounds3@3@@Z 0000000180162660 f   GuAABBTree.obj
 0001:001617d0       ?release@AABBTree@Gu@physx@@QEAAX_N@Z 00000001801627d0 f   GuAABBTree.obj
 0001:001618c0       ?release@AABBTreeBounds@Gu@physx@@QEAAXXZ 00000001801628c0 f   GuAABBTree.obj
 0001:00161910       ?release@NodeAllocator@Gu@physx@@QEAAXXZ 0000000180162910 f   GuAABBTree.obj
 0001:001619c0       ?releasePartialRefitData@BVHPartialRefitData@Gu@physx@@QEAAX_N@Z 00000001801629c0 f   GuAABBTree.obj
 0001:00161a50       ?reshuffle@Gu@physx@@YAIIQEIAIPEIBV?$PxVec3T@M@2@MI@Z 0000000180162a50 f   GuAABBTree.obj
 0001:00161b90       ?resize@?$PxArray@USlab@NodeAllocator@Gu@physx@@V?$PxReflectionAllocator@USlab@NodeAllocator@Gu@physx@@@4@@physx@@QEAAXIAEBUSlab@NodeAllocator@Gu@2@@Z 0000000180162b90 f i GuAABBTree.obj
 0001:00161c10       ?resize@AABBTreeBounds@Gu@physx@@QEAAXII@Z 0000000180162c10 f   GuAABBTree.obj
 0001:00161cb0       ?resizeUninitialized@?$PxArray@PEAVAABBTreeBuildNode@Gu@physx@@V?$PxInlineAllocator@$0IAA@V?$PxReflectionAllocator@PEAVAABBTreeBuildNode@Gu@physx@@@physx@@@3@@physx@@QEAAXI@Z 0000000180162cb0 f i GuAABBTree.obj
 0001:00161d00       ?shiftIndices@AABBTree@Gu@physx@@QEAAXI@Z 0000000180162d00 f   GuAABBTree.obj
 0001:00161d20       ?shiftOrigin@AABBTree@Gu@physx@@QEAAXAEBV?$PxVec3T@M@3@@Z 0000000180162d20 f   GuAABBTree.obj
 0001:00162090       ?subdivide@AABBTreeBuildNode@Gu@physx@@QEAAXAEBVAABBTreeBuildParams@23@AEAUBuildStats@23@AEAVNodeAllocator@23@QEAI@Z 0000000180163090 f   GuAABBTree.obj
 0001:00162290       ?subdivideSAH@AABBTreeBuildNode@Gu@physx@@QEAAXAEBVAABBTreeBuildParams@23@AEAUSAH_Buffers@23@AEAUBuildStats@23@AEAVNodeAllocator@23@QEAI@Z 0000000180163290 f   GuAABBTree.obj
 0001:00162380       ?traverseRuntimeNode@AABBTree@Gu@physx@@AEAAXAEAUBVHNode@23@AEBVAABBTreeMergeData@23@I@Z 0000000180163380 f   GuAABBTree.obj
 0001:001624c0       ?initMap@AABBTreeUpdateMap@Gu@physx@@QEAAXIAEBVAABBTree@23@@Z 00000001801634c0 f   GuAABBTreeUpdateMap.obj
 0001:00162650       ?invalidate@AABBTreeUpdateMap@Gu@physx@@QEAAXIIAEAVAABBTree@23@@Z 0000000180163650 f   GuAABBTreeUpdateMap.obj
 0001:001628f0       ?visualizeTree@@YAXAEAVPxRenderOutput@physx@@IPEBVAABBTree@Gu@2@@Z 00000001801638f0 f   GuSqInternal.obj
 0001:00162960       ?visualizeTree@@YAXAEAVPxRenderOutput@physx@@IPEBVBVH@Gu@2@@Z 0000000180163960 f   GuSqInternal.obj
 0001:001629d0       ?visualizeTree@@YAXAEAVPxRenderOutput@physx@@IPEBVIncrementalAABBTree@Gu@2@PEAVDebugVizCallback@2@@Z 00000001801639d0 f   GuSqInternal.obj
 0001:00162a50       ??$PxSort@PEAXU?$PxLess@PEAX@physx@@V?$PxReflectionAllocator@UAABBTreeIndices@Gu@physx@@@2@@physx@@YAXPEAPEAXIAEBU?$PxLess@PEAX@0@AEBV?$PxReflectionAllocator@UAABBTreeIndices@Gu@physx@@@0@I@Z 0000000180163a50 f i GuIncrementalAABBTree.obj
 0001:00162eb0       ??$PxSort@PEAXU?$PxLess@PEAX@physx@@V?$PxReflectionAllocator@UIncrementalAABBTreeNodePair@Gu@physx@@@2@@physx@@YAXPEAPEAXIAEBU?$PxLess@PEAX@0@AEBV?$PxReflectionAllocator@UIncrementalAABBTreeNodePair@Gu@physx@@@0@I@Z 0000000180163eb0 f i GuIncrementalAABBTree.obj
 0001:00163310       ??0IncrementalAABBTree@Gu@physx@@QEAA@XZ 0000000180164310 f   GuIncrementalAABBTree.obj
 0001:00163390       ??1?$PxPoolBase@UAABBTreeIndices@Gu@physx@@V?$PxReflectionAllocator@UAABBTreeIndices@Gu@physx@@@3@@physx@@QEAA@XZ 0000000180164390 f i GuIncrementalAABBTree.obj
 0001:001634f0       ??1?$PxPoolBase@UIncrementalAABBTreeNodePair@Gu@physx@@V?$PxReflectionAllocator@UIncrementalAABBTreeNodePair@Gu@physx@@@3@@physx@@QEAA@XZ 00000001801644f0 f i GuIncrementalAABBTree.obj
 0001:00163650       ??1IncrementalAABBTree@Gu@physx@@QEAA@XZ 0000000180164650 f   GuIncrementalAABBTree.obj
 0001:00163690       ?allocate@?$PxPoolBase@UAABBTreeIndices@Gu@physx@@V?$PxReflectionAllocator@UAABBTreeIndices@Gu@physx@@@3@@physx@@QEAAPEAUAABBTreeIndices@Gu@2@XZ 0000000180164690 f i GuIncrementalAABBTree.obj
 0001:00163780       ?allocate@?$PxPoolBase@UIncrementalAABBTreeNodePair@Gu@physx@@V?$PxReflectionAllocator@UIncrementalAABBTreeNodePair@Gu@physx@@@3@@physx@@QEAAPEAUIncrementalAABBTreeNodePair@Gu@2@XZ 0000000180164780 f i GuIncrementalAABBTree.obj
 0001:00163870       ?build@IncrementalAABBTree@Gu@physx@@QEAA_NAEBVAABBTreeBuildParams@23@AEAV?$PxArray@PEAVIncrementalAABBTreeNode@Gu@physx@@V?$PxReflectionAllocator@PEAVIncrementalAABBTreeNode@Gu@physx@@@3@@3@@Z 0000000180164870 f   GuIncrementalAABBTree.obj
 0001:00163a50       ?clone@IncrementalAABBTree@Gu@physx@@AEAAXAEAV?$PxArray@PEAVIncrementalAABBTreeNode@Gu@physx@@V?$PxReflectionAllocator@PEAVIncrementalAABBTreeNode@Gu@physx@@@3@@3@PEBIPEAPEAVIncrementalAABBTreeNode@23@@Z 0000000180164a50 f   GuIncrementalAABBTree.obj
 0001:00163f40       ?copy@IncrementalAABBTree@Gu@physx@@QEAAXAEBVBVH@23@AEAV?$PxArray@PEAVIncrementalAABBTreeNode@Gu@physx@@V?$PxReflectionAllocator@PEAVIncrementalAABBTreeNode@Gu@physx@@@3@@3@@Z 0000000180164f40 f   GuIncrementalAABBTree.obj
 0001:00163ff0       ?copyNode@IncrementalAABBTree@Gu@physx@@AEAAXAEAVIncrementalAABBTreeNode@23@AEBUBVHNode@23@PEBU523@PEAV423@PEBIAEAV?$PxArray@PEAVIncrementalAABBTreeNode@Gu@physx@@V?$PxReflectionAllocator@PEAVIncrementalAABBTreeNode@Gu@physx@@@3@@3@@Z 0000000180164ff0 f   GuIncrementalAABBTree.obj
 0001:001641b0       ?fixupTreeIndices@IncrementalAABBTree@Gu@physx@@QEAAXPEAVIncrementalAABBTreeNode@23@II@Z 00000001801651b0 f   GuIncrementalAABBTree.obj
 0001:001641e0       ?getTreeLeafDepth@IncrementalAABBTree@Gu@physx@@QEAAIPEAVIncrementalAABBTreeNode@23@@Z 00000001801651e0 f   GuIncrementalAABBTree.obj
 0001:00164200       ?growAndPushBack@?$PxArray@PEAVIncrementalAABBTreeNode@Gu@physx@@V?$PxReflectionAllocator@PEAVIncrementalAABBTreeNode@Gu@physx@@@3@@physx@@IEAAAEAPEAVIncrementalAABBTreeNode@Gu@2@AEBQEAV342@@Z 0000000180165200 f i GuIncrementalAABBTree.obj
 0001:00164320       ?growAndPushBack@?$PxArray@PEAXV?$PxReflectionAllocator@UAABBTreeIndices@Gu@physx@@@physx@@@physx@@IEAAAEAPEAXAEBQEAX@Z 0000000180165320 f i GuIncrementalAABBTree.obj
 0001:00164440       ?growAndPushBack@?$PxArray@PEAXV?$PxReflectionAllocator@UIncrementalAABBTreeNodePair@Gu@physx@@@physx@@@physx@@IEAAAEAPEAXAEBQEAX@Z 0000000180165440 f i GuIncrementalAABBTree.obj
 0001:00164560       ?hierarchyCheck@IncrementalAABBTree@Gu@physx@@QEAAXIPEBVPxBounds3@3@@Z 0000000180165560 f   GuIncrementalAABBTree.obj
 0001:001646b0       ?hierarchyCheck@IncrementalAABBTree@Gu@physx@@QEAAXPEBVPxBounds3@3@@Z 00000001801656b0 f   GuIncrementalAABBTree.obj
 0001:00164820       ?insert@IncrementalAABBTree@Gu@physx@@QEAAPEAVIncrementalAABBTreeNode@23@IPEBVPxBounds3@3@AEAV?$PxArray@PEAVIncrementalAABBTreeNode@Gu@physx@@V?$PxReflectionAllocator@PEAVIncrementalAABBTreeNode@Gu@physx@@@3@@3@@Z 0000000180165820 f   GuIncrementalAABBTree.obj
 0001:00164f00       ?recreate@?$PxArray@PEAXV?$PxReflectionAllocator@UAABBTreeIndices@Gu@physx@@@physx@@@physx@@IEAAXI@Z 0000000180165f00 f i GuIncrementalAABBTree.obj
 0001:00164ff0       ?recreate@?$PxArray@PEAXV?$PxReflectionAllocator@UIncrementalAABBTreeNodePair@Gu@physx@@@physx@@@physx@@IEAAXI@Z 0000000180165ff0 f i GuIncrementalAABBTree.obj
 0001:001650e0       ?release@IncrementalAABBTree@Gu@physx@@QEAAXXZ 00000001801660e0 f   GuIncrementalAABBTree.obj
 0001:00165110       ?releaseNode@IncrementalAABBTree@Gu@physx@@AEAAXPEAVIncrementalAABBTreeNode@23@@Z 0000000180166110 f   GuIncrementalAABBTree.obj
 0001:001651a0       ?remove@IncrementalAABBTree@Gu@physx@@QEAAPEAVIncrementalAABBTreeNode@23@PEAV423@IPEBVPxBounds3@3@@Z 00000001801661a0 f   GuIncrementalAABBTree.obj
 0001:001654c0       ?rotateTree@IncrementalAABBTree@Gu@physx@@AEAAXPEAVIncrementalAABBTreeNode@23@AEAV?$PxArray@PEAVIncrementalAABBTreeNode@Gu@physx@@V?$PxReflectionAllocator@PEAVIncrementalAABBTreeNode@Gu@physx@@@3@@3@IPEBVPxBounds3@3@_N@Z 00000001801664c0 f   GuIncrementalAABBTree.obj
 0001:00165e20       ?shiftOrigin@IncrementalAABBTree@Gu@physx@@QEAAXAEBV?$PxVec3T@M@3@@Z 0000000180166e20 f   GuIncrementalAABBTree.obj
 0001:00165e80       ?splitLeafNode@IncrementalAABBTree@Gu@physx@@AEAAPEAVIncrementalAABBTreeNode@23@PEAV423@IAEBT__m128@@1PEBVPxBounds3@3@@Z 0000000180166e80 f   GuIncrementalAABBTree.obj
 0001:00166170       ?update@IncrementalAABBTree@Gu@physx@@QEAAPEAVIncrementalAABBTreeNode@23@PEAV423@IPEBVPxBounds3@3@AEAV?$PxArray@PEAVIncrementalAABBTreeNode@Gu@physx@@V?$PxReflectionAllocator@PEAVIncrementalAABBTreeNode@Gu@physx@@@3@@3@@Z 0000000180167170 f   GuIncrementalAABBTree.obj
 0001:00166230       ?updateFast@IncrementalAABBTree@Gu@physx@@QEAAPEAVIncrementalAABBTreeNode@23@PEAV423@IPEBVPxBounds3@3@AEAV?$PxArray@PEAVIncrementalAABBTreeNode@Gu@physx@@V?$PxReflectionAllocator@PEAVIncrementalAABBTreeNode@Gu@physx@@@3@@3@@Z 0000000180167230 f   GuIncrementalAABBTree.obj
 0001:00166450       ??0SAH_Buffers@Gu@physx@@QEAA@I@Z 0000000180167450 f   GuSAH.obj
 0001:00166560       ??1SAH_Buffers@Gu@physx@@QEAA@XZ 0000000180167560 f   GuSAH.obj
 0001:00166630       ?split@SAH_Buffers@Gu@physx@@QEAA_NAEAIIPEIBIPEIBVPxBounds3@3@PEIBV?$PxVec3T@M@3@@Z 0000000180167630 f   GuSAH.obj
 0001:00166d00       ??0BVH@Gu@physx@@QEAA@AEBUPxBVHInternalData@2@@Z 0000000180167d00 f   GuBVH.obj
 0001:00166dc0       ??0BVH@Gu@physx@@QEAA@PEAVMeshFactory@12@@Z 0000000180167dc0 f   GuBVH.obj
 0001:00166e30       ??0BVH@Gu@physx@@QEAA@PEAVMeshFactory@12@AEAVBVHData@12@@Z 0000000180167e30 f   GuBVH.obj
 0001:00166ee0       ??1BVHData@Gu@physx@@QEAA@XZ 0000000180167ee0 f i GuBVH.obj
 0001:0016a8e0       ??_EBVH@Gu@physx@@WBA@EAAPEAXI@Z 000000018016b8e0 f i GuBVH.obj
 0001:0016a8f0       ??_EBVH@Gu@physx@@UEAAPEAXI@Z 000000018016b8f0 f i GuBVH.obj
 0001:0016a8f0       ??_GBVH@Gu@physx@@UEAAPEAXI@Z 000000018016b8f0 f i GuBVH.obj
 0001:0016a980       ??_ERefCountable@Cm@physx@@UEAAPEAXI@Z 000000018016b980 f i GuBVH.obj
 0001:0016a980       ??_GRefCountable@Cm@physx@@UEAAPEAXI@Z 000000018016b980 f i GuBVH.obj
 0001:0016abb0       ?allocate@?$PxArray@PEBUBVHNode@Gu@physx@@V?$PxInlineAllocator@$0IAA@V?$PxReflectionAllocator@PEBUBVHNode@Gu@physx@@@physx@@@3@@physx@@IEAAPEAPEBUBVHNode@Gu@2@IPEAI@Z 000000018016bbb0 f i GuBVH.obj
 0001:0016ac70       ?build@BVHData@Gu@physx@@QEAA_NIPEBXIMIW4BVHBuildStrategy@23@@Z 000000018016bc70 f   GuBVH.obj
 0001:0016b070       ?cull@BVH@Gu@physx@@UEBA_NIPEBVPxPlane@3@AEAUOverlapCallback@PxBVH@3@V?$PxFlags@W4Enum@PxGeometryQueryFlag@physx@@I@3@@Z 000000018016c070 f   GuBVH.obj
 0001:0016b9c0       ?getConcreteTypeName@PxBVH@physx@@UEBAPEBDXZ 000000018016c9c0 f i GuBVH.obj
 0001:0016b9d0       ?init@BVH@Gu@physx@@QEAA_NIPEAVAABBTreeBounds@23@PEBXIW4BVHBuildStrategy@23@IM@Z 000000018016c9d0 f   GuBVH.obj
 0001:0016bde0       ?isKindOf@PxBVH@physx@@MEBA_NPEBD@Z 000000018016cde0 f i GuBVH.obj
 0001:0016be50       ?load@BVH@Gu@physx@@QEAA_NAEAVPxInputStream@3@@Z 000000018016ce50 f   GuBVH.obj
 0001:0016bfe0       ?onRefCountZero@BVH@Gu@physx@@UEAAXXZ 000000018016cfe0 f   GuBVH.obj
 0001:0016c0c0       ?onRefCountZero@RefCountable@Cm@physx@@UEAAXXZ 000000018016d0c0 f i GuBVH.obj
 0001:0016c0e0       ?overlap@BVH@Gu@physx@@QEBA_NAEBVShapeData@23@AEAUOverlapCallback@PxBVH@3@V?$PxFlags@W4Enum@PxGeometryQueryFlag@physx@@I@3@@Z 000000018016d0e0 f   GuBVH.obj
 0001:0016c910       ?overlap@BVH@Gu@physx@@UEBA_NAEBVPxGeometry@3@AEBV?$PxTransformT@M@3@AEAUOverlapCallback@PxBVH@3@V?$PxFlags@W4Enum@PxGeometryQueryFlag@physx@@I@3@@Z 000000018016d910 f   GuBVH.obj
 0001:0016c970       ?partialRefit@BVH@Gu@physx@@UEAAXXZ 000000018016d970 f   GuBVH.obj
 0001:0016c980       ?raycast@BVH@Gu@physx@@UEBA_NAEBV?$PxVec3T@M@3@0MAEAURaycastCallback@PxBVH@3@V?$PxFlags@W4Enum@PxGeometryQueryFlag@physx@@I@3@@Z 000000018016d980 f   GuBVH.obj
 0001:0016cab0       ?recreate@?$PxArray@PEBUBVHNode@Gu@physx@@V?$PxInlineAllocator@$0IAA@V?$PxReflectionAllocator@PEBUBVHNode@Gu@physx@@@physx@@@3@@physx@@IEAAXI@Z 000000018016dab0 f i GuBVH.obj
 0001:0016cb70       ?refit@BVH@Gu@physx@@UEAAXXZ 000000018016db70 f   GuBVH.obj
 0001:0016cb80       ?release@BVH@Gu@physx@@UEAAXXZ 000000018016db80 f   GuBVH.obj
 0001:0016cbb0       ?resizeUninitialized@?$PxArray@PEBUBVHNode@Gu@physx@@V?$PxInlineAllocator@$0IAA@V?$PxReflectionAllocator@PEBUBVHNode@Gu@physx@@@physx@@@3@@physx@@QEAAXI@Z 000000018016dbb0 f i GuBVH.obj
 0001:0016cc00       ?save@BVHData@Gu@physx@@QEBA_NAEAVPxOutputStream@3@_N@Z 000000018016dc00 f   GuBVH.obj
 0001:0016cd70       ?sweep@BVH@Gu@physx@@QEBA_NAEBVShapeData@23@AEBV?$PxVec3T@M@3@MAEAURaycastCallback@PxBVH@3@V?$PxFlags@W4Enum@PxGeometryQueryFlag@physx@@I@3@@Z 000000018016dd70 f   GuBVH.obj
 0001:0016cf60       ?sweep@BVH@Gu@physx@@UEBA_NAEBVPxGeometry@3@AEBV?$PxTransformT@M@3@AEBV?$PxVec3T@M@3@MAEAURaycastCallback@PxBVH@3@V?$PxFlags@W4Enum@PxGeometryQueryFlag@physx@@I@3@@Z 000000018016df60 f   GuBVH.obj
 0001:0016cfe0       ?traverse@BVH@Gu@physx@@UEBA_NAEAUTraversalCallback@PxBVH@3@@Z 000000018016dfe0 f   GuBVH.obj
 0001:0016d150       ?updateBounds@BVH@Gu@physx@@UEAA_NIAEBVPxBounds3@3@@Z 000000018016e150 f   GuBVH.obj
 0001:0016d200       ?updateBoundsInternal@BVH@Gu@physx@@QEAA_NIAEBVPxBounds3@3@@Z 000000018016e200 f   GuBVH.obj
 0001:0016d2b0       PxFindOverlap              000000018016e2b0 f   GuBVH.obj
 0001:0016d3a0       PxGetBVHInternalData       000000018016e3a0 f   GuBVH.obj
 0001:0016d3e0       ??0IncrementalAABBPrunerCore@Gu@physx@@QEAA@PEBVPruningPool@12@@Z 000000018016e3e0 f   GuIncrementalAABBPrunerCore.obj
 0001:0016d4f0       ??1IncrementalAABBPrunerCore@Gu@physx@@QEAA@XZ 000000018016e4f0 f   GuIncrementalAABBPrunerCore.obj
 0001:0016d660       ??R?$AABBTreeOverlap@$00U?$OBBAABBTests@$00@Gu@physx@@VIncrementalAABBTree@23@VIncrementalAABBTreeNode@23@UOverlapCallbackAdapter@23@@Gu@physx@@QEAA_NAEBVAABBTreeBounds@12@AEBVIncrementalAABBTree@12@AEBU?$OBBAABBTests@$00@12@AEAUOverlapCallbackAdapter@12@@Z 000000018016e660 f i GuIncrementalAABBPrunerCore.obj
 0001:0016dc10       ??R?$AABBTreeOverlap@$00UAABBAABBTest@Gu@physx@@VIncrementalAABBTree@23@VIncrementalAABBTreeNode@23@UOverlapCallbackAdapter@23@@Gu@physx@@QEAA_NAEBVAABBTreeBounds@12@AEBVIncrementalAABBTree@12@AEBUAABBAABBTest@12@AEAUOverlapCallbackAdapter@12@@Z 000000018016ec10 f i GuIncrementalAABBPrunerCore.obj
 0001:0016de80       ??R?$AABBTreeOverlap@$00UCapsuleAABBTest@Gu@physx@@VIncrementalAABBTree@23@VIncrementalAABBTreeNode@23@UOverlapCallbackAdapter@23@@Gu@physx@@QEAA_NAEBVAABBTreeBounds@12@AEBVIncrementalAABBTree@12@AEBUCapsuleAABBTest@12@AEAUOverlapCallbackAdapter@12@@Z 000000018016ee80 f i GuIncrementalAABBPrunerCore.obj
 0001:0016e2a0       ??R?$AABBTreeRaycast@$00$00VIncrementalAABBTree@Gu@physx@@VIncrementalAABBTreeNode@23@URaycastCallbackAdapter@23@@Gu@physx@@QEAA_NAEBVAABBTreeBounds@12@AEBVIncrementalAABBTree@12@AEBV?$PxVec3T@M@2@2AEAM2AEAURaycastCallbackAdapter@12@@Z 000000018016f2a0 f i GuIncrementalAABBPrunerCore.obj
 0001:0016e960       ??R?$AABBTreeRaycast@$0A@$00VIncrementalAABBTree@Gu@physx@@VIncrementalAABBTreeNode@23@URaycastCallbackAdapter@23@@Gu@physx@@QEAA_NAEBVAABBTreeBounds@12@AEBVIncrementalAABBTree@12@AEBV?$PxVec3T@M@2@2AEAM2AEAURaycastCallbackAdapter@12@@Z 000000018016f960 f i GuIncrementalAABBPrunerCore.obj
 0001:0016efb0       ?addObject@IncrementalAABBPrunerCore@Gu@physx@@QEAA_NII@Z 000000018016ffb0 f   GuIncrementalAABBPrunerCore.obj
 0001:0016f0a0       ?allocate@?$PxArray@PEBVIncrementalAABBTreeNode@Gu@physx@@V?$PxInlineAllocator@$0IAA@V?$PxReflectionAllocator@PEBVIncrementalAABBTreeNode@Gu@physx@@@physx@@@3@@physx@@IEAAPEAPEBVIncrementalAABBTreeNode@Gu@2@IPEAI@Z 00000001801700a0 f i GuIncrementalAABBPrunerCore.obj
 0001:0016f160       ?clear@?$PxHashMapBase@IPEAVIncrementalAABBTreeNode@Gu@physx@@U?$PxHash@I@3@VPxAllocator@3@@physx@@QEAAXXZ 0000000180170160 f i GuIncrementalAABBPrunerCore.obj
 0001:0016f160       ?clear@?$PxHashMapBase@UPrunerPayload@Gu@physx@@UExtendedBucketPrunerData@23@UExtendedBucketPrunerHash@23@VPxAllocator@3@@physx@@QEAAXXZ 0000000180170160 f i GuExtendedBucketPruner.obj
 0001:0016f1f0       ?create@?$PxHashBase@V?$PxPair@$$CBIPEAVIncrementalAABBTreeNode@Gu@physx@@@physx@@IU?$PxHash@I@2@UGetKey@?$PxHashMapBase@IPEAVIncrementalAABBTreeNode@Gu@physx@@U?$PxHash@I@3@VPxAllocator@3@@2@VPxAllocator@2@$00@physx@@QEAAPEAV?$PxPair@$$CBIPEAVIncrementalAABBTreeNode@Gu@physx@@@2@AEBIAEA_N@Z 00000001801701f0 f i GuIncrementalAABBPrunerCore.obj
 0001:0016f340       ?erase@?$PxHashBase@V?$PxPair@$$CBIPEAVIncrementalAABBTreeNode@Gu@physx@@@physx@@IU?$PxHash@I@2@UGetKey@?$PxHashMapBase@IPEAVIncrementalAABBTreeNode@Gu@physx@@U?$PxHash@I@3@VPxAllocator@3@@2@VPxAllocator@2@$00@physx@@QEAA_NAEBIAEAV?$PxPair@$$CBIPEAVIncrementalAABBTreeNode@Gu@physx@@@2@@Z 0000000180170340 f i GuIncrementalAABBPrunerCore.obj
 0001:0016f4b0       ?getCurrentWorldBoxes@PruningPool@Gu@physx@@QEAAPEAVPxBounds3@3@XZ 00000001801704b0 f i GuIncrementalAABBPrunerCore.obj
 0001:0016f4b0       ?getCurrentWorldBoxes@PruningPool@Gu@physx@@QEBAPEBVPxBounds3@3@XZ 00000001801704b0 f i GuIncrementalAABBPrunerCore.obj
 0001:0016f4b0       ?getMesh@CollisionTetrahedronMeshData@Gu@physx@@UEAAPEAVPxTetrahedronMeshData@3@XZ 00000001801704b0 f i GuCookingTetrahedronMesh.obj
 0001:0016f4b0       ?getMesh@CollisionTetrahedronMeshData@Gu@physx@@UEBAPEBVPxTetrahedronMeshData@3@XZ 00000001801704b0 f i GuCookingTetrahedronMesh.obj
 0001:0016f4b0       ?getMesh@SimulationTetrahedronMeshData@Gu@physx@@UEAAPEAVPxTetrahedronMeshData@3@XZ 00000001801704b0 f i GuCookingTetrahedronMesh.obj
 0001:0016f4c0       ?getGlobalBounds@IncrementalAABBPrunerCore@Gu@physx@@QEBAXAEAVPxBounds3@3@@Z 00000001801704c0 f   GuIncrementalAABBPrunerCore.obj
 0001:0016f5f0       ?getIndex@PruningPool@Gu@physx@@QEBAII@Z 00000001801705f0 f i GuIncrementalAABBPrunerCore.obj
 0001:0016f600       ?getPayloadData@PruningPool@Gu@physx@@QEBAAEBUPrunerPayload@23@IPEAUPrunerPayloadData@23@@Z 0000000180170600 f i GuIncrementalAABBPrunerCore.obj
 0001:0016f650       ?overlap@IncrementalAABBPrunerCore@Gu@physx@@QEBA_NAEBVShapeData@23@AEAUPrunerOverlapCallback@23@@Z 0000000180170650 f   GuIncrementalAABBPrunerCore.obj
 0001:00170150       ?raycast@IncrementalAABBPrunerCore@Gu@physx@@QEBA_NAEBV?$PxVec3T@M@3@0AEAMAEAUPrunerRaycastCallback@23@@Z 0000000180171150 f   GuIncrementalAABBPrunerCore.obj
 0001:00170230       ?recreate@?$PxArray@PEAVIncrementalAABBTreeNode@Gu@physx@@V?$PxReflectionAllocator@PEAVIncrementalAABBTreeNode@Gu@physx@@@3@@physx@@IEAAXI@Z 0000000180171230 f i GuIncrementalAABBPrunerCore.obj
 0001:00170320       ?recreate@?$PxArray@PEBVIncrementalAABBTreeNode@Gu@physx@@V?$PxInlineAllocator@$0IAA@V?$PxReflectionAllocator@PEBVIncrementalAABBTreeNode@Gu@physx@@@physx@@@3@@physx@@IEAAXI@Z 0000000180171320 f i GuIncrementalAABBPrunerCore.obj
 0001:001703e0       ?release@IncrementalAABBPrunerCore@Gu@physx@@QEAAXXZ 00000001801713e0 f   GuIncrementalAABBPrunerCore.obj
 0001:001704e0       ?removeMarkedObjects@IncrementalAABBPrunerCore@Gu@physx@@QEAAII@Z 00000001801714e0 f   GuIncrementalAABBPrunerCore.obj
 0001:00170540       ?removeObject@IncrementalAABBPrunerCore@Gu@physx@@QEAA_NIIAEAI@Z 0000000180171540 f   GuIncrementalAABBPrunerCore.obj
 0001:00170750       ?reserveInternal@?$PxHashBase@V?$PxPair@$$CBIPEAVIncrementalAABBTreeNode@Gu@physx@@@physx@@IU?$PxHash@I@2@UGetKey@?$PxHashMapBase@IPEAVIncrementalAABBTreeNode@Gu@physx@@U?$PxHash@I@3@VPxAllocator@3@@2@VPxAllocator@2@$00@physx@@AEAAXI@Z 0000000180171750 f i GuIncrementalAABBPrunerCore.obj
 0001:00170910       ?resizeUninitialized@?$PxArray@PEBVIncrementalAABBTreeNode@Gu@physx@@V?$PxInlineAllocator@$0IAA@V?$PxReflectionAllocator@PEBVIncrementalAABBTreeNode@Gu@physx@@@physx@@@3@@physx@@QEAAXI@Z 0000000180171910 f i GuIncrementalAABBPrunerCore.obj
 0001:00170960       ?setTransform@PruningPool@Gu@physx@@QEAA_NIAEBV?$PxTransformT@M@3@@Z 0000000180171960 f i GuIncrementalAABBPrunerCore.obj
 0001:001709c0       ?shiftOrigin@IncrementalAABBPrunerCore@Gu@physx@@QEAAXAEBV?$PxVec3T@M@3@@Z 00000001801719c0 f   GuIncrementalAABBPrunerCore.obj
 0001:00170a10       ?swapIndex@IncrementalAABBPrunerCore@Gu@physx@@QEAAXII@Z 0000000180171a10 f   GuIncrementalAABBPrunerCore.obj
 0001:00170af0       ?sweep@IncrementalAABBPrunerCore@Gu@physx@@QEBA_NAEBVShapeData@23@AEBV?$PxVec3T@M@3@AEAMAEAUPrunerRaycastCallback@23@@Z 0000000180171af0 f   GuIncrementalAABBPrunerCore.obj
 0001:00170c80       ?updateMapping@IncrementalAABBPrunerCore@Gu@physx@@AEAAXAEAV?$PxHashMap@IPEAVIncrementalAABBTreeNode@Gu@physx@@U?$PxHash@I@3@VPxAllocator@3@@3@IPEAVIncrementalAABBTreeNode@23@@Z 0000000180171c80 f   GuIncrementalAABBPrunerCore.obj
 0001:00170dd0       ?updateObject@IncrementalAABBPrunerCore@Gu@physx@@QEAA_NI@Z 0000000180171dd0 f   GuIncrementalAABBPrunerCore.obj
 0001:00170f70       ?visualize@IncrementalAABBPrunerCore@Gu@physx@@QEBAXAEAVPxRenderOutput@3@I@Z 0000000180171f70 f   GuIncrementalAABBPrunerCore.obj
 0001:00170fd0       ??0IncrementalAABBPruner@Gu@physx@@QEAA@I_K@Z 0000000180171fd0 f   GuIncrementalAABBPruner.obj
 0001:00171080       ??R?$AABBTreeOverlap@$00USphereAABBTest@Gu@physx@@VIncrementalAABBTree@23@VIncrementalAABBTreeNode@23@UOverlapCallbackAdapter@23@@Gu@physx@@QEAA_NAEBVAABBTreeBounds@12@AEBVIncrementalAABBTree@12@AEBUSphereAABBTest@12@AEAUOverlapCallbackAdapter@12@@Z 0000000180172080 f i GuIncrementalAABBPruner.obj
 0001:00171360       ??_EBasePruner@Gu@physx@@UEAAPEAXI@Z 0000000180172360 f i GuIncrementalAABBPruner.obj
 0001:00171360       ??_GBasePruner@Gu@physx@@UEAAPEAXI@Z 0000000180172360 f i GuIncrementalAABBPruner.obj
 0001:001713b0       ??_EIncrementalAABBPruner@Gu@physx@@UEAAPEAXI@Z 00000001801723b0 f i GuIncrementalAABBPruner.obj
 0001:001713b0       ??_GIncrementalAABBPruner@Gu@physx@@UEAAPEAXI@Z 00000001801723b0 f i GuIncrementalAABBPruner.obj
 0001:001714c0       ?addObjects@IncrementalAABBPruner@Gu@physx@@UEAA_NPEAIPEBVPxBounds3@3@PEBUPrunerPayload@23@PEBV?$PxTransformT@M@3@I_N@Z 00000001801724c0 f   GuIncrementalAABBPruner.obj
 0001:00171660       ?commit@IncrementalAABBPruner@Gu@physx@@UEAAXXZ 0000000180172660 f   GuIncrementalAABBPruner.obj
 0001:001717b0       ?getGlobalBounds@IncrementalAABBPruner@Gu@physx@@UEBAXAEAVPxBounds3@3@@Z 00000001801727b0 f   GuIncrementalAABBPruner.obj
 0001:00171820       ?getPayloadData@IncrementalAABBPruner@Gu@physx@@UEBAAEBUPrunerPayload@23@IPEAUPrunerPayloadData@23@@Z 0000000180172820 f i GuIncrementalAABBPruner.obj
 0001:00171870       ?overlap@IncrementalAABBPruner@Gu@physx@@UEBA_NAEBVShapeData@23@AEAUPrunerOverlapCallback@23@@Z 0000000180172870 f   GuIncrementalAABBPruner.obj
 0001:00171f80       ?preallocate@IncrementalAABBPruner@Gu@physx@@UEAAXI@Z 0000000180172f80 f i GuIncrementalAABBPruner.obj
 0001:00171f90       ?purge@IncrementalAABBPruner@Gu@physx@@UEAAXXZ 0000000180172f90 f   GuIncrementalAABBPruner.obj
 0001:00171fe0       ?raycast@IncrementalAABBPruner@Gu@physx@@UEBA_NAEBV?$PxVec3T@M@3@0AEAMAEAUPrunerRaycastCallback@23@@Z 0000000180172fe0 f   GuIncrementalAABBPruner.obj
 0001:00172060       ?removeObjects@IncrementalAABBPruner@Gu@physx@@UEAAXPEBIIPEAUPrunerPayloadRemovalCallback@23@@Z 0000000180173060 f   GuIncrementalAABBPruner.obj
 0001:001721b0       ?resize@?$PxArray@PEAVIncrementalAABBTreeNode@Gu@physx@@V?$PxReflectionAllocator@PEAVIncrementalAABBTreeNode@Gu@physx@@@3@@physx@@QEAAXIAEBQEAVIncrementalAABBTreeNode@Gu@2@@Z 00000001801731b0 f i GuIncrementalAABBPruner.obj
 0001:00172270       ?resizeUninitialized@?$PxArray@PEAVIncrementalAABBTreeNode@Gu@physx@@V?$PxReflectionAllocator@PEAVIncrementalAABBTreeNode@Gu@physx@@@3@@physx@@QEAAXI@Z 0000000180173270 f i GuIncrementalAABBPruner.obj
 0001:001722b0       ?setTransform@IncrementalAABBPruner@Gu@physx@@UEAA_NIAEBV?$PxTransformT@M@3@@Z 00000001801732b0 f i GuIncrementalAABBPruner.obj
 0001:00172310       ?shiftOrigin@IncrementalAABBPruner@Gu@physx@@UEAAXAEBV?$PxVec3T@M@3@@Z 0000000180173310 f   GuIncrementalAABBPruner.obj
 0001:00172350       ?sweep@IncrementalAABBPruner@Gu@physx@@UEBA_NAEBVShapeData@23@AEBV?$PxVec3T@M@3@AEAMAEAUPrunerRaycastCallback@23@@Z 0000000180173350 f   GuIncrementalAABBPruner.obj
 0001:00172470       ?updateObjects@IncrementalAABBPruner@Gu@physx@@UEAAXPEBIIM0PEBVPxBounds3@3@PEBUPxTransformPadded@3@@Z 0000000180173470 f   GuIncrementalAABBPruner.obj
 0001:00172640       ?visualize@IncrementalAABBPruner@Gu@physx@@UEBAXAEAVPxRenderOutput@3@II@Z 0000000180173640 f   GuIncrementalAABBPruner.obj
 0001:00172830       ??0PruningPool@Gu@physx@@QEAA@_KW4TransformCacheMode@12@@Z 0000000180173830 f   GuPruningPool.obj
 0001:00172860       ??1PruningPool@Gu@physx@@QEAA@XZ 0000000180173860 f   GuPruningPool.obj
 0001:00172930       ?addObjects@PruningPool@Gu@physx@@QEAAIPEAIPEBVPxBounds3@3@PEBUPrunerPayload@23@PEBV?$PxTransformT@M@3@I@Z 0000000180173930 f   GuPruningPool.obj
 0001:00172ae0       ?preallocate@PruningPool@Gu@physx@@QEAAXI@Z 0000000180173ae0 f   GuPruningPool.obj
 0001:00172af0       ?removeObject@PruningPool@Gu@physx@@QEAAIIPEAUPrunerPayloadRemovalCallback@23@@Z 0000000180173af0 f   GuPruningPool.obj
 0001:00172c30       ?resize@PruningPool@Gu@physx@@QEAA_NI@Z 0000000180173c30 f   GuPruningPool.obj
 0001:00172f10       ?shiftOrigin@PruningPool@Gu@physx@@QEAAXAEBV?$PxVec3T@M@3@@Z 0000000180173f10 f   GuPruningPool.obj
 0001:001732e0       ?updateAndInflateBounds@PruningPool@Gu@physx@@QEAAXPEBI0PEBVPxBounds3@3@PEBUPxTransformPadded@3@IM@Z 00000001801742e0 f   GuPruningPool.obj
 0001:00174d00       ??0BucketPruner@Gu@physx@@QEAA@_K@Z 0000000180175d00 f   GuBucketPruner.obj
 0001:00174d50       ??0BucketPrunerCore@Gu@physx@@QEAA@_N@Z 0000000180175d50 f   GuBucketPruner.obj
 0001:001750d0       ??1BucketPrunerCore@Gu@physx@@QEAA@XZ 00000001801760d0 f   GuBucketPruner.obj
 0001:001750f0       ??R?$BucketPrunerOverlapTraversal@UBucketPrunerAABBAABBTest@@$00@@QEBA_NAEBVBucketPrunerCore@Gu@physx@@AEBUBucketPrunerAABBAABBTest@@AEAUPrunerOverlapCallback@23@AEBVPxBounds3@3@@Z 00000001801760f0 f i GuBucketPruner.obj
 0001:001756b0       ??R?$BucketPrunerOverlapTraversal@UOBBAABBTest_SIMD@@$0A@@@QEBA_NAEBVBucketPrunerCore@Gu@physx@@AEBUOBBAABBTest_SIMD@@AEAUPrunerOverlapCallback@23@AEBVPxBounds3@3@@Z 00000001801766b0 f i GuBucketPruner.obj
 0001:00175f30       ??R?$BucketPrunerOverlapTraversal@USphereAABBTest_SIMD@@$00@@QEBA_NAEBVBucketPrunerCore@Gu@physx@@AEBUSphereAABBTest_SIMD@@AEAUPrunerOverlapCallback@23@AEBVPxBounds3@3@@Z 0000000180176f30 f i GuBucketPruner.obj
 0001:00176510       ??_FBucketPrunerCore@Gu@physx@@QEAAXXZ 0000000180177510 f i GuBucketPruner.obj
 0001:00176520       ??_EBucketPruner@Gu@physx@@UEAAPEAXI@Z 0000000180177520 f i GuBucketPruner.obj
 0001:00176520       ??_GBucketPruner@Gu@physx@@UEAAPEAXI@Z 0000000180177520 f i GuBucketPruner.obj
 0001:001765c0       ?addObject@BucketPrunerCore@Gu@physx@@QEAA_NAEBUPrunerPayload@23@AEBVPxBounds3@3@AEBV?$PxTransformT@M@3@I@Z 00000001801775c0 f   GuBucketPruner.obj
 0001:001768e0       ?addObjects@BucketPruner@Gu@physx@@UEAA_NPEAIPEBVPxBounds3@3@PEBUPrunerPayload@23@PEBV?$PxTransformT@M@3@I_N@Z 00000001801778e0 f   GuBucketPruner.obj
 0001:00176970       ?addPair@BucketPrunerMap@Gu@physx@@QEAAPEAUBucketPrunerPair@23@AEBUPrunerPayload@23@II@Z 0000000180177970 f   GuBucketPruner.obj
 0001:00176b70       ?allocateSortedMemory@BucketPrunerCore@Gu@physx@@AEAAXI@Z 0000000180177b70 f   GuBucketPruner.obj
 0001:00176d30       ?classifyBoxes@BucketPrunerCore@Gu@physx@@AEAAXXZ 0000000180177d30 f   GuBucketPruner.obj
 0001:00177520       ?classifyBoxes@BucketPrunerNode@Gu@physx@@QEAAXMMIPEIAUBucketBox@23@PEIBUPrunerPayload@23@PEIBV?$PxTransformT@M@3@0PEIAU523@PEIAV63@_NI@Z 0000000180178520 f   GuBucketPruner.obj
 0001:00177da0       ?build@CompanionPrunerBucket@@UEAAXXZ 0000000180178da0 f   GuSecondaryPruner.obj
 0001:00177da0       ?commit@BucketPruner@Gu@physx@@UEAAXXZ 0000000180178da0 f   GuBucketPruner.obj
 0001:00177db0       ?findPair@BucketPrunerMap@Gu@physx@@QEBAPEBUBucketPrunerPair@23@AEBUPrunerPayload@23@@Z 0000000180178db0 f   GuBucketPruner.obj
 0001:001781a0       ?getGlobalBounds@BucketPruner@Gu@physx@@UEBAXAEAVPxBounds3@3@@Z 00000001801791a0 f   GuBucketPruner.obj
 0001:00178220       ?getGlobalBounds@BucketPrunerCore@Gu@physx@@QEBAXAEAVPxBounds3@3@@Z 0000000180179220 f   GuBucketPruner.obj
 0001:001782a0       ?getPayloadData@BucketPruner@Gu@physx@@UEBAAEBUPrunerPayload@23@IPEAUPrunerPayloadData@23@@Z 00000001801792a0 f i GuBucketPruner.obj
 0001:00178300       ?overlap@BucketPruner@Gu@physx@@UEBA_NAEBVShapeData@23@AEAUPrunerOverlapCallback@23@@Z 0000000180179300 f   GuBucketPruner.obj
 0001:00178320       ?overlap@BucketPrunerCore@Gu@physx@@QEBA_NAEBVShapeData@23@AEAUPrunerOverlapCallback@23@@Z 0000000180179320 f   GuBucketPruner.obj
 0001:00178600       ?preallocate@BucketPruner@Gu@physx@@UEAAXI@Z 0000000180179600 f i GuBucketPruner.obj
 0001:001787e0       ?purge@BucketPrunerMap@Gu@physx@@QEAAXXZ 00000001801797e0 f   GuBucketPruner.obj
 0001:00178870       ?raycast@BucketPruner@Gu@physx@@UEBA_NAEBV?$PxVec3T@M@3@0AEAMAEAUPrunerRaycastCallback@23@@Z 0000000180179870 f   GuBucketPruner.obj
 0001:001788c0       ?raycast@BucketPrunerCore@Gu@physx@@QEBA_NAEBV?$PxVec3T@M@3@0AEAMAEAUPrunerRaycastCallback@23@@Z 00000001801798c0 f   GuBucketPruner.obj
 0001:00178900       ?reallocPairs@BucketPrunerMap@Gu@physx@@QEAAXXZ 0000000180179900 f   GuBucketPruner.obj
 0001:00178b40       ?release@BucketPrunerCore@Gu@physx@@QEAAXXZ 0000000180179b40 f   GuBucketPruner.obj
 0001:00178c80       ?removeMarkedObjects@BucketPrunerCore@Gu@physx@@QEAAII@Z 0000000180179c80 f   GuBucketPruner.obj
 0001:00179050       ?removeObject@BucketPrunerCore@Gu@physx@@QEAA_NAEBUPrunerPayload@23@AEAI@Z 000000018017a050 f   GuBucketPruner.obj
 0001:00179310       ?removeObjects@BucketPruner@Gu@physx@@UEAAXPEBIIPEAUPrunerPayloadRemovalCallback@23@@Z 000000018017a310 f   GuBucketPruner.obj
 0001:001793c0       ?removePair@BucketPrunerMap@Gu@physx@@QEAA_NAEBUPrunerPayload@23@AEAI1@Z 000000018017a3c0 f   GuBucketPruner.obj
 0001:00179540       ?removePairInternal@BucketPrunerMap@Gu@physx@@QEAAXAEBUPrunerPayload@23@II@Z 000000018017a540 f   GuBucketPruner.obj
 0001:001796d0       ?resizeCore@BucketPrunerCore@Gu@physx@@AEAAXXZ 000000018017a6d0 f   GuBucketPruner.obj
 0001:00179920       ?setTransform@BucketPruner@Gu@physx@@UEAA_NIAEBV?$PxTransformT@M@3@@Z 000000018017a920 f i GuBucketPruner.obj
 0001:00179980       ?shiftOrigin@BucketPruner@Gu@physx@@UEAAXAEBV?$PxVec3T@M@3@@Z 000000018017a980 f   GuBucketPruner.obj
 0001:00179980       ?shiftOrigin@CompanionPrunerBucket@@UEAAXAEBV?$PxVec3T@M@physx@@@Z 000000018017a980 f   GuSecondaryPruner.obj
 0001:00179990       ?shiftOrigin@BucketPrunerCore@Gu@physx@@QEAAXAEBV?$PxVec3T@M@3@@Z 000000018017a990 f   GuBucketPruner.obj
 0001:0017a7c0       ?sweep@BucketPruner@Gu@physx@@UEBA_NAEBVShapeData@23@AEBV?$PxVec3T@M@3@AEAMAEAUPrunerRaycastCallback@23@@Z 000000018017b7c0 f   GuBucketPruner.obj
 0001:0017a7e0       ?sweep@BucketPrunerCore@Gu@physx@@QEBA_NAEBVShapeData@23@AEBV?$PxVec3T@M@3@AEAMAEAUPrunerRaycastCallback@23@@Z 000000018017b7e0 f   GuBucketPruner.obj
 0001:0017a8b0       ?updateObject@BucketPrunerCore@Gu@physx@@QEAA_NAEBVPxBounds3@3@AEBUPrunerPayload@23@AEBV?$PxTransformT@M@3@@Z 000000018017b8b0 f   GuBucketPruner.obj
 0001:0017a910       ?updateObjects@BucketPruner@Gu@physx@@UEAAXPEBIIM0PEBVPxBounds3@3@PEBUPxTransformPadded@3@@Z 000000018017b910 f   GuBucketPruner.obj
 0001:0017aa20       ?visualize@BucketPruner@Gu@physx@@UEBAXAEAVPxRenderOutput@3@II@Z 000000018017ba20 f   GuBucketPruner.obj
 0001:0017aa20       ?visualize@CompanionPrunerBucket@@UEBAXAEAVPxRenderOutput@physx@@I@Z 000000018017ba20 f   GuSecondaryPruner.obj
 0001:0017aa30       ?visualize@BucketPrunerCore@Gu@physx@@QEBAXAEAVPxRenderOutput@3@I@Z 000000018017ba30 f   GuBucketPruner.obj
 0001:0017ad30       ?addObject@MaverickNode@Gu@physx@@QEAA_NAEBUPrunerPayload@23@IAEBVPxBounds3@3@AEBV?$PxTransformT@M@3@I@Z 000000018017bd30 f   GuMaverickNode.obj
 0001:0017ae10       ?removeMarkedObjects@MaverickNode@Gu@physx@@QEAAII@Z 000000018017be10 f   GuMaverickNode.obj
 0001:0017afa0       ?removeObject@MaverickNode@Gu@physx@@QEAA_NIAEAI@Z 000000018017bfa0 f   GuMaverickNode.obj
 0001:0017b130       ?shiftOrigin@MaverickNode@Gu@physx@@QEAAXAEBV?$PxVec3T@M@3@@Z 000000018017c130 f   GuMaverickNode.obj
 0001:0017b220       ?updateObject@MaverickNode@Gu@physx@@QEAA_NIAEBVPxBounds3@3@AEBV?$PxTransformT@M@3@@Z 000000018017c220 f   GuMaverickNode.obj
 0001:0017b300       ??0ExtendedBucketPruner@Gu@physx@@QEAA@_KW4CompanionPrunerType@12@PEBVPruningPool@12@@Z 000000018017c300 f   GuExtendedBucketPruner.obj
 0001:0017b530       ??1ExtendedBucketPruner@Gu@physx@@QEAA@XZ 000000018017c530 f   GuExtendedBucketPruner.obj
 0001:0017b6a0       ??R?$AABBTreeOverlap@$00U?$OBBAABBTests@$00@Gu@physx@@VAABBTree@23@UBVHNode@23@U?$MainTreeOverlapPrunerCallback@U?$OBBAABBTests@$00@Gu@physx@@@@@Gu@physx@@QEAA_NAEBVAABBTreeBounds@12@AEBVAABBTree@12@AEBU?$OBBAABBTests@$00@12@AEAU?$MainTreeOverlapPrunerCallback@U?$OBBAABBTests@$00@Gu@physx@@@@@Z 000000018017c6a0 f i GuExtendedBucketPruner.obj
 0001:0017bc80       ??R?$AABBTreeOverlap@$00U?$OBBAABBTests@$00@Gu@physx@@VAABBTree@23@UBVHNode@23@UOverlapCallbackAdapter@23@@Gu@physx@@QEAA_NAEBVAABBTreeBounds@12@AEBVAABBTree@12@AEBU?$OBBAABBTests@$00@12@AEAUOverlapCallbackAdapter@12@@Z 000000018017cc80 f i GuExtendedBucketPruner.obj
 0001:0017c240       ??R?$AABBTreeOverlap@$00UAABBAABBTest@Gu@physx@@VAABBTree@23@UBVHNode@23@U?$MainTreeOverlapPrunerCallback@UAABBAABBTest@Gu@physx@@@@@Gu@physx@@QEAA_NAEBVAABBTreeBounds@12@AEBVAABBTree@12@AEBUAABBAABBTest@12@AEAU?$MainTreeOverlapPrunerCallback@UAABBAABBTest@Gu@physx@@@@@Z 000000018017d240 f i GuExtendedBucketPruner.obj
 0001:0017c500       ??R?$AABBTreeOverlap@$00UAABBAABBTest@Gu@physx@@VAABBTree@23@UBVHNode@23@UOverlapCallbackAdapter@23@@Gu@physx@@QEAA_NAEBVAABBTreeBounds@12@AEBVAABBTree@12@AEBUAABBAABBTest@12@AEAUOverlapCallbackAdapter@12@@Z 000000018017d500 f i GuExtendedBucketPruner.obj
 0001:0017c790       ??R?$AABBTreeOverlap@$00UCapsuleAABBTest@Gu@physx@@VAABBTree@23@UBVHNode@23@U?$MainTreeOverlapPrunerCallback@UCapsuleAABBTest@Gu@physx@@@@@Gu@physx@@QEAA_NAEBVAABBTreeBounds@12@AEBVAABBTree@12@AEBUCapsuleAABBTest@12@AEAU?$MainTreeOverlapPrunerCallback@UCapsuleAABBTest@Gu@physx@@@@@Z 000000018017d790 f i GuExtendedBucketPruner.obj
 0001:0017cc10       ??R?$AABBTreeOverlap@$00UCapsuleAABBTest@Gu@physx@@VAABBTree@23@UBVHNode@23@UOverlapCallbackAdapter@23@@Gu@physx@@QEAA_NAEBVAABBTreeBounds@12@AEBVAABBTree@12@AEBUCapsuleAABBTest@12@AEAUOverlapCallbackAdapter@12@@Z 000000018017dc10 f i GuExtendedBucketPruner.obj
 0001:0017d060       ??R?$AABBTreeOverlap@$00USphereAABBTest@Gu@physx@@VAABBTree@23@UBVHNode@23@U?$MainTreeOverlapPrunerCallback@USphereAABBTest@Gu@physx@@@@@Gu@physx@@QEAA_NAEBVAABBTreeBounds@12@AEBVAABBTree@12@AEBUSphereAABBTest@12@AEAU?$MainTreeOverlapPrunerCallback@USphereAABBTest@Gu@physx@@@@@Z 000000018017e060 f i GuExtendedBucketPruner.obj
 0001:0017d380       ??R?$AABBTreeOverlap@$00USphereAABBTest@Gu@physx@@VAABBTree@23@UBVHNode@23@UOverlapCallbackAdapter@23@@Gu@physx@@QEAA_NAEBVAABBTreeBounds@12@AEBVAABBTree@12@AEBUSphereAABBTest@12@AEAUOverlapCallbackAdapter@12@@Z 000000018017e380 f i GuExtendedBucketPruner.obj
 0001:0017d680       ??R?$AABBTreeRaycast@$00$00VAABBTree@Gu@physx@@UBVHNode@23@U?$MainTreeRaycastPrunerCallback@$00@@@Gu@physx@@QEAA_NAEBVAABBTreeBounds@12@AEBVAABBTree@12@AEBV?$PxVec3T@M@2@2AEAM2AEAU?$MainTreeRaycastPrunerCallback@$00@@@Z 000000018017e680 f i GuExtendedBucketPruner.obj
 0001:0017dda0       ??R?$AABBTreeRaycast@$00$00VAABBTree@Gu@physx@@UBVHNode@23@URaycastCallbackAdapter@23@@Gu@physx@@QEAA_NAEBVAABBTreeBounds@12@AEBVAABBTree@12@AEBV?$PxVec3T@M@2@2AEAM2AEAURaycastCallbackAdapter@12@@Z 000000018017eda0 f i GuExtendedBucketPruner.obj
 0001:0017e480       ??R?$AABBTreeRaycast@$0A@$00VAABBTree@Gu@physx@@UBVHNode@23@U?$MainTreeRaycastPrunerCallback@$0A@@@@Gu@physx@@QEAA_NAEBVAABBTreeBounds@12@AEBVAABBTree@12@AEBV?$PxVec3T@M@2@2AEAM2AEAU?$MainTreeRaycastPrunerCallback@$0A@@@@Z 000000018017f480 f i GuExtendedBucketPruner.obj
 0001:0017eb40       ??R?$AABBTreeRaycast@$0A@$00VAABBTree@Gu@physx@@UBVHNode@23@URaycastCallbackAdapter@23@@Gu@physx@@QEAA_NAEBVAABBTreeBounds@12@AEBVAABBTree@12@AEBV?$PxVec3T@M@2@2AEAM2AEAURaycastCallbackAdapter@12@@Z 000000018017fb40 f i GuExtendedBucketPruner.obj
 0001:0017f1c0       ?addTree@ExtendedBucketPruner@Gu@physx@@QEAAXAEBVAABBTreeMergeData@23@I@Z 00000001801801c0 f   GuExtendedBucketPruner.obj
 0001:0017f490       ?buildMainAABBTree@ExtendedBucketPruner@Gu@physx@@AEAAXXZ 0000000180180490 f   GuExtendedBucketPruner.obj
 0001:0017f540       ?create@?$PxHashBase@V?$PxPair@$$CBUPrunerPayload@Gu@physx@@UExtendedBucketPrunerData@23@@physx@@UPrunerPayload@Gu@2@UExtendedBucketPrunerHash@42@UGetKey@?$PxHashMapBase@UPrunerPayload@Gu@physx@@UExtendedBucketPrunerData@23@UExtendedBucketPrunerHash@23@VPxAllocator@3@@2@VPxAllocator@2@$00@physx@@QEAAPEAV?$PxPair@$$CBUPrunerPayload@Gu@physx@@UExtendedBucketPrunerData@23@@2@AEBUPrunerPayload@Gu@2@AEA_N@Z 0000000180180540 f i GuExtendedBucketPruner.obj
 0001:0017f710       ?eraseInternal@?$PxHashBase@V?$PxPair@$$CBUPrunerPayload@Gu@physx@@UExtendedBucketPrunerData@23@@physx@@UPrunerPayload@Gu@2@UExtendedBucketPrunerHash@42@UGetKey@?$PxHashMapBase@UPrunerPayload@Gu@physx@@UExtendedBucketPrunerData@23@UExtendedBucketPrunerHash@23@VPxAllocator@3@@2@VPxAllocator@2@$00@physx@@AEAA_NPEAI@Z 0000000180180710 f i GuExtendedBucketPruner.obj
 0001:0017f830       ?find@?$PxHashMapBase@UPrunerPayload@Gu@physx@@UExtendedBucketPrunerData@23@UExtendedBucketPrunerHash@23@VPxAllocator@3@@physx@@QEBAPEBV?$PxPair@$$CBUPrunerPayload@Gu@physx@@UExtendedBucketPrunerData@23@@2@AEBUPrunerPayload@Gu@2@@Z 0000000180180830 f i GuExtendedBucketPruner.obj
 0001:0017f920       ?getGlobalBounds@ExtendedBucketPruner@Gu@physx@@QEBAXAEAVPxBounds3@3@@Z 0000000180180920 f   GuExtendedBucketPruner.obj
 0001:0017f9f0       ?invalidateObject@ExtendedBucketPruner@Gu@physx@@AEAAXAEBUExtendedBucketPrunerData@23@IAEBUPrunerPayload@23@I@Z 00000001801809f0 f   GuExtendedBucketPruner.obj
 0001:0017fb30       ?overlap@ExtendedBucketPruner@Gu@physx@@QEBA_NAEBVShapeData@23@AEAUPrunerOverlapCallback@23@@Z 0000000180180b30 f   GuExtendedBucketPruner.obj
 0001:00180310       ?raycast@ExtendedBucketPruner@Gu@physx@@QEBA_NAEBV?$PxVec3T@M@3@0AEAMAEAUPrunerRaycastCallback@23@@Z 0000000180181310 f   GuExtendedBucketPruner.obj
 0001:001803f0       ?refitMarkedNodes@ExtendedBucketPruner@Gu@physx@@QEAAXPEBVPxBounds3@3@@Z 00000001801813f0 f   GuExtendedBucketPruner.obj
 0001:00180960       ?release@ExtendedBucketPruner@Gu@physx@@QEAAXXZ 0000000180181960 f   GuExtendedBucketPruner.obj
 0001:00180a30       ?removeMarkedObjects@ExtendedBucketPruner@Gu@physx@@QEAAII@Z 0000000180181a30 f   GuExtendedBucketPruner.obj
 0001:00180d50       ?removeObject@ExtendedBucketPruner@Gu@physx@@QEAA_NAEBUPrunerPayload@23@II0I@Z 0000000180181d50 f   GuExtendedBucketPruner.obj
 0001:00180f40       ?reserveInternal@?$PxHashBase@V?$PxPair@$$CBUPrunerPayload@Gu@physx@@UExtendedBucketPrunerData@23@@physx@@UPrunerPayload@Gu@2@UExtendedBucketPrunerHash@42@UGetKey@?$PxHashMapBase@UPrunerPayload@Gu@physx@@UExtendedBucketPrunerData@23@UExtendedBucketPrunerHash@23@VPxAllocator@3@@2@VPxAllocator@2@$00@physx@@AEAAXI@Z 0000000180181f40 f i GuExtendedBucketPruner.obj
 0001:00181140       ?shiftOrigin@ExtendedBucketPruner@Gu@physx@@QEAAXAEBV?$PxVec3T@M@3@@Z 0000000180182140 f   GuExtendedBucketPruner.obj
 0001:001811c0       ?swapIndex@ExtendedBucketPruner@Gu@physx@@QEAAXIAEBUPrunerPayload@23@I_N@Z 00000001801821c0 f   GuExtendedBucketPruner.obj
 0001:00181290       ?sweep@ExtendedBucketPruner@Gu@physx@@QEBA_NAEBVShapeData@23@AEBV?$PxVec3T@M@3@AEAMAEAUPrunerRaycastCallback@23@@Z 0000000180182290 f   GuExtendedBucketPruner.obj
 0001:00181420       ?updateObject@ExtendedBucketPruner@Gu@physx@@QEAA_NAEBVPxBounds3@3@AEBV?$PxTransformT@M@3@AEBUPrunerPayload@23@II@Z 0000000180182420 f   GuExtendedBucketPruner.obj
 0001:001814f0       ?visualize@ExtendedBucketPruner@Gu@physx@@QEBAXAEAVPxRenderOutput@3@I@Z 00000001801824f0 f   GuExtendedBucketPruner.obj
 0001:00181580       ??0?$OBBAABBTests@$00@Gu@physx@@QEAA@AEBV?$PxVec3T@M@2@AEBV?$PxMat33T@M@2@0@Z 0000000180182580 f i GuSecondaryPruner.obj
 0001:001834d0       ??_ECompanionPruner@Gu@physx@@UEAAPEAXI@Z 00000001801844d0 f i GuSecondaryPruner.obj
 0001:001834d0       ??_GCompanionPruner@Gu@physx@@UEAAPEAXI@Z 00000001801844d0 f i GuSecondaryPruner.obj
 0001:00183520       ??_ECompanionPrunerAABBTree@@UEAAPEAXI@Z 0000000180184520 f i GuSecondaryPruner.obj
 0001:00183520       ??_GCompanionPrunerAABBTree@@UEAAPEAXI@Z 0000000180184520 f i GuSecondaryPruner.obj
 0001:001835d0       ??_ECompanionPrunerBucket@@UEAAPEAXI@Z 00000001801845d0 f i GuSecondaryPruner.obj
 0001:001835d0       ??_GCompanionPrunerBucket@@UEAAPEAXI@Z 00000001801845d0 f i GuSecondaryPruner.obj
 0001:00183650       ??_ECompanionPrunerIncremental@@UEAAPEAXI@Z 0000000180184650 f i GuSecondaryPruner.obj
 0001:00183650       ??_GCompanionPrunerIncremental@@UEAAPEAXI@Z 0000000180184650 f i GuSecondaryPruner.obj
 0001:001836d0       ?addObject@CompanionPrunerAABBTree@@UEAA_NAEBUPrunerPayload@Gu@physx@@IAEBVPxBounds3@4@AEBV?$PxTransformT@M@4@II@Z 00000001801846d0 f   GuSecondaryPruner.obj
 0001:00183910       ?addObject@CompanionPrunerBucket@@UEAA_NAEBUPrunerPayload@Gu@physx@@IAEBVPxBounds3@4@AEBV?$PxTransformT@M@4@II@Z 0000000180184910 f i GuSecondaryPruner.obj
 0001:00183930       ?addObject@CompanionPrunerIncremental@@UEAA_NAEBUPrunerPayload@Gu@physx@@IAEBVPxBounds3@4@AEBV?$PxTransformT@M@4@II@Z 0000000180184930 f i GuSecondaryPruner.obj
 0001:00183950       ?addObjectInternal@CompanionPrunerAABBTree@@QEAA_NII@Z 0000000180184950 f   GuSecondaryPruner.obj
 0001:00183af0       ?build@CompanionPrunerAABBTree@@UEAAXXZ 0000000180184af0 f   GuSecondaryPruner.obj
 0001:00183fc0       ?createCompanionPruner@Gu@physx@@YAPEAVCompanionPruner@12@_KW4CompanionPrunerType@12@PEBVPruningPool@12@@Z 0000000180184fc0 f   GuSecondaryPruner.obj
 0001:001841c0       ?getGlobalBounds@CompanionPrunerAABBTree@@UEBAXAEAVPxBounds3@physx@@@Z 00000001801851c0 f   GuSecondaryPruner.obj
 0001:001842d0       ?getGlobalBounds@CompanionPrunerBucket@@UEBAXAEAVPxBounds3@physx@@@Z 00000001801852d0 f i GuSecondaryPruner.obj
 0001:001842e0       ?getGlobalBounds@CompanionPrunerIncremental@@UEBAXAEAVPxBounds3@physx@@@Z 00000001801852e0 f i GuSecondaryPruner.obj
 0001:001842f0       ?getNbObjects@CompanionPrunerAABBTree@@UEBAIXZ 00000001801852f0 f   GuSecondaryPruner.obj
 0001:00184300       ?getNbObjects@CompanionPrunerBucket@@UEBAIXZ 0000000180185300 f i GuSecondaryPruner.obj
 0001:00184310       ?getNbObjects@CompanionPrunerIncremental@@UEBAIXZ 0000000180185310 f i GuSecondaryPruner.obj
 0001:00184320       ?growAndPushBack@?$PxArray@ULocalData@CompanionPrunerAABBTree@@V?$PxReflectionAllocator@ULocalData@CompanionPrunerAABBTree@@@physx@@@physx@@IEAAAEAULocalData@CompanionPrunerAABBTree@@AEBU34@@Z 0000000180185320 f i GuSecondaryPruner.obj
 0001:00184440       ?overlap@CompanionPrunerAABBTree@@UEBA_NAEBVShapeData@Gu@physx@@AEAUPrunerOverlapCallback@34@@Z 0000000180185440 f   GuSecondaryPruner.obj
 0001:001853d0       ?overlap@CompanionPrunerBucket@@UEBA_NAEBVShapeData@Gu@physx@@AEAUPrunerOverlapCallback@34@@Z 00000001801863d0 f i GuSecondaryPruner.obj
 0001:001853f0       ?overlap@CompanionPrunerIncremental@@UEBA_NAEBVShapeData@Gu@physx@@AEAUPrunerOverlapCallback@34@@Z 00000001801863f0 f i GuSecondaryPruner.obj
 0001:00185410       ?raycast@CompanionPrunerAABBTree@@UEBA_NAEBV?$PxVec3T@M@physx@@0AEAMAEAUPrunerRaycastCallback@Gu@3@@Z 0000000180186410 f   GuSecondaryPruner.obj
 0001:001857f0       ?raycast@CompanionPrunerBucket@@UEBA_NAEBV?$PxVec3T@M@physx@@0AEAMAEAUPrunerRaycastCallback@Gu@3@@Z 00000001801867f0 f i GuSecondaryPruner.obj
 0001:00185810       ?raycast@CompanionPrunerIncremental@@UEBA_NAEBV?$PxVec3T@M@physx@@0AEAMAEAUPrunerRaycastCallback@Gu@3@@Z 0000000180186810 f i GuSecondaryPruner.obj
 0001:00185830       ?release@CompanionPrunerAABBTree@@UEAAXXZ 0000000180186830 f   GuSecondaryPruner.obj
 0001:00185840       ?release@CompanionPrunerBucket@@UEAAXXZ 0000000180186840 f i GuSecondaryPruner.obj
 0001:00185850       ?release@CompanionPrunerIncremental@@UEAAXXZ 0000000180186850 f i GuSecondaryPruner.obj
 0001:00185860       ?releaseInternal@CompanionPrunerAABBTree@@QEAAXXZ 0000000180186860 f   GuSecondaryPruner.obj
 0001:001858e0       ?removeMarkedObjects@CompanionPrunerAABBTree@@UEAAII@Z 00000001801868e0 f   GuSecondaryPruner.obj
 0001:00185900       ?removeMarkedObjects@CompanionPrunerBucket@@UEAAII@Z 0000000180186900 f i GuSecondaryPruner.obj
 0001:00185910       ?removeMarkedObjects@CompanionPrunerIncremental@@UEAAII@Z 0000000180186910 f i GuSecondaryPruner.obj
 0001:00185920       ?removeObject@CompanionPrunerAABBTree@@UEAA_NAEBUPrunerPayload@Gu@physx@@III@Z 0000000180186920 f   GuSecondaryPruner.obj
 0001:001859c0       ?removeObject@CompanionPrunerBucket@@UEAA_NAEBUPrunerPayload@Gu@physx@@III@Z 00000001801869c0 f i GuSecondaryPruner.obj
 0001:001859e0       ?removeObject@CompanionPrunerIncremental@@UEAA_NAEBUPrunerPayload@Gu@physx@@III@Z 00000001801869e0 f i GuSecondaryPruner.obj
 0001:00185a00       ?shiftOrigin@CompanionPrunerAABBTree@@UEAAXAEBV?$PxVec3T@M@physx@@@Z 0000000180186a00 f   GuSecondaryPruner.obj
 0001:00185b30       ?shiftOrigin@CompanionPrunerIncremental@@UEAAXAEBV?$PxVec3T@M@physx@@@Z 0000000180186b30 f i GuSecondaryPruner.obj
 0001:00185b40       ?swapIndex@CompanionPrunerIncremental@@UEAAXII@Z 0000000180186b40 f i GuSecondaryPruner.obj
 0001:00185b50       ?sweep@CompanionPrunerAABBTree@@UEBA_NAEBVShapeData@Gu@physx@@AEBV?$PxVec3T@M@4@AEAMAEAUPrunerRaycastCallback@34@@Z 0000000180186b50 f   GuSecondaryPruner.obj
 0001:00186090       ?sweep@CompanionPrunerBucket@@UEBA_NAEBVShapeData@Gu@physx@@AEBV?$PxVec3T@M@4@AEAMAEAUPrunerRaycastCallback@34@@Z 0000000180187090 f i GuSecondaryPruner.obj
 0001:001860b0       ?sweep@CompanionPrunerIncremental@@UEBA_NAEBVShapeData@Gu@physx@@AEBV?$PxVec3T@M@4@AEAMAEAUPrunerRaycastCallback@34@@Z 00000001801870b0 f i GuSecondaryPruner.obj
 0001:001860d0       ?timeStampChange@CompanionPrunerIncremental@@UEAAXXZ 00000001801870d0 f i GuSecondaryPruner.obj
 0001:001860f0       ?updateObject@CompanionPrunerAABBTree@@UEAA_NAEBUPrunerPayload@Gu@physx@@IAEBVPxBounds3@4@AEBV?$PxTransformT@M@4@I@Z 00000001801870f0 f   GuSecondaryPruner.obj
 0001:00186170       ?updateObject@CompanionPrunerBucket@@UEAA_NAEBUPrunerPayload@Gu@physx@@IAEBVPxBounds3@4@AEBV?$PxTransformT@M@4@I@Z 0000000180187170 f i GuSecondaryPruner.obj
 0001:00186190       ?updateObject@CompanionPrunerIncremental@@UEAA_NAEBUPrunerPayload@Gu@physx@@IAEBVPxBounds3@4@AEBV?$PxTransformT@M@4@I@Z 0000000180187190 f i GuSecondaryPruner.obj
 0001:001861a0       ?visualize@CompanionPrunerAABBTree@@UEBAXAEAVPxRenderOutput@physx@@I@Z 00000001801871a0 f   GuSecondaryPruner.obj
 0001:001861c0       ?visualize@CompanionPrunerIncremental@@UEBAXAEAVPxRenderOutput@physx@@I@Z 00000001801871c0 f i GuSecondaryPruner.obj
 0001:001861d0       ??0AABBPruner@Gu@physx@@QEAA@_N_KW4CompanionPrunerType@12@W4BVHBuildStrategy@12@I@Z 00000001801871d0 f   GuAABBPruner.obj
 0001:00186300       ??1AABBPruner@Gu@physx@@UEAA@XZ 0000000180187300 f   GuAABBPruner.obj
 0001:00186460       ??_EAABBPruner@Gu@physx@@UEAAPEAXI@Z 0000000180187460 f i GuAABBPruner.obj
 0001:00186460       ??_GAABBPruner@Gu@physx@@UEAAPEAXI@Z 0000000180187460 f i GuAABBPruner.obj
 0001:001864d0       ?addObjects@AABBPruner@Gu@physx@@UEAA_NPEAIPEBVPxBounds3@3@PEBUPrunerPayload@23@PEBV?$PxTransformT@M@3@I_N@Z 00000001801874d0 f   GuAABBPruner.obj
 0001:00186630       ?buildStep@AABBPruner@Gu@physx@@UEAA_N_N@Z 0000000180187630 f   GuAABBPruner.obj
 0001:00186860       ?commit@AABBPruner@Gu@physx@@UEAAXXZ 0000000180187860 f   GuAABBPruner.obj
 0001:00186c20       ?getGlobalBounds@AABBPruner@Gu@physx@@UEBAXAEAVPxBounds3@3@@Z 0000000180187c20 f   GuAABBPruner.obj
 0001:00186d60       ?getPayloadData@AABBPruner@Gu@physx@@UEBAAEBUPrunerPayload@23@IPEAUPrunerPayloadData@23@@Z 0000000180187d60 f i GuAABBPruner.obj
 0001:00186dc0       ?growAndPushBack@?$PxArray@UNewTreeFixup@AABBPruner@Gu@physx@@V?$PxReflectionAllocator@UNewTreeFixup@AABBPruner@Gu@physx@@@4@@physx@@IEAAAEAUNewTreeFixup@AABBPruner@Gu@2@AEBU3452@@Z 0000000180187dc0 f i GuAABBPruner.obj
 0001:00186ee0       ?isDynamic@AABBPruner@Gu@physx@@UEBA_NXZ 0000000180187ee0 f i GuAABBPruner.obj
 0001:00186ef0       ?merge@AABBPruner@Gu@physx@@UEAAXPEBX@Z 0000000180187ef0 f   GuAABBPruner.obj
 0001:00186f70       ?overlap@AABBPruner@Gu@physx@@UEBA_NAEBVShapeData@23@AEAUPrunerOverlapCallback@23@@Z 0000000180187f70 f   GuAABBPruner.obj
 0001:00187540       ?preallocate@AABBPruner@Gu@physx@@UEAAXI@Z 0000000180188540 f i GuAABBPruner.obj
 0001:00187550       ?prepareBuild@AABBPruner@Gu@physx@@UEAA_NXZ 0000000180188550 f   GuAABBPruner.obj
 0001:001876e0       ?purge@AABBPruner@Gu@physx@@UEAAXXZ 00000001801886e0 f   GuAABBPruner.obj
 0001:00187700       ?raycast@AABBPruner@Gu@physx@@UEBA_NAEBV?$PxVec3T@M@3@0AEAMAEAUPrunerRaycastCallback@23@@Z 0000000180188700 f   GuAABBPruner.obj
 0001:001877f0       ?release@AABBPruner@Gu@physx@@QEAAXXZ 00000001801887f0 f   GuAABBPruner.obj
 0001:00187920       ?removeObjects@AABBPruner@Gu@physx@@UEAAXPEBIIPEAUPrunerPayloadRemovalCallback@23@@Z 0000000180188920 f   GuAABBPruner.obj
 0001:00187b10       ?setRebuildRateHint@AABBPruner@Gu@physx@@UEAAXI@Z 0000000180188b10 f   GuAABBPruner.obj
 0001:00187b30       ?setTransform@AABBPruner@Gu@physx@@UEAA_NIAEBV?$PxTransformT@M@3@@Z 0000000180188b30 f i GuAABBPruner.obj
 0001:00187b90       ?shiftOrigin@AABBPruner@Gu@physx@@UEAAXAEBV?$PxVec3T@M@3@@Z 0000000180188b90 f   GuAABBPruner.obj
 0001:00187c00       ?sweep@AABBPruner@Gu@physx@@UEBA_NAEBVShapeData@23@AEBV?$PxVec3T@M@3@AEAMAEAUPrunerRaycastCallback@23@@Z 0000000180188c00 f   GuAABBPruner.obj
 0001:00187d90       ?updateObjects@AABBPruner@Gu@physx@@UEAAXPEBIIM0PEBVPxBounds3@3@PEBUPxTransformPadded@3@@Z 0000000180188d90 f   GuAABBPruner.obj
 0001:00187f30       ?visualize@AABBPruner@Gu@physx@@UEBAXAEAVPxRenderOutput@3@II@Z 0000000180188f30 f   GuAABBPruner.obj
 0001:00187fe0       ??0ActorShapeMap@Gu@physx@@QEAA@XZ 0000000180188fe0 f   GuActorShapeMap.obj
 0001:00188040       ??1ActorShapeMap@Gu@physx@@QEAA@XZ 0000000180189040 f   GuActorShapeMap.obj
 0001:001880a0       ?add@ActorShapeMap@Gu@physx@@QEAA_NIPEBX0_K@Z 00000001801890a0 f   GuActorShapeMap.obj
 0001:00188240       ?create@?$PxHashBase@V?$PxPair@$$CBUActorShape@ActorShapeMap@Gu@physx@@_K@physx@@UActorShape@ActorShapeMap@Gu@2@U?$PxHash@UActorShape@ActorShapeMap@Gu@physx@@@2@UGetKey@?$PxHashMapBase@UActorShape@ActorShapeMap@Gu@physx@@_KU?$PxHash@UActorShape@ActorShapeMap@Gu@physx@@@4@VPxAllocator@4@@2@VPxAllocator@2@$00@physx@@QEAAPEAV?$PxPair@$$CBUActorShape@ActorShapeMap@Gu@physx@@_K@2@AEBUActorShape@ActorShapeMap@Gu@2@AEA_N@Z 0000000180189240 f i GuActorShapeMap.obj
 0001:00188430       ?eraseInternal@?$PxHashBase@V?$PxPair@$$CBUActorShape@ActorShapeMap@Gu@physx@@_K@physx@@UActorShape@ActorShapeMap@Gu@2@U?$PxHash@UActorShape@ActorShapeMap@Gu@physx@@@2@UGetKey@?$PxHashMapBase@UActorShape@ActorShapeMap@Gu@physx@@_KU?$PxHash@UActorShape@ActorShapeMap@Gu@physx@@@4@VPxAllocator@4@@2@VPxAllocator@2@$00@physx@@AEAA_NPEAI@Z 0000000180189430 f i GuActorShapeMap.obj
 0001:00188540       ?find@ActorShapeMap@Gu@physx@@QEBA_KIPEBX0@Z 0000000180189540 f   GuActorShapeMap.obj
 0001:00188630       ?remove@ActorShapeMap@Gu@physx@@QEAA_NIPEBX0PEA_K@Z 0000000180189630 f   GuActorShapeMap.obj
 0001:00188780       ?reserveInternal@?$PxHashBase@V?$PxPair@$$CBUActorShape@ActorShapeMap@Gu@physx@@_K@physx@@UActorShape@ActorShapeMap@Gu@2@U?$PxHash@UActorShape@ActorShapeMap@Gu@physx@@@2@UGetKey@?$PxHashMapBase@UActorShape@ActorShapeMap@Gu@physx@@_KU?$PxHash@UActorShape@ActorShapeMap@Gu@physx@@@4@VPxAllocator@4@@2@VPxAllocator@2@$00@physx@@AEAAXI@Z 0000000180189780 f i GuActorShapeMap.obj
 0001:00188990       ??0QuerySystem@Gu@physx@@QEAA@_KMAEBVAdapter@12@_N@Z 0000000180189990 f   GuQuerySystem.obj
 0001:00188a60       ??1QuerySystem@Gu@physx@@QEAA@XZ 0000000180189a60 f   GuQuerySystem.obj
 0001:00188cb0       ??_GPrunerExt@QuerySystem@Gu@physx@@QEAAPEAXI@Z 0000000180189cb0 f i GuQuerySystem.obj
 0001:00188dc0       ?addPruner@QuerySystem@Gu@physx@@QEAAIPEAVPruner@23@I@Z 0000000180189dc0 f   GuQuerySystem.obj
 0001:00188ee0       ?addPrunerShape@QuerySystem@Gu@physx@@QEAA_KAEBUPrunerPayload@23@I_NAEBV?$PxTransformT@M@3@PEBVPxBounds3@3@@Z 0000000180189ee0 f   GuQuerySystem.obj
 0001:00189020       ?addToDirtyList@PrunerExt@QuerySystem@Gu@physx@@QEAAXIIAEBV?$PxTransformT@M@4@PEBVPxBounds3@4@@Z 000000018018a020 f   GuQuerySystem.obj
 0001:00189270       ?commitUpdates@QuerySystem@Gu@physx@@QEAAXXZ 000000018018a270 f   GuQuerySystem.obj
 0001:00189320       ?createTreeOfPruners@QuerySystem@Gu@physx@@QEAAXXZ 000000018018a320 f   GuQuerySystem.obj
 0001:00189480       ?flushMemory@QuerySystem@Gu@physx@@QEAAXXZ 000000018018a480 f   GuQuerySystem.obj
 0001:00189510       ?getPayloadData@QuerySystem@Gu@physx@@QEBAAEBUPrunerPayload@23@_KPEAUPrunerPayloadData@23@@Z 000000018018a510 f   GuQuerySystem.obj
 0001:00189530       ?growAndPushBack@?$PxArray@PEAUPrunerExt@QuerySystem@Gu@physx@@V?$PxReflectionAllocator@PEAUPrunerExt@QuerySystem@Gu@physx@@@4@@physx@@IEAAAEAPEAUPrunerExt@QuerySystem@Gu@2@AEBQEAU3452@@Z 000000018018a530 f i GuQuerySystem.obj
 0001:00189650       ?overlap@QuerySystem@Gu@physx@@QEBAXAEBVShapeData@23@AEAUPrunerOverlapCallback@23@PEBVPrunerFilter@23@@Z 000000018018a650 f   GuQuerySystem.obj
 0001:00189750       ?processDirtyLists@QuerySystem@Gu@physx@@AEAAXXZ 000000018018a750 f   GuQuerySystem.obj
 0001:00189a30       ?raycast@QuerySystem@Gu@physx@@QEBAXAEBV?$PxVec3T@M@3@0AEAMAEAUPrunerRaycastCallback@23@PEBVPrunerFilter@23@@Z 000000018018aa30 f   GuQuerySystem.obj
 0001:00189b70       ?recreate@?$PxArray@UData@PrunerExt@QuerySystem@Gu@physx@@V?$PxReflectionAllocator@UData@PrunerExt@QuerySystem@Gu@physx@@@5@@physx@@IEAAXI@Z 000000018018ab70 f i GuQuerySystem.obj
 0001:00189e60       ?removePruner@QuerySystem@Gu@physx@@QEAAXI@Z 000000018018ae60 f   GuQuerySystem.obj
 0001:00189f40       ?removePrunerShape@QuerySystem@Gu@physx@@QEAAX_KPEAUPrunerPayloadRemovalCallback@23@@Z 000000018018af40 f   GuQuerySystem.obj
 0001:0018a170       ?sweep@QuerySystem@Gu@physx@@QEBAXAEBVShapeData@23@AEBV?$PxVec3T@M@3@AEAMAEAUPrunerRaycastCallback@23@PEBVPrunerFilter@23@@Z 000000018018b170 f   GuQuerySystem.obj
 0001:0018a2a0       ?sync@QuerySystem@Gu@physx@@QEAAXIPEBI0PEBVPxBounds3@3@PEBUPxTransformPadded@3@I@Z 000000018018b2a0 f   GuQuerySystem.obj
 0001:0018a350       ?update@QuerySystem@Gu@physx@@QEAAX_N0@Z 000000018018b350 f   GuQuerySystem.obj
 0001:0018a420       ?updatePrunerShape@QuerySystem@Gu@physx@@QEAAX_K_NAEBV?$PxTransformT@M@3@PEBVPxBounds3@3@@Z 000000018018b420 f   GuQuerySystem.obj
 0001:0018a610       createAABBPruner           000000018018b610 f   GuFactory.obj
 0001:0018a6d0       createBucketPruner         000000018018b6d0 f   GuFactory.obj
 0001:0018a760       createIncrementalPruner    000000018018b760 f   GuFactory.obj
 0001:0018a7f0       ??$PxSmallSort@I$$CBUSortBoundsPredicate@physx@@@physx@@YAXPEAIHHAEBUSortBoundsPredicate@0@@Z 000000018018b7f0 f i GuRTreeCooking.obj
 0001:0018aa90       ??$PxSort@IU?$PxLess@I@physx@@V?$PxReflectionAllocator@I@2@@physx@@YAXPEAIIAEBU?$PxLess@I@0@AEBV?$PxReflectionAllocator@I@0@I@Z 000000018018ba90 f i GuRTreeCooking.obj
 0001:0018aee0       ??$PxSort@IUSortBoundsPredicate@physx@@V?$PxReflectionAllocator@I@2@@physx@@YAXPEAIIAEBUSortBoundsPredicate@0@AEBV?$PxReflectionAllocator@I@0@I@Z 000000018018bee0 f i GuRTreeCooking.obj
 0001:0018b390       ??$quickSelectFirstK@UBoundsLTE@physx@@@quickSelect@physx@@YAXPEIAIIIIAEBUBoundsLTE@1@@Z 000000018018c390 f i GuRTreeCooking.obj
 0001:0018b570       ?allocate@?$PxArray@UInterval@physx@@V?$PxInlineAllocator@$0CAAA@V?$PxReflectionAllocator@UInterval@physx@@@physx@@@2@@physx@@IEAAPEAUInterval@2@IPEAI@Z 000000018018c570 f i GuRTreeCooking.obj
 0001:0018c2b0       ?buildFromTriangles@RTreeCooker@physx@@SAXAEAURTree@Gu@2@PEBV?$PxVec3T@M@2@IPEBGPEBIIAEAV?$PxArray@IV?$PxReflectionAllocator@I@physx@@@2@PEAURemapCallback@12@MW4Enum@PxMeshCookingHint@2@@Z 000000018018d2b0 f   GuRTreeCooking.obj
 0001:0018c570       ?copy@?$PxArray@URTreeNodeNQ@physx@@V?$PxReflectionAllocator@URTreeNodeNQ@physx@@@2@@physx@@KAXPEAURTreeNodeNQ@2@0PEBU32@@Z 000000018018d570 f i GuRTreeCooking.obj
 0001:0018c730       ?growAndPushBack@?$PxArray@UInterval@physx@@V?$PxInlineAllocator@$0CAAA@V?$PxReflectionAllocator@UInterval@physx@@@physx@@@2@@physx@@IEAAAEAUInterval@2@AEBU32@@Z 000000018018d730 f i GuRTreeCooking.obj
 0001:0018c820       ?growAndPushBack@?$PxArray@UPxBounds3V@physx@@V?$PxReflectionAllocator@UPxBounds3V@physx@@@2@@physx@@IEAAAEAUPxBounds3V@2@AEBU32@@Z 000000018018d820 f i GuRTreeCooking.obj
 0001:0018c950       ?growAndPushBack@?$PxArray@URTreeNodeNQ@physx@@V?$PxReflectionAllocator@URTreeNodeNQ@physx@@@2@@physx@@IEAAAEAURTreeNodeNQ@2@AEBU32@@Z 000000018018d950 f i GuRTreeCooking.obj
 0001:0018ca90       ?growAndPushBack@?$PxArray@URTreeNodeQ@Gu@physx@@V?$PxReflectionAllocator@URTreeNodeQ@Gu@physx@@@3@@physx@@IEAAAEAURTreeNodeQ@Gu@2@AEBU342@@Z 000000018018da90 f i GuRTreeCooking.obj
 0001:0018cbd0       ?recreate@?$PxArray@UPxBounds3V@physx@@V?$PxReflectionAllocator@UPxBounds3V@physx@@@2@@physx@@IEAAXI@Z 000000018018dbd0 f i GuRTreeCooking.obj
 0001:0018ccd0       ?recreate@?$PxArray@URTreeNodeNQ@physx@@V?$PxReflectionAllocator@URTreeNodeNQ@physx@@@2@@physx@@IEAAXI@Z 000000018018dcd0 f i GuRTreeCooking.obj
 0001:0018cdb0       ?recreate@?$PxArray@URTreeNodeQ@Gu@physx@@V?$PxReflectionAllocator@URTreeNodeQ@Gu@physx@@@3@@physx@@IEAAXI@Z 000000018018ddb0 f i GuRTreeCooking.obj
 0001:0018ceb0       ?resizeUninitialized@?$PxArray@URTreeNodeNQ@physx@@V?$PxReflectionAllocator@URTreeNodeNQ@physx@@@2@@physx@@QEAAXI@Z 000000018018deb0 f i GuRTreeCooking.obj
 0001:0018cef0       ?sort4@SubSortQuick@physx@@QEAAXPEIAIIAEAV?$PxArray@URTreeNodeNQ@physx@@V?$PxReflectionAllocator@URTreeNodeNQ@physx@@@2@@2@AEAIAEAUPxBounds3V@2@I@Z 000000018018def0 f i GuRTreeCooking.obj
 0001:0018d280       ?sort4@SubSortSAH@physx@@QEAAXPEAIIAEAV?$PxArray@URTreeNodeNQ@physx@@V?$PxReflectionAllocator@URTreeNodeNQ@physx@@@2@@2@AEAIIPEAURTreeNodeNQ@2@@Z 000000018018e280 f i GuRTreeCooking.obj
 0001:0018dae0       ?split@SubSortSAH@physx@@QEAAIPEAII@Z 000000018018eae0 f i GuRTreeCooking.obj
 0001:0018e560       cookBVH                    000000018018f560 f   GuCookingBVH.obj
 0001:0018e6f0       createBVH                  000000018018f6f0 f   GuCookingBVH.obj
 0001:0018e880       cookHeightField            000000018018f880 f   GuCookingHF.obj
 0001:0018e990       createHeightField          000000018018f990 f   GuCookingHF.obj
 0001:0018f020       ?isFinite@?$PxVec3T@M@physx@@QEBA_NXZ 0000000180190020 f i GuCookingConvexMesh.obj
 0001:0018f080       computeHullPolygons        0000000180190080 f   GuCookingConvexMesh.obj
 0001:0018f260       cookConvexMesh             0000000180190260 f   GuCookingConvexMesh.obj
 0001:0018f3d0       createConvexMesh           00000001801903d0 f   GuCookingConvexMesh.obj
 0001:0018f570       validateConvexMesh         0000000180190570 f   GuCookingConvexMesh.obj
 0001:0018f690       ??1BV4TriangleMeshBuilder@physx@@UEAA@XZ 0000000180190690 f   GuCookingTriangleMesh.obj
 0001:0018f720       ??1RTreeTriangleMeshBuilder@physx@@UEAA@XZ 0000000180190720 f   GuCookingTriangleMesh.obj
 0001:0018f790       ??_EBV4TriangleMeshBuilder@physx@@UEAAPEAXI@Z 0000000180190790 f i GuCookingTriangleMesh.obj
 0001:0018f790       ??_GBV4TriangleMeshBuilder@physx@@UEAAPEAXI@Z 0000000180190790 f i GuCookingTriangleMesh.obj
 0001:0018f7d0       ??_ERTreeTriangleMeshBuilder@physx@@UEAAPEAXI@Z 00000001801907d0 f i GuCookingTriangleMesh.obj
 0001:0018f7d0       ??_GRTreeTriangleMeshBuilder@physx@@UEAAPEAXI@Z 00000001801907d0 f i GuCookingTriangleMesh.obj
 0001:0018f810       ??_ETriangleMeshBuilder@physx@@UEAAPEAXI@Z 0000000180190810 f i GuCookingTriangleMesh.obj
 0001:0018f810       ??_GTriangleMeshBuilder@physx@@UEAAPEAXI@Z 0000000180190810 f i GuCookingTriangleMesh.obj
 0001:001901d0       ?buildInertiaTensor@TriangleMeshBuilder@physx@@IEAAX_N@Z 00000001801911d0 f   GuCookingTriangleMesh.obj
 0001:00190330       ?buildInertiaTensorFromSDF@TriangleMeshBuilder@physx@@IEAAXXZ 0000000180191330 f   GuCookingTriangleMesh.obj
 0001:00190570       ?cleanMesh@TriangleMeshBuilder@physx@@QEAA_N_NPEAW4Enum@PxTriangleMeshCookingResult@2@@Z 0000000180191570 f   GuCookingTriangleMesh.obj
 0001:00190a60       ?createGRBMidPhaseAndData@TriangleMeshBuilder@physx@@QEAA_NI@Z 0000000180191a60 f   GuCookingTriangleMesh.obj
 0001:00190c10       ?createMidPhaseStructure@BV32TriangleMeshBuilder@physx@@SA_NAEBUPxCookingParams@2@AEAVTriangleMeshData@Gu@2@AEAVBV32Tree@52@@Z 0000000180191c10 f   GuCookingTriangleMesh.obj
 0001:00190e60       ?createMidPhaseStructure@BV4TriangleMeshBuilder@physx@@UEAA_NXZ 0000000180191e60 f   GuCookingTriangleMesh.obj
 0001:00191120       ?createMidPhaseStructure@RTreeTriangleMeshBuilder@physx@@UEAA_NXZ 0000000180192120 f   GuCookingTriangleMesh.obj
 0001:00191210       ?createSharedEdgeData@TriangleMeshBuilder@physx@@QEAAX_N0@Z 0000000180192210 f   GuCookingTriangleMesh.obj
 0001:001918c0       ?createVertMapping@TriangleMeshBuilder@physx@@QEAAXXZ 00000001801928c0 f   GuCookingTriangleMesh.obj
 0001:00191c20       ?importMesh@TriangleMeshBuilder@physx@@IEAA_NAEBVPxTriangleMeshDesc@2@PEAW4Enum@PxTriangleMeshCookingResult@2@_N@Z 0000000180192c20 f   GuCookingTriangleMesh.obj
 0001:001921b0       ?isValid@PxTriangleMeshDesc@physx@@QEBA_NXZ 00000001801931b0 f i GuCookingTriangleMesh.obj
 0001:00192280       ?loadFromDescInternal@TriangleMeshBuilder@physx@@IEAA_NAEAVPxTriangleMeshDesc@2@PEAW4Enum@PxTriangleMeshCookingResult@2@_N@Z 0000000180193280 f   GuCookingTriangleMesh.obj
 0001:001924a0       ?onMeshIndexFormatChange@BV4TriangleMeshBuilder@physx@@UEAAXXZ 00000001801934a0 f   GuCookingTriangleMesh.obj
 0001:001924e0       ?remap@RTreeCookerRemap@@UEAAXPEAIII@Z 00000001801934e0 f i GuCookingTriangleMesh.obj
 0001:00192500       ?remapTopology@TriangleMeshBuilder@physx@@QEAAXPEBI@Z 0000000180193500 f   GuCookingTriangleMesh.obj
 0001:001927a0       ?save@TriangleMeshBuilder@physx@@QEBA_NAEAVPxOutputStream@2@_NAEBUPxCookingParams@2@@Z 00000001801937a0 f   GuCookingTriangleMesh.obj
 0001:00192f50       ?saveMidPhaseStructure@BV32TriangleMeshBuilder@physx@@SAXPEAVBV32Tree@Gu@2@AEAVPxOutputStream@2@_N@Z 0000000180193f50 f   GuCookingTriangleMesh.obj
 0001:00193150       ?saveMidPhaseStructure@BV4TriangleMeshBuilder@physx@@UEBAXAEAVPxOutputStream@2@_N@Z 0000000180194150 f   GuCookingTriangleMesh.obj
 0001:00193300       ?saveMidPhaseStructure@RTreeTriangleMeshBuilder@physx@@UEBAXAEAVPxOutputStream@2@_N@Z 0000000180194300 f   GuCookingTriangleMesh.obj
 0001:00193540       cookTriangleMesh           0000000180194540 f   GuCookingTriangleMesh.obj
 0001:00193850       createTriangleMesh         0000000180194850 f   GuCookingTriangleMesh.obj
 0001:00193a70       validateTriangleMesh       0000000180194a70 f   GuCookingTriangleMesh.obj
 0001:00193d30       ??0SoftBodyCollisionData@Gu@physx@@QEAA@XZ 0000000180194d30 f i GuCookingTetrahedronMesh.obj
 0001:00193d90       ??_ECollisionTetrahedronMeshData@Gu@physx@@UEAAPEAXI@Z 0000000180194d90 f i GuCookingTetrahedronMesh.obj
 0001:00193d90       ??_GCollisionTetrahedronMeshData@Gu@physx@@UEAAPEAXI@Z 0000000180194d90 f i GuCookingTetrahedronMesh.obj
 0001:00193e60       ??_EPxCollisionTetrahedronMeshData@physx@@UEAAPEAXI@Z 0000000180194e60 f i GuCookingTetrahedronMesh.obj
 0001:00193e60       ??_GPxCollisionTetrahedronMeshData@physx@@UEAAPEAXI@Z 0000000180194e60 f i GuCookingTetrahedronMesh.obj
 0001:00193eb0       ??_EPxSimulationTetrahedronMeshData@physx@@UEAAPEAXI@Z 0000000180194eb0 f i GuCookingTetrahedronMesh.obj
 0001:00193eb0       ??_GPxSimulationTetrahedronMeshData@physx@@UEAAPEAXI@Z 0000000180194eb0 f i GuCookingTetrahedronMesh.obj
 0001:00193f00       ??_ESimulationTetrahedronMeshData@Gu@physx@@UEAAPEAXI@Z 0000000180194f00 f i GuCookingTetrahedronMesh.obj
 0001:00193f00       ??_GSimulationTetrahedronMeshData@Gu@physx@@UEAAPEAXI@Z 0000000180194f00 f i GuCookingTetrahedronMesh.obj
 0001:00193fd0       ?PointOutsideOfPlane4@Gu@physx@@YA?AV?$PxVec4T@M@2@AEBV?$PxVec3T@M@2@0000@Z 0000000180194fd0 f i GuCookingTetrahedronMesh.obj
 0001:00194440       ?combineGridModelPartitions@@YAXAEBVTetrahedronMeshData@Gu@physx@@AEAVSoftBodySimulationData@23@PEAPEAI@Z 0000000180195440 f   GuCookingTetrahedronMesh.obj
 0001:00194c80       ?combineGridModelPartitionsHexMesh_parallelGS@@YAXAEBVTetrahedronMeshData@Gu@physx@@AEAVSoftBodySimulationData@23@PEAPEAI@Z 0000000180195c80 f   GuCookingTetrahedronMesh.obj
 0001:00194f90       ?computeCollisionData@TetrahedronMeshBuilder@physx@@SA_NAEBVPxTetrahedronMeshDesc@2@AEAVTetrahedronMeshData@Gu@2@AEAVSoftBodyCollisionData@52@AEBUPxCookingParams@2@_N@Z 0000000180195f90 f   GuCookingTetrahedronMesh.obj
 0001:001951d0       ?computeGridModelTetrahedronPartitions@@YAPEAIAEBVTetrahedronMeshData@Gu@physx@@AEAVSoftBodySimulationData@23@@Z 00000001801961d0 f   GuCookingTetrahedronMesh.obj
 0001:00195670       ?computeGridModelVoxelPartitions@@YAPEAIAEBVTetrahedronMeshData@Gu@physx@@AEAVSoftBodySimulationData@23@@Z 0000000180196670 f   GuCookingTetrahedronMesh.obj
 0001:00195d70       ?computeModelsMapping@TetrahedronMeshBuilder@physx@@SAXAEAVTetrahedronMeshData@Gu@2@AEBV342@AEBVSoftBodyCollisionData@42@AEAVCollisionMeshMappingData@42@_NPEBUPxBoundedData@2@@Z 0000000180196d70 f   GuCookingTetrahedronMesh.obj
 0001:00196980       ?computeRestPoseAndPointMass@@YAXPEAU?$TetrahedronT@I@Gu@physx@@IPEBV?$PxVec3T@M@3@PEAMPEAV?$PxMat33T@M@3@@Z 0000000180197980 f   GuCookingTetrahedronMesh.obj
 0001:00196ed0       ?computeSimData@TetrahedronMeshBuilder@physx@@SAXAEBVPxTetrahedronMeshDesc@2@AEAVTetrahedronMeshData@Gu@2@AEAVSoftBodySimulationData@52@AEBUPxCookingParams@2@@Z 0000000180197ed0 f   GuCookingTetrahedronMesh.obj
 0001:001975c0       ?computeTetData@TetrahedronMeshBuilder@physx@@SAXAEBVPxTetrahedronMeshDesc@2@AEAVTetrahedronMeshData@Gu@2@@Z 00000001801985c0 f   GuCookingTetrahedronMesh.obj
 0001:001976b0       ?computeTetrahedronPartition@@YAIPEBU?$TetrahedronT@I@Gu@physx@@IPEAII@Z 00000001801986b0 f   GuCookingTetrahedronMesh.obj
 0001:001977a0       ?create@?$PxHashBase@IIU?$PxHash@I@physx@@UGetKey@?$PxHashSetBase@IU?$PxHash@I@physx@@VPxAllocator@2@$0A@@2@VPxAllocator@2@$0A@@physx@@QEAAPEAIAEBIAEA_N@Z 00000001801987a0 f i GuCookingTetrahedronMesh.obj
 0001:00197920       ?createCollisionModelMapping@TetrahedronMeshBuilder@physx@@SAXAEBVTetrahedronMeshData@Gu@2@AEBVSoftBodyCollisionData@42@AEAVCollisionMeshMappingData@42@@Z 0000000180198920 f   GuCookingTetrahedronMesh.obj
 0001:00197f00       ?createGRBMidPhaseAndData@TetrahedronMeshBuilder@physx@@SA_NIAEAVTetrahedronMeshData@Gu@2@AEAVSoftBodyCollisionData@42@AEBUPxCookingParams@2@@Z 0000000180198f00 f   GuCookingTetrahedronMesh.obj
 0001:00198c50       ?createMidPhaseStructure@BV32TetrahedronMeshBuilder@physx@@SA_NAEBUPxCookingParams@2@AEAVTetrahedronMeshData@Gu@2@AEAVBV32Tree@52@AEAVSoftBodyCollisionData@52@@Z 0000000180199c50 f   GuCookingTetrahedronMesh.obj
 0001:00198f20       ?createMidPhaseStructure@TetrahedronMeshBuilder@physx@@SA_NAEAVTetrahedronMeshData@Gu@2@AEAVSoftBodyCollisionData@42@AEBUPxCookingParams@2@@Z 0000000180199f20 f   GuCookingTetrahedronMesh.obj
 0001:00199bf0       ?getData@CollisionTetrahedronMeshData@Gu@physx@@UEAAPEAVPxSoftBodyCollisionData@3@XZ 000000018019abf0 f i GuCookingTetrahedronMesh.obj
 0001:00199bf0       ?getData@CollisionTetrahedronMeshData@Gu@physx@@UEBAPEBVPxSoftBodyCollisionData@3@XZ 000000018019abf0 f i GuCookingTetrahedronMesh.obj
 0001:00199bf0       ?getData@SimulationTetrahedronMeshData@Gu@physx@@UEAAPEAVPxSoftBodySimulationData@3@XZ 000000018019abf0 f i GuCookingTetrahedronMesh.obj
 0001:00199c10       ?importMesh@TetrahedronMeshBuilder@physx@@SA_NAEBVPxTetrahedronMeshDesc@2@AEBUPxCookingParams@2@AEAVTetrahedronMeshData@Gu@2@AEAVSoftBodyCollisionData@62@_N@Z 000000018019ac10 f   GuCookingTetrahedronMesh.obj
 0001:00199f10       ?isValid@PxTetrahedronMeshDesc@physx@@QEBA_NXZ 000000018019af10 f i GuCookingTetrahedronMesh.obj
 0001:00199f90       ?loadFromDesc@TetrahedronMeshBuilder@physx@@SA_NAEBVPxTetrahedronMeshDesc@2@0VPxSoftBodySimulationDataDesc@2@AEAVTetrahedronMeshData@Gu@2@AEAVSoftBodySimulationData@62@2AEAVSoftBodyCollisionData@62@AEAVCollisionMeshMappingData@62@AEBUPxCookingParams@2@_N@Z 000000018019af90 f   GuCookingTetrahedronMesh.obj
 0001:0019a100       ?recreate@?$PxArray@V?$PxArray@IV?$PxReflectionAllocator@I@physx@@@physx@@V?$PxReflectionAllocator@V?$PxArray@IV?$PxReflectionAllocator@I@physx@@@physx@@@2@@physx@@IEAAXI@Z 000000018019b100 f i GuCookingTetrahedronMesh.obj
 0001:0019a210       ?release@CollisionTetrahedronMeshData@Gu@physx@@UEAAXXZ 000000018019b210 f i GuCookingTetrahedronMesh.obj
 0001:0019a230       ?reserveInternal@?$PxHashBase@IIU?$PxHash@I@physx@@UGetKey@?$PxHashSetBase@IU?$PxHash@I@physx@@VPxAllocator@2@$0A@@2@VPxAllocator@2@$0A@@physx@@AEAAXI@Z 000000018019b230 f i GuCookingTetrahedronMesh.obj
 0001:0019a5c0       ?reserveInternal@?$PxHashBase@V?$PxPair@$$CBVSortedTriangleInds@@I@physx@@VSortedTriangleInds@@USortedTriangleIndsHash@@UGetKey@?$PxHashMapBase@VSortedTriangleInds@@IUSortedTriangleIndsHash@@VPxAllocator@physx@@@2@VPxAllocator@2@$00@physx@@AEAAXI@Z 000000018019b5c0 f i GuCookingTetrahedronMesh.obj
 0001:0019a800       ?resize@?$PxArray@V?$PxArray@IV?$PxReflectionAllocator@I@physx@@@physx@@V?$PxReflectionAllocator@V?$PxArray@IV?$PxReflectionAllocator@I@physx@@@physx@@@2@@physx@@QEAAXIAEBV?$PxArray@IV?$PxReflectionAllocator@I@physx@@@2@@Z 000000018019b800 f i GuCookingTetrahedronMesh.obj
 0001:0019a8a0       ?saveSoftBodyMeshData@TetrahedronMeshBuilder@physx@@SA_NAEAVPxOutputStream@2@_NAEBUPxCookingParams@2@AEBVTetrahedronMeshData@Gu@2@AEBVSoftBodySimulationData@62@3AEBVSoftBodyCollisionData@62@AEBVCollisionMeshMappingData@62@@Z 000000018019b8a0 f   GuCookingTetrahedronMesh.obj
 0001:0019afc0       ?saveTetrahedronMeshData@TetrahedronMeshBuilder@physx@@SA_NAEAVPxOutputStream@2@_NAEBUPxCookingParams@2@AEBVTetrahedronMeshData@Gu@2@@Z 000000018019bfc0 f   GuCookingTetrahedronMesh.obj
 0001:0019b170       ?smoothMassRatiosWhilePreservingTotalMass@@YAXPEAMIPEBIHMM@Z 000000018019c170 f   GuCookingTetrahedronMesh.obj
 0001:0019b610       ?support@?$LocalConvex@VTetrahedronV@Gu@physx@@@Gu@physx@@UEBA?AT__m128@@AEBT4@@Z 000000018019c610 f i GuCookingTetrahedronMesh.obj
 0001:0019b6d0       ?support@?$LocalConvex@VTetrahedronV@Gu@physx@@@Gu@physx@@UEBA?AT__m128@@AEBT4@AEAH@Z 000000018019c6d0 f i GuCookingTetrahedronMesh.obj
 0001:0019b880       assembleSoftBodyMesh       000000018019c880 f   GuCookingTetrahedronMesh.obj
 0001:0019b8e0       assembleSoftBodyMesh_Sim   000000018019c8e0 f   GuCookingTetrahedronMesh.obj
 0001:0019b990       computeCollisionData       000000018019c990 f   GuCookingTetrahedronMesh.obj
 0001:0019bb90       computeModelsMapping       000000018019cb90 f   GuCookingTetrahedronMesh.obj
 0001:0019bc90       computeSimulationData      000000018019cc90 f   GuCookingTetrahedronMesh.obj
 0001:0019be60       cookSoftBodyMesh           000000018019ce60 f   GuCookingTetrahedronMesh.obj
 0001:0019c480       cookTetrahedronMesh        000000018019d480 f   GuCookingTetrahedronMesh.obj
 0001:0019c580       createSoftBodyMesh         000000018019d580 f   GuCookingTetrahedronMesh.obj
 0001:0019cc20       createTetrahedronMesh      000000018019dc20 f   GuCookingTetrahedronMesh.obj
 0001:0019e910       ?computeVolumeIntegrals@physx@@YA_NAEBVPxSimpleTriangleMesh@1@MAEAUPxIntegrals@1@@Z 000000018019f910 f   GuCookingVolumeIntegration.obj
 0001:0019e950       ?computeVolumeIntegralsEberly@physx@@YA_NAEBVPxConvexMeshDesc@1@MAEAUPxIntegrals@1@AEBV?$PxVec3T@M@1@_N@Z 000000018019f950 f   GuCookingVolumeIntegration.obj
 0001:0019efb0       ??0QuickHull@local@@QEAA@AEBUPxCookingParams@physx@@AEBVPxConvexMeshDesc@3@@Z 000000018019ffb0 f   GuCookingQuickHullConvexHullLib.obj
 0001:0019f060       ??0QuickHullConvexHullLib@physx@@QEAA@AEBVPxConvexMeshDesc@1@AEBUPxCookingParams@1@@Z 00000001801a0060 f   GuCookingQuickHullConvexHullLib.obj
 0001:0019f140       ??1?$MemBlock@UQuickHullFace@local@@$00@local@@QEAA@XZ 00000001801a0140 f i GuCookingQuickHullConvexHullLib.obj
 0001:0019f140       ??1?$MemBlock@UQuickHullHalfEdge@local@@$0A@@local@@QEAA@XZ 00000001801a0140 f i GuCookingQuickHullConvexHullLib.obj
 0001:0019f200       ??1QuickHull@local@@QEAA@XZ 00000001801a0200 f   GuCookingQuickHullConvexHullLib.obj
 0001:0019f360       ??_GConvexHull@physx@@QEAAPEAXI@Z 00000001801a0360 f i GuCookingQuickHullConvexHullLib.obj
 0001:0019f450       ??_EConvexHullLib@physx@@UEAAPEAXI@Z 00000001801a0450 f i GuCookingQuickHullConvexHullLib.obj
 0001:0019f450       ??_GConvexHullLib@physx@@UEAAPEAXI@Z 00000001801a0450 f i GuCookingQuickHullConvexHullLib.obj
 0001:0019f490       ??_EQuickHullConvexHullLib@physx@@UEAAPEAXI@Z 00000001801a0490 f i GuCookingQuickHullConvexHullLib.obj
 0001:0019f490       ??_GQuickHullConvexHullLib@physx@@UEAAPEAXI@Z 00000001801a0490 f i GuCookingQuickHullConvexHullLib.obj
 0001:0019f5b0       ?addPointToHull@QuickHull@local@@IEAA_NPEBUQuickHullVertex@2@AEAUQuickHullFace@2@AEA_N@Z 00000001801a05b0 f   GuCookingQuickHullConvexHullLib.obj
 0001:0019f880       ?addSimplex@QuickHull@local@@IEAA_NPEAUQuickHullVertex@2@_N@Z 00000001801a0880 f   GuCookingQuickHullConvexHullLib.obj
 0001:0019fd90       ?buildHull@QuickHull@local@@QEAA?AW4Enum@QuickHullResult@2@XZ 00000001801a0d90 f   GuCookingQuickHullConvexHullLib.obj
 0001:0019ffe0       ?calculateHorizon@QuickHull@local@@IEAAXAEBV?$PxVec3T@M@physx@@PEAUQuickHullHalfEdge@2@AEAUQuickHullFace@2@AEAV?$PxArray@PEAUQuickHullHalfEdge@local@@V?$PxReflectionAllocator@PEAUQuickHullHalfEdge@local@@@physx@@@4@AEAV?$PxArray@PEAUQuickHullFace@local@@V?$PxReflectionAllocator@PEAUQuickHullFace@local@@@physx@@@4@@Z 00000001801a0fe0 f   GuCookingQuickHullConvexHullLib.obj
 0001:001a0190       ?canMergeFaces@QuickHull@local@@IEAA_NAEBUQuickHullHalfEdge@2@@Z 00000001801a1190 f   GuCookingQuickHullConvexHullLib.obj
 0001:001a09d0       ?cleanupForSimplex@QuickHullConvexHullLib@physx@@IEAA_NPEAV?$PxVec3T@M@2@IPEAUQuickHullVertex@local@@1AEAM2@Z 00000001801a19d0 f   GuCookingQuickHullConvexHullLib.obj
 0001:001a1620       ?computeMinMaxVerts@QuickHull@local@@IEAAXXZ 00000001801a2620 f   GuCookingQuickHullConvexHullLib.obj
 0001:001a19f0       ?connectHalfEdges@QuickHullFace@local@@AEAAPEAU12@PEAUQuickHullHalfEdge@2@0@Z 00000001801a29f0 f   GuCookingQuickHullConvexHullLib.obj
 0001:001a1d60       ?copy@?$PxArray@UExpandPoint@local@@V?$PxReflectionAllocator@UExpandPoint@local@@@physx@@@physx@@KAXPEAUExpandPoint@local@@0PEBU34@@Z 00000001801a2d60 f i GuCookingQuickHullConvexHullLib.obj
 0001:001a1e10       ?copy@?$PxArray@VPxPlane@physx@@V?$PxReflectionAllocator@VPxPlane@physx@@@2@@physx@@KAXPEAVPxPlane@2@0PEBV32@@Z 00000001801a2e10 f i GuCookingQuickHullConvexHullLib.obj
 0001:001a1f10       ?createConvexHull@QuickHullConvexHullLib@physx@@UEAA?AW4Enum@PxConvexMeshCookingResult@2@XZ 00000001801a2f10 f   GuCookingQuickHullConvexHullLib.obj
 0001:001a2320       ?createEdgeList@QuickHullConvexHullLib@physx@@UEAA_NIPEBEPEAPEAEPEAPEAG2@Z 00000001801a3320 f   GuCookingQuickHullConvexHullLib.obj
 0001:001a2540       ?createTriangle@QuickHull@local@@IEAAPEAUQuickHullFace@2@AEBUQuickHullVertex@2@00@Z 00000001801a3540 f   GuCookingQuickHullConvexHullLib.obj
 0001:001a2910       ?doAdjacentMerge@QuickHull@local@@IEAA_NAEAUQuickHullFace@2@_NAEA_N@Z 00000001801a3910 f   GuCookingQuickHullConvexHullLib.obj
 0001:001a2c60       ?expandHull@QuickHullConvexHullLib@physx@@IEAA?AW4Enum@PxConvexMeshCookingResult@2@XZ 00000001801a3c60 f   GuCookingQuickHullConvexHullLib.obj
 0001:001a35a0       ?expandHullOBB@QuickHullConvexHullLib@physx@@IEAA?AW4Enum@PxConvexMeshCookingResult@2@XZ 00000001801a45a0 f   GuCookingQuickHullConvexHullLib.obj
 0001:001a39e0       ?fillConvexMeshDesc@QuickHullConvexHullLib@physx@@UEAAXAEAVPxConvexMeshDesc@2@@Z 00000001801a49e0 f   GuCookingQuickHullConvexHullLib.obj
 0001:001a3a30       ?fillConvexMeshDescFromCroppedHull@QuickHullConvexHullLib@physx@@IEAAXAEAVPxConvexMeshDesc@2@@Z 00000001801a4a30 f   GuCookingQuickHullConvexHullLib.obj
 0001:001a3c20       ?fillConvexMeshDescFromQuickHull@QuickHullConvexHullLib@physx@@IEAAXAEAVPxConvexMeshDesc@2@@Z 00000001801a4c20 f   GuCookingQuickHullConvexHullLib.obj
 0001:001a3fa0       ?findSimplex@QuickHull@local@@IEAA_NXZ 00000001801a4fa0 f   GuCookingQuickHullConvexHullLib.obj
 0001:001a4c40       ?getFreeItem@?$MemBlock@UQuickHullFace@local@@$00@local@@QEAAPEAUQuickHullFace@2@XZ 00000001801a5c40 f i GuCookingQuickHullConvexHullLib.obj
 0001:001a4d70       ?getFreeItem@?$MemBlock@UQuickHullHalfEdge@local@@$0A@@local@@QEAAPEAUQuickHullHalfEdge@2@XZ 00000001801a5d70 f i GuCookingQuickHullConvexHullLib.obj
 0001:001a4e40       ?growAndPushBack@?$PxArray@PEAUQuickHullFace@local@@V?$PxReflectionAllocator@PEAUQuickHullFace@local@@@physx@@@physx@@IEAAAEAPEAUQuickHullFace@local@@AEBQEAU34@@Z 00000001801a5e40 f i GuCookingQuickHullConvexHullLib.obj
 0001:001a4f60       ?growAndPushBack@?$PxArray@PEAUQuickHullHalfEdge@local@@V?$PxReflectionAllocator@PEAUQuickHullHalfEdge@local@@@physx@@@physx@@IEAAAEAPEAUQuickHullHalfEdge@local@@AEBQEAU34@@Z 00000001801a5f60 f i GuCookingQuickHullConvexHullLib.obj
 0001:001a5080       ?growAndPushBack@?$PxArray@PEAUQuickHullVertex@local@@V?$PxReflectionAllocator@PEAUQuickHullVertex@local@@@physx@@@physx@@IEAAAEAPEAUQuickHullVertex@local@@AEBQEAU34@@Z 00000001801a6080 f i GuCookingQuickHullConvexHullLib.obj
 0001:001a51a0       ?growAndPushBack@?$PxArray@UExpandPoint@local@@V?$PxReflectionAllocator@UExpandPoint@local@@@physx@@@physx@@IEAAAEAUExpandPoint@local@@AEBU34@@Z 00000001801a61a0 f i GuCookingQuickHullConvexHullLib.obj
 0001:001a5310       ?growAndPushBack@?$PxArray@VPxPlane@physx@@V?$PxReflectionAllocator@VPxPlane@physx@@@2@@physx@@IEAAAEAVPxPlane@2@AEBV32@@Z 00000001801a6310 f i GuCookingQuickHullConvexHullLib.obj
 0001:001a5430       ?init@?$MemBlock@UQuickHullFace@local@@$00@local@@QEAAXI@Z 00000001801a6430 f i GuCookingQuickHullConvexHullLib.obj
 0001:001a5530       ?init@?$MemBlock@UQuickHullHalfEdge@local@@$0A@@local@@QEAAXI@Z 00000001801a6530 f i GuCookingQuickHullConvexHullLib.obj
 0001:001a55d0       ?mergeAdjacentFace@QuickHullFace@local@@QEAA_NPEAUQuickHullHalfEdge@2@AEAV?$PxArray@PEAUQuickHullFace@local@@V?$PxReflectionAllocator@PEAUQuickHullFace@local@@@physx@@@physx@@@Z 00000001801a65d0 f   GuCookingQuickHullConvexHullLib.obj
 0001:001a5a30       ?nextPointToAdd@QuickHull@local@@IEAAPEAUQuickHullVertex@2@AEAPEAUQuickHullFace@2@@Z 00000001801a6a30 f   GuCookingQuickHullConvexHullLib.obj
 0001:001a5bb0       ?parseInputVertices@QuickHull@local@@QEAAXPEBV?$PxVec3T@M@physx@@I@Z 00000001801a6bb0 f   GuCookingQuickHullConvexHullLib.obj
 0001:001a5d30       ?postMergeHull@QuickHull@local@@IEAAXXZ 00000001801a6d30 f   GuCookingQuickHullConvexHullLib.obj
 0001:001a5f90       ?preallocate@QuickHull@local@@QEAAXI@Z 00000001801a6f90 f   GuCookingQuickHullConvexHullLib.obj
 0001:001a60d0       ?recreate@?$PxArray@PEAUQuickHullFace@local@@V?$PxReflectionAllocator@PEAUQuickHullFace@local@@@physx@@@physx@@IEAAXI@Z 00000001801a70d0 f i GuCookingQuickHullConvexHullLib.obj
 0001:001a61c0       ?recreate@?$PxArray@PEAUQuickHullHalfEdge@local@@V?$PxReflectionAllocator@PEAUQuickHullHalfEdge@local@@@physx@@@physx@@IEAAXI@Z 00000001801a71c0 f i GuCookingQuickHullConvexHullLib.obj
 0001:001a62b0       ?recreate@?$PxArray@PEAUQuickHullVertex@local@@V?$PxReflectionAllocator@PEAUQuickHullVertex@local@@@physx@@@physx@@IEAAXI@Z 00000001801a72b0 f i GuCookingQuickHullConvexHullLib.obj
 0001:001a63a0       ?recreate@?$PxArray@UExpandPoint@local@@V?$PxReflectionAllocator@UExpandPoint@local@@@physx@@@physx@@IEAAXI@Z 00000001801a73a0 f i GuCookingQuickHullConvexHullLib.obj
 0001:001a6480       ?recreate@?$PxArray@VPxPlane@physx@@V?$PxReflectionAllocator@VPxPlane@physx@@@2@@physx@@IEAAXI@Z 00000001801a7480 f i GuCookingQuickHullConvexHullLib.obj
 0001:001a6560       ?resolveUnclaimedPoints@QuickHull@local@@IEAAXAEBV?$PxArray@PEAUQuickHullFace@local@@V?$PxReflectionAllocator@PEAUQuickHullFace@local@@@physx@@@physx@@@Z 00000001801a7560 f   GuCookingQuickHullConvexHullLib.obj
 0001:001a67e0       ??$copy@V?$PxReflectionAllocator@VPair@@@physx@@@?$PxArray@VPair@@V?$PxReflectionAllocator@VPair@@@physx@@@physx@@IEAAXAEBV01@@Z 00000001801a77e0 f i GuCookingConvexPolygonsBuilder.obj
 0001:001a6860       ??0ConvexPolygonsBuilder@physx@@QEAA@PEAUConvexHullData@Gu@1@_N@Z 00000001801a7860 f   GuCookingConvexPolygonsBuilder.obj
 0001:001a6880       ??1ConvexPolygonsBuilder@physx@@QEAA@XZ 00000001801a7880 f   GuCookingConvexPolygonsBuilder.obj
 0001:001a70d0       ?allocate@?$PxArray@VPair@@V?$PxReflectionAllocator@VPair@@@physx@@@physx@@IEAAPEAVPair@@IPEAI@Z 00000001801a80d0 f i GuCookingConvexPolygonsBuilder.obj
 0001:001a7bb0       ?computeHullPolygons@ConvexPolygonsBuilder@physx@@QEAA_NAEBIPEBV?$PxVec3T@M@2@0PEBI@Z 00000001801a8bb0 f   GuCookingConvexPolygonsBuilder.obj
 0001:001a8e60       ?createPolygonData@ConvexPolygonsBuilder@physx@@AEAA_NXZ 00000001801a9e60 f   GuCookingConvexPolygonsBuilder.obj
 0001:001a98c0       ?createTrianglesFromPolygons@ConvexPolygonsBuilder@physx@@AEAA_NXZ 00000001801aa8c0 f   GuCookingConvexPolygonsBuilder.obj
 0001:001aaf40       ?growAndPushBack@?$PxArray@VPair@@V?$PxReflectionAllocator@VPair@@@physx@@@physx@@IEAAAEAVPair@@AEBV3@@Z 00000001801abf40 f i GuCookingConvexPolygonsBuilder.obj
 0001:001ab120       ??0ConvexMeshBuilder@physx@@QEAA@_N@Z 00000001801ac120 f   GuCookingConvexMeshBuilder.obj
 0001:001ab190       ??1ConvexMeshBuilder@physx@@QEAA@XZ 00000001801ac190 f   GuCookingConvexMeshBuilder.obj
 0001:001ab660       ?build@ConvexMeshBuilder@physx@@QEAA_NAEBVPxConvexMeshDesc@2@I_NPEAVConvexHullLib@2@@Z 00000001801ac660 f   GuCookingConvexMeshBuilder.obj
 0001:001ab9e0       ?checkExtentRadiusRatio@ConvexMeshBuilder@physx@@QEAA_NXZ 00000001801ac9e0 f   GuCookingConvexMeshBuilder.obj
 0001:001aba10       ?computeHullPolygons@ConvexMeshBuilder@physx@@QEAA_NAEBIPEBV?$PxVec3T@M@2@0PEBIAEAVPxAllocatorCallback@2@AEAIAEAPEAV32@4AEAPEAI4AEAPEAUPxHullPolygon@2@@Z 00000001801aca10 f   GuCookingConvexMeshBuilder.obj
 0001:001abc20       ?computeMassInfo@ConvexMeshBuilder@physx@@QEAAX_N@Z 00000001801acc20 f   GuCookingConvexMeshBuilder.obj
 0001:001abfb0       ?computeSDF@ConvexMeshBuilder@physx@@QEAAXAEBVPxConvexMeshDesc@2@@Z 00000001801acfb0 f   GuCookingConvexMeshBuilder.obj
 0001:001ac470       ?copy@ConvexMeshBuilder@physx@@QEAA_NAEAUConvexHullInitData@Gu@2@@Z 00000001801ad470 f   GuCookingConvexMeshBuilder.obj
 0001:001ac5d0       ?loadConvexHull@ConvexMeshBuilder@physx@@QEAA_NAEBVPxConvexMeshDesc@2@PEAVConvexHullLib@2@@Z 00000001801ad5d0 f   GuCookingConvexMeshBuilder.obj
 0001:001ac820       ?save@ConvexMeshBuilder@physx@@QEBA_NAEAVPxOutputStream@2@_N@Z 00000001801ad820 f   GuCookingConvexMeshBuilder.obj
 0001:001acc40       ??0ConvexHull@physx@@QEAA@AEBV?$PxVec3T@M@1@AEBV?$PxTransformT@M@1@AEBV?$PxArray@VPxPlane@physx@@V?$PxReflectionAllocator@VPxPlane@physx@@@2@@1@@Z 00000001801adc40 f   GuCookingConvexHullUtils.obj
 0001:001add60       ?assertIntact@ConvexHull@physx@@QEBA_NM@Z 00000001801aed60 f   GuCookingConvexHullUtils.obj
 0001:001ae080       ?computeOBBFromConvex@physx@@YA_NAEBVPxConvexMeshDesc@1@AEAV?$PxVec3T@M@1@AEAV?$PxTransformT@M@1@@Z 00000001801af080 f   GuCookingConvexHullUtils.obj
 0001:001ae6e0       ?computeOBBSIMD@local@@YAXIPEBT__m128@@AEAT2@AEBT2@1@Z 00000001801af6e0 f   GuCookingConvexHullUtils.obj
 0001:001aea90       ?convexHullCrop@physx@@YAPEAVConvexHull@1@AEBV21@AEBVPxPlane@1@M@Z 00000001801afa90 f   GuCookingConvexHullUtils.obj
 0001:001af890       ?findCandidatePlane@ConvexHull@physx@@QEBAHMM@Z 00000001801b0890 f   GuCookingConvexHullUtils.obj
 0001:001afce0       ?growAndPushBack@?$PxArray@VHalfEdge@ConvexHull@physx@@V?$PxReflectionAllocator@VHalfEdge@ConvexHull@physx@@@3@@physx@@IEAAAEAVHalfEdge@ConvexHull@2@AEBV342@@Z 00000001801b0ce0 f i GuCookingConvexHullUtils.obj
 0001:001afe00       ?maxNumVertsPerFace@ConvexHull@physx@@QEBAIXZ 00000001801b0e00 f   GuCookingConvexHullUtils.obj
 0001:001afe70       ?recreate@?$PxArray@VHalfEdge@ConvexHull@physx@@V?$PxReflectionAllocator@VHalfEdge@ConvexHull@physx@@@3@@physx@@IEAAXI@Z 00000001801b0e70 f i GuCookingConvexHullUtils.obj
 0001:001aff60       ?resize@?$PxArray@VHalfEdge@ConvexHull@physx@@V?$PxReflectionAllocator@VHalfEdge@ConvexHull@physx@@@3@@physx@@QEAAXIAEBVHalfEdge@ConvexHull@2@@Z 00000001801b0f60 f i GuCookingConvexHullUtils.obj
 0001:001b0020       ?resize@?$PxArray@VPxPlane@physx@@V?$PxReflectionAllocator@VPxPlane@physx@@@2@@physx@@QEAAXIAEBVPxPlane@2@@Z 00000001801b1020 f i GuCookingConvexHullUtils.obj
 0001:001b0140       ??1ConvexHullLib@physx@@UEAA@XZ 00000001801b1140 f   GuCookingConvexHullLib.obj
 0001:001b0730       ?cleanupVertices@ConvexHullLib@physx@@IEAA_NIPEBV?$PxVec3T@M@2@IAEAIPEAV32@@Z 00000001801b1730 f   GuCookingConvexHullLib.obj
 0001:001b0870       ?shiftAndcleanupVertices@ConvexHullLib@physx@@IEAA_NIPEBV?$PxVec3T@M@2@IAEAIPEAV32@@Z 00000001801b1870 f   GuCookingConvexHullLib.obj
 0001:001b0e50       ?shiftConvexMeshDesc@ConvexHullLib@physx@@IEAAXAEAVPxConvexMeshDesc@2@@Z 00000001801b1e50 f   GuCookingConvexHullLib.obj
 0001:001b0f10       ?swapLargestFace@ConvexHullLib@physx@@IEAAXAEAVPxConvexMeshDesc@2@@Z 00000001801b1f10 f   GuCookingConvexHullLib.obj
 0001:001b1140       ??0ConvexHullBuilder@physx@@QEAA@PEAUConvexHullData@Gu@1@_N@Z 00000001801b2140 f   GuCookingConvexHullBuilder.obj
 0001:001b1170       ??1ConvexHullBuilder@physx@@QEAA@XZ 00000001801b2170 f   GuCookingConvexHullBuilder.obj
 0001:001b1280       ?calculateVertexMapTable@ConvexHullBuilder@physx@@QEAA_NI_N@Z 00000001801b2280 f   GuCookingConvexHullBuilder.obj
 0001:001b1440       ?checkHullPolygons@ConvexHullBuilder@physx@@QEBA_NXZ 00000001801b2440 f   GuCookingConvexHullBuilder.obj
 0001:001b1a00       ?copy@ConvexHullBuilder@physx@@QEAA_NAEAUConvexHullData@Gu@2@AEAI@Z 00000001801b2a00 f   GuCookingConvexHullBuilder.obj
 0001:001b1c70       ?createEdgeList@ConvexHullBuilder@physx@@QEAA_N_NI@Z 00000001801b2c70 f   GuCookingConvexHullBuilder.obj
 0001:001b23b0       ?init@ConvexHullBuilder@physx@@QEAA_NIPEBV?$PxVec3T@M@2@PEBIIIPEBUPxHullPolygon@2@_NPEAVConvexHullLib@2@@Z 00000001801b33b0 f   GuCookingConvexHullBuilder.obj
 0001:001b2cf0       ?save@ConvexHullBuilder@physx@@QEBA_NAEAVPxOutputStream@2@_N@Z 00000001801b3cf0 f   GuCookingConvexHullBuilder.obj
 0001:001b3010       ??0BigConvexDataBuilder@physx@@QEAA@PEBUConvexHullData@Gu@1@PEAVBigConvexData@1@PEBV?$PxVec3T@M@1@@Z 00000001801b4010 f   GuCookingBigConvexDataBuilder.obj
 0001:001b3020       ?computeValencies@BigConvexDataBuilder@physx@@QEAA_NAEBVConvexHullBuilder@2@@Z 00000001801b4020 f   GuCookingBigConvexDataBuilder.obj
 0001:001b3410       ?precompute@BigConvexDataBuilder@physx@@QEAA_NI@Z 00000001801b4410 f   GuCookingBigConvexDataBuilder.obj
 0001:001b4000       ?save@BigConvexDataBuilder@physx@@QEBA_NAEAVPxOutputStream@2@_N@Z 00000001801b5000 f   GuCookingBigConvexDataBuilder.obj
 0001:001b41ee       __imp_load_PxGetFoundation 00000001801b51ee f   PhysXFoundation_64:PhysXFoundation_64.dll
 0001:001b41fa       __tailMerge_physxfoundation_64_dll 00000001801b51fa     PhysXFoundation_64:PhysXFoundation_64.dll
 0001:001b4273       __imp_load_PxGetBroadcastAllocator 00000001801b5273 f   PhysXFoundation_64:PhysXFoundation_64.dll
 0001:001b427f       __imp_load_?PxAtomicIncrement@physx@@YAHPECH@Z 00000001801b527f f   PhysXFoundation_64:PhysXFoundation_64.dll
 0001:001b428b       __imp_load_??0PxMutexImpl@physx@@QEAA@XZ 00000001801b528b f   PhysXFoundation_64:PhysXFoundation_64.dll
 0001:001b4297       __imp_load_??1PxMutexImpl@physx@@QEAA@XZ 00000001801b5297 f   PhysXFoundation_64:PhysXFoundation_64.dll
 0001:001b42a3       __imp_load_?lock@PxMutexImpl@physx@@QEAAXXZ 00000001801b52a3 f   PhysXFoundation_64:PhysXFoundation_64.dll
 0001:001b42af       __imp_load_?unlock@PxMutexImpl@physx@@QEAAXXZ 00000001801b52af f   PhysXFoundation_64:PhysXFoundation_64.dll
 0001:001b42bb       __imp_load_?getSize@PxMutexImpl@physx@@SAIXZ 00000001801b52bb f   PhysXFoundation_64:PhysXFoundation_64.dll
 0001:001b42c7       __imp_load_?PxTransformFromSegment@physx@@YA?AV?$PxTransformT@M@1@AEBV?$PxVec3T@M@1@0PEAM@Z 00000001801b52c7 f   PhysXFoundation_64:PhysXFoundation_64.dll
 0001:001b42d3       __imp_load_?PxAtomicAdd@physx@@YAHPECHH@Z 00000001801b52d3 f   PhysXFoundation_64:PhysXFoundation_64.dll
 0001:001b42df       __imp_load_?getDefaultStackSize@PxThreadImpl@physx@@SAIXZ 00000001801b52df f   PhysXFoundation_64:PhysXFoundation_64.dll
 0001:001b42eb       __imp_load_??0PxThreadImpl@physx@@QEAA@P6APEAXPEAX@Z0PEBD@Z 00000001801b52eb f   PhysXFoundation_64:PhysXFoundation_64.dll
 0001:001b42f7       __imp_load_??1PxThreadImpl@physx@@QEAA@XZ 00000001801b52f7 f   PhysXFoundation_64:PhysXFoundation_64.dll
 0001:001b4303       __imp_load_?start@PxThreadImpl@physx@@QEAAXIPEAVPxRunnable@2@@Z 00000001801b5303 f   PhysXFoundation_64:PhysXFoundation_64.dll
 0001:001b430f       __imp_load_?waitForQuit@PxThreadImpl@physx@@QEAA_NXZ 00000001801b530f f   PhysXFoundation_64:PhysXFoundation_64.dll
 0001:001b431b       __imp_load_?getSize@PxThreadImpl@physx@@SAIXZ 00000001801b531b f   PhysXFoundation_64:PhysXFoundation_64.dll
 0001:001b4327       __imp_load_?allocate@PxTempAllocator@physx@@QEAAPEAX_KPEBDH@Z 00000001801b5327 f   PhysXFoundation_64:PhysXFoundation_64.dll
 0001:001b4333       __imp_load_?deallocate@PxTempAllocator@physx@@QEAAXPEAX@Z 00000001801b5333 f   PhysXFoundation_64:PhysXFoundation_64.dll
 0001:001b433f       __imp_load_?PxOptimizeBoundingBox@physx@@YA?AV?$PxVec3T@M@1@AEAV?$PxMat33T@M@1@@Z 00000001801b533f f   PhysXFoundation_64:PhysXFoundation_64.dll
 0001:001b434b       __imp_load_?Pxstrcmp@physx@@YAHPEBD0@Z 00000001801b534b f   PhysXFoundation_64:PhysXFoundation_64.dll
 0001:001b4357       __imp_load_?PxAtomicDecrement@physx@@YAHPECH@Z 00000001801b5357 f   PhysXFoundation_64:PhysXFoundation_64.dll
 0001:001b4363       __imp_load_??0PxFPUGuard@physx@@QEAA@XZ 00000001801b5363 f   PhysXFoundation_64:PhysXFoundation_64.dll
 0001:001b436f       __imp_load_??1PxFPUGuard@physx@@QEAA@XZ 00000001801b536f f   PhysXFoundation_64:PhysXFoundation_64.dll
 0001:001b437b       __imp_load_?PxDiagonalize@physx@@YA?AV?$PxVec3T@M@1@AEBV?$PxMat33T@M@1@AEAV?$PxQuatT@M@1@@Z 00000001801b537b f   PhysXFoundation_64:PhysXFoundation_64.dll
 0001:001b4388       ?DloadAcquireSectionWriteAccess@@YAXXZ 00000001801b5388 f i Delayimp:delayhlp.obj
 0001:001b4434       ?DloadGetSRWLockFunctionPointers@@YAEXZ 00000001801b5434 f i Delayimp:delayhlp.obj
 0001:001b44d4       ?DloadMakePermanentImageCommit@@YAXPEAX_K@Z 00000001801b54d4 f i Delayimp:delayhlp.obj
 0001:001b456c       ?DloadObtainSection@@YAPEAXPEAK0@Z 00000001801b556c f i Delayimp:delayhlp.obj
 0001:001b4608       ?DloadProtectSection@@YAXKPEAK@Z 00000001801b5608 f i Delayimp:delayhlp.obj
 0001:001b4698       ?DloadReleaseSectionWriteAccess@@YAXXZ 00000001801b5698 f i Delayimp:delayhlp.obj
 0001:001b472c       __delayLoadHelper2         00000001801b572c f   Delayimp:delayhlp.obj
 0001:001b4a04       ??3@YAXPEAX_K@Z            00000001801b5a04 f   LIBCMT:delete_scalar_size.obj
 0001:001b4a04       ??_V@YAXPEAX@Z             00000001801b5a04 f   LIBCMT:delete_array.obj
 0001:001b4a0c       ??_Etype_info@@UEAAPEAXI@Z 00000001801b5a0c f i LIBCMT:std_type_info_static.obj
 0001:001b4a0c       ??_Gtype_info@@UEAAPEAXI@Z 00000001801b5a0c f i LIBCMT:std_type_info_static.obj
 0001:001b4a38       ?__scrt_initialize_type_info@@YAXXZ 00000001801b5a38 f   LIBCMT:tncleanup.obj
 0001:001b4a48       ?__scrt_uninitialize_type_info@@YAXXZ 00000001801b5a48 f   LIBCMT:tncleanup.obj
 0001:001b4a70       __chkstk                   00000001801b5a70 f   LIBCMT:chkstk.obj
 0001:001b4a70       _alloca_probe              00000001801b5a70 f   LIBCMT:chkstk.obj
 0001:001b4ac0       __vdecl_sinf4              00000001801b5ac0 f   LIBCMT:svml_ssinf4_dispatch.obj
 0001:001b4ae0       __libm_sse2_sincosf_       00000001801b5ae0 f   LIBCMT:svml_ssinf4_dispatch.obj
 0001:001b4b23       __libm_sse2_sincosf4_      00000001801b5b23 f   LIBCMT:svml_ssinf4_dispatch.obj
 0001:001b4b30       ??3@YAXPEAX@Z              00000001801b5b30 f   LIBCMT:delete_scalar.obj
 0001:001b4b38       __scrt_acquire_startup_lock 00000001801b5b38 f   LIBCMT:utility.obj
 0001:001b4b74       __scrt_dllmain_after_initialize_c 00000001801b5b74 f   LIBCMT:utility.obj
 0001:001b4ba8       __scrt_dllmain_before_initialize_c 00000001801b5ba8 f   LIBCMT:utility.obj
 0001:001b4bc0       __scrt_dllmain_crt_thread_attach 00000001801b5bc0 f   LIBCMT:utility.obj
 0001:001b4be8       __scrt_dllmain_crt_thread_detach 00000001801b5be8 f   LIBCMT:utility.obj
 0001:001b4c00       __scrt_dllmain_exception_filter 00000001801b5c00 f   LIBCMT:utility.obj
 0001:001b4c60       __scrt_dllmain_uninitialize_c 00000001801b5c60 f   LIBCMT:utility.obj
 0001:001b4c90       __scrt_dllmain_uninitialize_critical 00000001801b5c90 f   LIBCMT:utility.obj
 0001:001b4ca4       __scrt_initialize_crt      00000001801b5ca4 f   LIBCMT:utility.obj
 0001:001b4cf0       __scrt_initialize_onexit_tables 00000001801b5cf0 f   LIBCMT:utility.obj
 0001:001b4d7c       __scrt_is_nonwritable_in_current_image 00000001801b5d7c f   LIBCMT:utility.obj
 0001:001b4e14       __scrt_release_startup_lock 00000001801b5e14 f   LIBCMT:utility.obj
 0001:001b4e38       __scrt_uninitialize_crt    00000001801b5e38 f   LIBCMT:utility.obj
 0001:001b4e64       _onexit                    00000001801b5e64 f   LIBCMT:utility.obj
 0001:001b4ea0       atexit                     00000001801b5ea0 f   LIBCMT:utility.obj
 0001:001b4eb8       __isa_available_init       00000001801b5eb8 f   LIBCMT:cpu_disp.obj
 0001:001b5384       _DllMainCRTStartup         00000001801b6384 f   LIBCMT:dll_dllmain.obj
 0001:001b53d0       __sse2_sinf4@@16           00000001801b63d0 f   LIBCMT:svml_ssinf4_sse2.obj
 0001:001b5d10       __sse4_sinf4@@16           00000001801b6d10 f   LIBCMT:svml_ssinf4_sse4.obj
 0001:001b6484       __scrt_is_ucrt_dll_in_use  00000001801b7484 f   LIBCMT:ucrt_detection.obj
 0001:001b6490       __crt_debugger_hook        00000001801b7490 f   LIBCMT:utility_desktop.obj
 0001:001b6498       __scrt_fastfail            00000001801b7498 f   LIBCMT:utility_desktop.obj
 0001:001b65e4       __security_init_cookie     00000001801b75e4 f   LIBCMT:gs_support.obj
 0001:001b6690       __local_stdio_scanf_options 00000001801b7690 f i LIBCMT:default_local_stdio_options.obj
 0001:001b6698       __scrt_initialize_default_local_stdio_options 00000001801b7698 f   LIBCMT:default_local_stdio_options.obj
 0001:001b66b4       __scrt_get_dyn_tls_init_callback 00000001801b76b4 f   LIBCMT:dyn_tls_init.obj
 0001:001b66bc       _RTC_Initialize            00000001801b76bc f   LIBCMT:initsect.obj
 0001:001b66f8       _RTC_Terminate             00000001801b76f8 f   LIBCMT:initsect.obj
 0001:001b6740       __common_ssin_cout_rare    00000001801b7740 f   LIBCMT:svml_s_sin_cout.obj
 0001:001b67c0       memcpy_repmovs             00000001801b77c0 f   libvcruntime:memcpy.obj
 0001:001b67e0       memcpy                     00000001801b77e0 f   libvcruntime:memcpy.obj
 0001:001b67e0       memmove                    00000001801b77e0 f   libvcruntime:memcpy.obj
 0001:001b6e58       _get_purecall_handler      00000001801b7e58 f   libvcruntime:purevirt.obj
 0001:001b6e64       _purecall                  00000001801b7e64 f   libvcruntime:purevirt.obj
 0001:001b6e88       __std_type_info_compare    00000001801b7e88 f   libvcruntime:std_type_info.obj
 0001:001b6eb0       __std_type_info_destroy_list 00000001801b7eb0 f   libvcruntime:std_type_info.obj
 0001:001b6edc       __std_type_info_name       00000001801b7edc f   libvcruntime:std_type_info.obj
 0001:001b7010       memset_repstos             00000001801b8010 f   libvcruntime:memset.obj
 0001:001b7030       memset                     00000001801b8030 f   libvcruntime:memset.obj
 0001:001b73b8       strstr                     00000001801b83b8 f   libvcruntime:strstr.obj
 0001:001b75b0       __vcrt_initialize          00000001801b85b0 f   libvcruntime:initialization.obj
 0001:001b75d8       __vcrt_thread_attach       00000001801b85d8 f   libvcruntime:initialization.obj
 0001:001b75ec       __vcrt_thread_detach       00000001801b85ec f   libvcruntime:initialization.obj
 0001:001b7600       __vcrt_uninitialize        00000001801b8600 f   libvcruntime:initialization.obj
 0001:001b761c       __vcrt_uninitialize_critical 00000001801b861c f   libvcruntime:initialization.obj
 0001:001b762c       __C_specific_handler       00000001801b862c f   libvcruntime:riscchandler.obj
 0001:001b7824       __DestructExceptionObject  00000001801b8824 f   libvcruntime:ehhelpers.obj
 0001:001b7894       ?_CallMemberFunction0@@YAXQEAX0@Z 00000001801b8894 f i libvcruntime:ehhelpers.obj
 0001:001b7898       _IsExceptionObjectToBeDestroyed 00000001801b8898 f   libvcruntime:ehhelpers.obj
 0001:001b78c8       __AdjustPointer            00000001801b88c8 f   libvcruntime:ehhelpers.obj
 0001:001b78ec       __FrameUnwindFilter        00000001801b88ec f   libvcruntime:ehhelpers.obj
 0001:001b7954       __std_terminate            00000001801b8954 f   libvcruntime:ehhelpers.obj
 0001:001b7960       ??$?0$00@DName@@QEAA@PEBDU?$StringLifeSelector@$00@@@Z 00000001801b8960 f i libvcruntime:undname.obj
 0001:001b79a0       ??$?0$01@DName@@QEAA@PEBDU?$StringLifeSelector@$01@@@Z 00000001801b89a0 f i libvcruntime:undname.obj
 0001:001b79a0       ??$?0$0A@@DName@@QEAA@PEBDU?$StringLifeSelector@$0A@@@@Z 00000001801b89a0 f i libvcruntime:undname.obj
 0001:001b79e0       ??$?0$01@pcharNode@@QEAA@PEBDHU?$StringLifeSelector@$01@@@Z 00000001801b89e0 f i libvcruntime:undname.obj
 0001:001b79e0       ??$?0$0A@@pcharNode@@QEAA@PEBDHU?$StringLifeSelector@$0A@@@@Z 00000001801b89e0 f i libvcruntime:undname.obj
 0001:001b7a54       ??$append@VDNameNode@@@DName@@AEAAXPEBVDNameNode@@@Z 00000001801b8a54 f i libvcruntime:undname.obj
 0001:001b7a54       ??$append@VDNameStatusNode@@@DName@@AEAAXPEBVDNameStatusNode@@@Z 00000001801b8a54 f i libvcruntime:undname.obj
 0001:001b7a54       ??$append@VcharNode@@@DName@@AEAAXPEBVcharNode@@@Z 00000001801b8a54 f i libvcruntime:undname.obj
 0001:001b7a54       ??$append@VpcharNode@@@DName@@AEAAXPEBVpcharNode@@@Z 00000001801b8a54 f i libvcruntime:undname.obj
 0001:001b7ab8       ??$doPchar@$00@DName@@AEAAXPEBDH@Z 00000001801b8ab8 f i libvcruntime:undname.obj
 0001:001b7b5c       ??$doPchar@$01@DName@@AEAAXPEBDH@Z 00000001801b8b5c f i libvcruntime:undname.obj
 0001:001b7b5c       ??$doPchar@$0A@@DName@@AEAAXPEBDH@Z 00000001801b8b5c f i libvcruntime:undname.obj
 0001:001b7bf4       ??0DName@@QEAA@AEAPEBDD@Z  00000001801b8bf4 f   libvcruntime:undname.obj
 0001:001b7ca4       ??0DName@@QEAA@AEBUStringLiteral@@@Z 00000001801b8ca4 f   libvcruntime:undname.obj
 0001:001b7cd0       ??0DName@@QEAA@PEAV0@@Z    00000001801b8cd0 f   libvcruntime:undname.obj
 0001:001b7d54       ??0DName@@QEAA@_J@Z        00000001801b8d54 f   libvcruntime:undname.obj
 0001:001b7dfc       ??0DName@@QEAA@_K@Z        00000001801b8dfc f   libvcruntime:undname.obj
 0001:001b7e8c       ??2@YAPEAX_KAEAV_HeapManager@@H@Z 00000001801b8e8c f   libvcruntime:undname.obj
 0001:001b7eb8       ??4DName@@QEAAAEAV0@W4DNameStatus@@@Z 00000001801b8eb8 f   libvcruntime:undname.obj
 0001:001b7ee8       ??AReplicator@@QEBA?AVDName@@H@Z 00000001801b8ee8 f   libvcruntime:undname.obj
 0001:001b7f28       ??HDName@@QEBA?AV0@AEBUStringLiteral@@@Z 00000001801b8f28 f   libvcruntime:undname.obj
 0001:001b7f54       ??HDName@@QEBA?AV0@AEBV0@@Z 00000001801b8f54 f   libvcruntime:undname.obj
 0001:001b7f80       ??HDName@@QEBA?AV0@D@Z     00000001801b8f80 f   libvcruntime:undname.obj
 0001:001b7fac       ??HDName@@QEBA?AV0@W4DNameStatus@@@Z 00000001801b8fac f   libvcruntime:undname.obj
 0001:001b7fd8       ??YDName@@QEAAAEAV0@AEBUStringLiteral@@@Z 00000001801b8fd8 f   libvcruntime:undname.obj
 0001:001b8058       ??YDName@@QEAAAEAV0@AEBV0@@Z 00000001801b9058 f   libvcruntime:undname.obj
 0001:001b80b0       ??YDName@@QEAAAEAV0@D@Z    00000001801b90b0 f   libvcruntime:undname.obj
 0001:001b811c       ??YDName@@QEAAAEAV0@W4DNameStatus@@@Z 00000001801b911c f   libvcruntime:undname.obj
 0001:001b8174       ??YReplicator@@QEAAAEAV0@AEBVDName@@@Z 00000001801b9174 f   libvcruntime:undname.obj
 0001:001b81cc       ?UScore@UnDecorator@@SA?AUStringLiteral@@W4Tokens@@@Z 00000001801b91cc f   libvcruntime:undname.obj
 0001:001b8218       ?composeDeclaration@UnDecorator@@CA?AVDName@@AEBV2@@Z 00000001801b9218 f i libvcruntime:undname.obj
 0001:001b910c       ?doPchar@DName@@AEAAXD@Z   00000001801ba10c f   libvcruntime:undname.obj
 0001:001b915c       ?getAddressOf@UnDecorator@@CA?AVDName@@XZ 00000001801ba15c f   libvcruntime:undname.obj
 0001:001b91ec       ?getArgumentList@UnDecorator@@CA?AVDName@@XZ 00000001801ba1ec f   libvcruntime:undname.obj
 0001:001b93a0       ?getArgumentTypes@UnDecorator@@CA?AVDName@@XZ 00000001801ba3a0 f   libvcruntime:undname.obj
 0001:001b94ec       ?getArrayAccess@UnDecorator@@CA?AVDName@@XZ 00000001801ba4ec f   libvcruntime:undname.obj
 0001:001b9588       ?getArrayObject@UnDecorator@@CA?AVDName@@XZ 00000001801ba588 f   libvcruntime:undname.obj
 0001:001b9644       ?getArrayType@UnDecorator@@CA?AVDName@@AEBV2@@Z 00000001801ba644 f i libvcruntime:undname.obj
 0001:001b988c       ?getBasedType@UnDecorator@@CA?AVDName@@XZ 00000001801ba88c f   libvcruntime:undname.obj
 0001:001b9984       ?getBasicDataType@UnDecorator@@CA?AVDName@@AEBV2@@Z 00000001801ba984 f   libvcruntime:undname.obj
 0001:001b9f88       ?getCallingConvention@UnDecorator@@CA?AVDName@@XZ 00000001801baf88 f   libvcruntime:undname.obj
 0001:001ba0c0       ?getDataIndirectType@UnDecorator@@CA?AVDName@@AEBV2@W4IndirectionKind@@0H@Z 00000001801bb0c0 f   libvcruntime:undname.obj
 0001:001ba9e4       ?getDataType@UnDecorator@@CA?AVDName@@PEAV2@@Z 00000001801bb9e4 f   libvcruntime:undname.obj
 0001:001baaf8       ?getDecoratedName@UnDecorator@@CA?AVDName@@XZ 00000001801bbaf8 f   libvcruntime:undname.obj
 0001:001bade0       ?getDimension@UnDecorator@@CA?AVDName@@_N@Z 00000001801bbde0 f   libvcruntime:undname.obj
 0001:001baf28       ?getDispatchTarget@UnDecorator@@CA?AVDName@@XZ 00000001801bbf28 f   libvcruntime:undname.obj
 0001:001baf88       ?getECSUDataType@UnDecorator@@CA?AVDName@@XZ 00000001801bbf88 f   libvcruntime:undname.obj
 0001:001bb184       ?getEnumType@UnDecorator@@CA?AVDName@@XZ 00000001801bc184 f i libvcruntime:undname.obj
 0001:001bb2b4       ?getExtendedDataIndirectType@UnDecorator@@CA?AVDName@@AEAW4IndirectionKind@@AEA_NH@Z 00000001801bc2b4 f   libvcruntime:undname.obj
 0001:001bb4b8       ?getExternalDataType@UnDecorator@@CA?AVDName@@AEBV2@@Z 00000001801bc4b8 f i libvcruntime:undname.obj
 0001:001bb578       ?getFloatingPoint@UnDecorator@@CA?AVDName@@H@Z 00000001801bc578 f   libvcruntime:undname.obj
 0001:001bb6e0       ?getFunctionIndirectType@UnDecorator@@CA?AVDName@@AEBV2@@Z 00000001801bc6e0 f   libvcruntime:undname.obj
 0001:001bbc14       ?getLastChar@DNameStatusNode@@UEBADXZ 00000001801bcc14 f i libvcruntime:undname.obj
 0001:001bbc20       ?getLastChar@charNode@@UEBADXZ 00000001801bcc20 f i libvcruntime:undname.obj
 0001:001bbc24       ?getLastChar@pDNameNode@@UEBADXZ 00000001801bcc24 f i libvcruntime:undname.obj
 0001:001bbc50       ?getLastChar@pairNode@@UEBADXZ 00000001801bcc50 f i libvcruntime:undname.obj
 0001:001bbc88       ?getLastChar@pcharNode@@UEBADXZ 00000001801bcc88 f i libvcruntime:undname.obj
 0001:001bbc9c       ?getLexicalFrame@UnDecorator@@CA?AVDName@@XZ 00000001801bcc9c f i libvcruntime:undname.obj
 0001:001bbd00       ?getMemberAccess@UnDecorator@@CA?AVDName@@XZ 00000001801bcd00 f   libvcruntime:undname.obj
 0001:001bbd94       ?getMemoryWithBuffer@_HeapManager@@QEAAPEAX_K@Z 00000001801bcd94 f   libvcruntime:undname.obj
 0001:001bbe24       ?getNoexcept@UnDecorator@@CA?AVDName@@XZ 00000001801bce24 f   libvcruntime:undname.obj
 0001:001bbe88       ?getNumberOfDimensions@UnDecorator@@CAHXZ 00000001801bce88 f   libvcruntime:undname.obj
 0001:001bbef0       ?getOperatorName@UnDecorator@@CA?AVDName@@_NPEA_N@Z 00000001801bcef0 f i libvcruntime:undname.obj
 0001:001bc8a0       ?getPointerToMember@UnDecorator@@CA?AVDName@@XZ 00000001801bd8a0 f   libvcruntime:undname.obj
 0001:001bc998       ?getPrimaryDataType@UnDecorator@@CA?AVDName@@AEBV2@@Z 00000001801bd998 f   libvcruntime:undname.obj
 0001:001bcc50       ?getPtrRefDataType@UnDecorator@@CA?AVDName@@AEBV2@H@Z 00000001801bdc50 f   libvcruntime:undname.obj
 0001:001bce1c       ?getPtrRefType@UnDecorator@@CA?AVDName@@AEBV2@0W4IndirectionKind@@@Z 00000001801bde1c f   libvcruntime:undname.obj
 0001:001bcff4       ?getRestrictionSpec@UnDecorator@@CA?AVDName@@XZ 00000001801bdff4 f   libvcruntime:undname.obj
 0001:001bd1d0       ?getReturnType@UnDecorator@@CA?AVDName@@PEAV2@@Z 00000001801be1d0 f   libvcruntime:undname.obj
 0001:001bd204       ?getScope@UnDecorator@@CA?AVDName@@XZ 00000001801be204 f   libvcruntime:undname.obj
 0001:001bd6c0       ?getScopedName@UnDecorator@@CA?AVDName@@XZ 00000001801be6c0 f   libvcruntime:undname.obj
 0001:001bd800       ?getSignedDimension@UnDecorator@@CA?AVDName@@XZ 00000001801be800 f   libvcruntime:undname.obj
 0001:001bd888       ?getString@DNameStatusNode@@UEBAPEADPEAD0@Z 00000001801be888 f i libvcruntime:undname.obj
 0001:001bd8d0       ?getString@charNode@@UEBAPEADPEAD0@Z 00000001801be8d0 f i libvcruntime:undname.obj
 0001:001bd8e4       ?getString@pDNameNode@@UEBAPEADPEAD0@Z 00000001801be8e4 f i libvcruntime:undname.obj
 0001:001bd914       ?getString@pairNode@@UEBAPEADPEAD0@Z 00000001801be914 f i libvcruntime:undname.obj
 0001:001bd960       ?getString@pcharNode@@UEBAPEADPEAD0@Z 00000001801be960 f i libvcruntime:undname.obj
 0001:001bd998       ?getStringEncoding@UnDecorator@@CA?AVDName@@W4PrefixKind@@H@Z 00000001801be998 f   libvcruntime:undname.obj
 0001:001bdaa8       ?getStringObject@UnDecorator@@CA?AVDName@@XZ 00000001801beaa8 f   libvcruntime:undname.obj
 0001:001bdb10       ?getSymbolName@UnDecorator@@CA?AVDName@@XZ 00000001801beb10 f i libvcruntime:undname.obj
 0001:001bdb5c       ?getTemplateArgumentList@UnDecorator@@CA?AVDName@@XZ 00000001801beb5c f   libvcruntime:undname.obj
 0001:001bdd78       ?getTemplateName@UnDecorator@@CA?AVDName@@_N@Z 00000001801bed78 f   libvcruntime:undname.obj
 0001:001be00c       ?getTemplateNonTypeArgument@UnDecorator@@CA?AVDName@@XZ 00000001801bf00c f   libvcruntime:undname.obj
 0001:001be55c       ?getTemplateTypeArgument@UnDecorator@@CA?AVDName@@XZ 00000001801bf55c f   libvcruntime:undname.obj
 0001:001be6c4       ?getThrowTypes@UnDecorator@@CA?AVDName@@XZ 00000001801bf6c4 f   libvcruntime:undname.obj
 0001:001be6e8       ?getTypeEncoding@UnDecorator@@CAHXZ 00000001801bf6e8 f i libvcruntime:undname.obj
 0001:001beaa4       ?getUndecoratedName@UnDecorator@@QEAAPEADPEADH@Z 00000001801bfaa4 f i libvcruntime:undname.obj
 0001:001bebf8       ?getUnionObject@UnDecorator@@CA?AVDName@@XZ 00000001801bfbf8 f   libvcruntime:undname.obj
 0001:001becd0       ?getVCallThunkType@UnDecorator@@CA?AVDName@@XZ 00000001801bfcd0 f i libvcruntime:undname.obj
 0001:001bed48       ?getValue@UnDecorator@@CA?AV?$optional@_K@std@@XZ 00000001801bfd48 f   libvcruntime:undname.obj
 0001:001bedbc       ?getValueObject@UnDecorator@@CA?AVDName@@XZ 00000001801bfdbc f   libvcruntime:undname.obj
 0001:001beefc       ?getVdispMapType@UnDecorator@@CA?AVDName@@AEBV2@@Z 00000001801bfefc f i libvcruntime:undname.obj
 0001:001bef78       ?getVfTableType@UnDecorator@@CA?AVDName@@AEBV2@@Z 00000001801bff78 f i libvcruntime:undname.obj
 0001:001bf184       ?getZName@UnDecorator@@CA?AVDName@@_N0@Z 00000001801c0184 f   libvcruntime:undname.obj
 0001:001bf458       ?length@pDNameNode@@UEBAHXZ 00000001801c0458 f i libvcruntime:undname.obj
 0001:001bf480       ?length@pairNode@@UEBAHXZ  00000001801c0480 f i libvcruntime:undname.obj
 0001:001bf4c8       ?parseDecoratedName@UnDecorator@@CA?AVDName@@XZ 00000001801c04c8 f   libvcruntime:undname.obj
 0001:001bf5e0       ?raw_length@pDNameNode@@UEBAHXZ 00000001801c05e0 f i libvcruntime:undname.obj
 0001:001bf5e4       ?raw_length@pairNode@@UEBAHXZ 00000001801c05e4 f i libvcruntime:undname.obj
 0001:001bf5e8       __unDName                  00000001801c05e8 f   libvcruntime:undname.obj
 0001:001bf610       __unDNameEx                00000001801c0610 f   libvcruntime:undname.obj
 0001:001bf744       snprintf                   00000001801c0744 f i libvcruntime:undname.obj
 0001:001bf79c       sprintf_s                  00000001801c079c f i libvcruntime:undname.obj
 0001:001bf7f0       __vcrt_freefls             00000001801c07f0 f   libvcruntime:per_thread_data.obj
 0001:001bf810       __vcrt_freeptd             00000001801c0810 f   libvcruntime:per_thread_data.obj
 0001:001bf860       __vcrt_getptd              00000001801c0860 f   libvcruntime:per_thread_data.obj
 0001:001bf87c       __vcrt_getptd_noexit       00000001801c087c f   libvcruntime:per_thread_data.obj
 0001:001bf93c       __vcrt_initialize_ptd      00000001801c093c f   libvcruntime:per_thread_data.obj
 0001:001bf984       __vcrt_uninitialize_ptd    00000001801c0984 f   libvcruntime:per_thread_data.obj
 0001:001bf9a8       __vcrt_initialize_locks    00000001801c09a8 f   libvcruntime:locks.obj
 0001:001bf9f0       __vcrt_lock                00000001801c09f0 f   libvcruntime:locks.obj
 0001:001bfa0c       __vcrt_uninitialize_locks  00000001801c0a0c f   libvcruntime:locks.obj
 0001:001bfa44       __vcrt_unlock              00000001801c0a44 f   libvcruntime:locks.obj
 0001:001bfa70       _NLG_Notify                00000001801c0a70 f   libvcruntime:notify.obj
 0001:001bfa90       __NLG_Dispatch2            00000001801c0a90 f   libvcruntime:notify.obj
 0001:001bfaa0       __NLG_Return2              00000001801c0aa0 f   libvcruntime:notify.obj
 0001:001bfaa4       __except_validate_context_record 00000001801c0aa4 f   libvcruntime:jbcxrval.obj
 0001:001bfadc       ??$_CallSETranslator@V__FrameHandler3@@@@YAHPEAUEHExceptionRecord@@PEA_KPEAU_CONTEXT@@PEAU_xDISPATCHER_CONTEXT@@PEBU_s_FuncInfo@@K1H@Z 00000001801c0adc f i libvcruntime:risctrnsctrl.obj
 0001:001bfb30       ??$_CallSETranslator@V__FrameHandler4@@@@YAHPEAUEHExceptionRecord@@PEA_KPEAU_CONTEXT@@PEAU_xDISPATCHER_CONTEXT@@PEAUFuncInfo4@FH4@@K1H@Z 00000001801c0b30 f i libvcruntime:risctrnsctrl.obj
 0001:001bfb84       ?CatchTryBlock@__FrameHandler3@@SAPEBU_s_TryBlockMapEntry@@PEBU_s_FuncInfo@@H@Z 00000001801c0b84 f   libvcruntime:risctrnsctrl.obj
 0001:001bfbe8       ?DecompFuncInfo@FH4@@YA_JPEAEAEAUFuncInfo4@1@_KH_N@Z 00000001801c0be8 f i libvcruntime:risctrnsctrl.obj
 0001:001bfd0c       ?ExecutionInCatch@__FrameHandler3@@SA_NPEAU_xDISPATCHER_CONTEXT@@PEBU_s_FuncInfo@@@Z 00000001801c0d0c f   libvcruntime:risctrnsctrl.obj
 0001:001bfd38       ?ExecutionInCatch@__FrameHandler4@@SA_NPEAU_xDISPATCHER_CONTEXT@@PEAUFuncInfo4@FH4@@@Z 00000001801c0d38 f   libvcruntime:risctrnsctrl.obj
 0001:001bfd40       ?FrameUnwindToEmptyState@__FrameHandler3@@SAXPEA_KPEAU_xDISPATCHER_CONTEXT@@PEBU_s_FuncInfo@@@Z 00000001801c0d40 f   libvcruntime:risctrnsctrl.obj
 0001:001bfda4       ?FrameUnwindToEmptyState@__FrameHandler4@@SAXPEA_KPEAU_xDISPATCHER_CONTEXT@@PEAUFuncInfo4@FH4@@@Z 00000001801c0da4 f   libvcruntime:risctrnsctrl.obj
 0001:001bfdd8       ?GetEstablisherFrame@__FrameHandler3@@SAPEA_KPEA_KPEAU_xDISPATCHER_CONTEXT@@PEBU_s_FuncInfo@@0@Z 00000001801c0dd8 f   libvcruntime:risctrnsctrl.obj
 0001:001bfea4       ?GetEstablisherFrame@__FrameHandler4@@SAPEA_KPEA_KPEAU_xDISPATCHER_CONTEXT@@PEAUFuncInfo4@FH4@@0@Z 00000001801c0ea4 f   libvcruntime:risctrnsctrl.obj
 0001:001bfec8       ?GetRangeOfTrysToCheck@__FrameHandler3@@SA?AU?$pair@Viterator@TryBlockMap@__FrameHandler3@@V123@@std@@AEAVTryBlockMap@1@HPEAU_xDISPATCHER_CONTEXT@@PEBU_s_FuncInfo@@H@Z 00000001801c0ec8 f   libvcruntime:risctrnsctrl.obj
 0001:001c0008       ?GetRangeOfTrysToCheck@__FrameHandler4@@SA?AU?$pair@Viterator@TryBlockMap4@FH4@@V123@@std@@AEAVTryBlockMap4@FH4@@HPEAU_xDISPATCHER_CONTEXT@@PEAUFuncInfo4@5@H@Z 00000001801c1008 f   libvcruntime:risctrnsctrl.obj
 0001:001c0174       ?UnwindNestedFrames@__FrameHandler3@@SAXPEA_KPEAUEHExceptionRecord@@PEAU_CONTEXT@@0PEAXPEBU_s_FuncInfo@@HHPEBU_s_HandlerType@@PEAU_xDISPATCHER_CONTEXT@@E@Z 00000001801c1174 f   libvcruntime:risctrnsctrl.obj
 0001:001c0278       ?UnwindNestedFrames@__FrameHandler4@@SAXPEA_KPEAUEHExceptionRecord@@PEAU_CONTEXT@@0PEAXPEAUFuncInfo4@FH4@@HHPEAUHandlerType4@5@PEAU_xDISPATCHER_CONTEXT@@E@Z 00000001801c1278 f   libvcruntime:risctrnsctrl.obj
 0001:001c0398       ?setBuffer@TryBlockMap4@FH4@@QEAAXViterator@12@@Z 00000001801c1398 f i libvcruntime:risctrnsctrl.obj
 0001:001c055c       _CreateFrameInfo           00000001801c155c f   libvcruntime:risctrnsctrl.obj
 0001:001c0598       _FindAndUnlinkFrame        00000001801c1598 f   libvcruntime:risctrnsctrl.obj
 0001:001c05ec       _GetImageBase              00000001801c15ec f   libvcruntime:risctrnsctrl.obj
 0001:001c0600       _GetThrowImageBase         00000001801c1600 f   libvcruntime:risctrnsctrl.obj
 0001:001c0614       _SetImageBase              00000001801c1614 f   libvcruntime:risctrnsctrl.obj
 0001:001c062c       _SetThrowImageBase         00000001801c162c f   libvcruntime:risctrnsctrl.obj
 0001:001c0644       __CxxFrameHandler3         00000001801c1644 f   libvcruntime:risctrnsctrl.obj
 0001:001c06cc       __CxxFrameHandler4         00000001801c16cc f   libvcruntime:risctrnsctrl.obj
 0001:001c08dc       __vcrt_FlsAlloc            00000001801c18dc f   libvcruntime:winapi_downlevel.obj
 0001:001c0924       __vcrt_FlsFree             00000001801c1924 f   libvcruntime:winapi_downlevel.obj
 0001:001c096c       __vcrt_FlsGetValue         00000001801c196c f   libvcruntime:winapi_downlevel.obj
 0001:001c09b4       __vcrt_FlsSetValue         00000001801c19b4 f   libvcruntime:winapi_downlevel.obj
 0001:001c0a08       __vcrt_InitializeCriticalSectionEx 00000001801c1a08 f   libvcruntime:winapi_downlevel.obj
 0001:001c0a6c       ?GetCurrentState@__FrameHandler3@@SAHPEA_KPEAU_xDISPATCHER_CONTEXT@@PEBU_s_FuncInfo@@@Z 00000001801c1a6c f   libvcruntime:ehstate.obj
 0001:001c0a94       ?GetUnwindTryBlock@__FrameHandler3@@SAHPEA_KPEAU_xDISPATCHER_CONTEXT@@PEBU_s_FuncInfo@@@Z 00000001801c1a94 f   libvcruntime:ehstate.obj
 0001:001c0ac0       ?SetState@__FrameHandler3@@SAXPEA_KPEBU_s_FuncInfo@@H@Z 00000001801c1ac0 f   libvcruntime:ehstate.obj
 0001:001c0acc       ?SetUnwindTryBlock@__FrameHandler3@@SAXPEA_KPEAU_xDISPATCHER_CONTEXT@@PEBU_s_FuncInfo@@H@Z 00000001801c1acc f   libvcruntime:ehstate.obj
 0001:001c0b08       ?StateFromControlPc@__FrameHandler3@@SAHPEBU_s_FuncInfo@@PEAU_xDISPATCHER_CONTEXT@@@Z 00000001801c1b08 f   libvcruntime:ehstate.obj
 0001:001c0b10       ?StateFromControlPc@__FrameHandler4@@SAHPEAUFuncInfo4@FH4@@PEAU_xDISPATCHER_CONTEXT@@@Z 00000001801c1b10 f   libvcruntime:ehstate.obj
 0001:001c0b18       ?StateFromIp@__FrameHandler3@@SAHPEBU_s_FuncInfo@@PEAU_xDISPATCHER_CONTEXT@@_K@Z 00000001801c1b18 f   libvcruntime:ehstate.obj
 0001:001c0b80       ?StateFromIp@__FrameHandler4@@SAHPEAUFuncInfo4@FH4@@PEAU_xDISPATCHER_CONTEXT@@_K@Z 00000001801c1b80 f   libvcruntime:ehstate.obj
 0001:001c2280       ??$TypeMatchHelper@V__FrameHandler3@@@@YAHPEBU_s_HandlerType@@PEBU_s_CatchableType@@PEBU_s_ThrowInfo@@@Z 00000001801c3280 f i libvcruntime:frame.obj
 0001:001c23c0       ??$TypeMatchHelper@V__FrameHandler4@@@@YAHPEAUHandlerType4@FH4@@PEBU_s_CatchableType@@PEBU_s_ThrowInfo@@@Z 00000001801c33c0 f i libvcruntime:frame.obj
 0001:001c2504       ??$__InternalCxxFrameHandler@V__FrameHandler3@@@@YA?AW4_EXCEPTION_DISPOSITION@@PEAUEHExceptionRecord@@PEA_KPEAU_CONTEXT@@PEAU_xDISPATCHER_CONTEXT@@PEBU_s_FuncInfo@@H1E@Z 00000001801c3504 f i libvcruntime:frame.obj
 0001:001c273c       ??$__InternalCxxFrameHandler@V__FrameHandler4@@@@YA?AW4_EXCEPTION_DISPOSITION@@PEAUEHExceptionRecord@@PEA_KPEAU_CONTEXT@@PEAU_xDISPATCHER_CONTEXT@@PEAUFuncInfo4@FH4@@H1E@Z 00000001801c373c f i libvcruntime:frame.obj
 0001:001c29d0       ??$__InternalCxxFrameHandlerWrapper@V__FrameHandler3@@@@YA?AW4_EXCEPTION_DISPOSITION@@PEAUEHExceptionRecord@@PEA_KPEAU_CONTEXT@@PEAU_xDISPATCHER_CONTEXT@@PEBU_s_FuncInfo@@H1E@Z 00000001801c39d0 f i libvcruntime:frame.obj
 0001:001c29d8       ??$__InternalCxxFrameHandlerWrapper@V__FrameHandler4@@@@YA?AW4_EXCEPTION_DISPOSITION@@PEAUEHExceptionRecord@@PEA_KPEAU_CONTEXT@@PEAU_xDISPATCHER_CONTEXT@@PEAUFuncInfo4@FH4@@H1E@Z 00000001801c39d8 f i libvcruntime:frame.obj
 0001:001c2a34       ??0HandlerMap4@FH4@@QEAA@PEBUTryBlockMapEntry4@1@_KH@Z 00000001801c3a34 f i libvcruntime:frame.obj
 0001:001c2ab0       ??0TryBlockMap4@FH4@@QEAA@PEBUFuncInfo4@1@_K@Z 00000001801c3ab0 f i libvcruntime:frame.obj
 0001:001c2b88       ??0bad_exception@std@@QEAA@AEBV01@@Z 00000001801c3b88 f i libvcruntime:frame.obj
 0001:001c2bc4       ??0bad_exception@std@@QEAA@XZ 00000001801c3bc4 f i libvcruntime:frame.obj
 0001:001c2be4       ??0exception@std@@QEAA@AEBV01@@Z 00000001801c3be4 f i libvcruntime:frame.obj
 0001:001c2c18       ??1bad_exception@std@@UEAA@XZ 00000001801c3c18 f i libvcruntime:frame.obj
 0001:001c2c2c       ??_Ebad_exception@std@@UEAAPEAXI@Z 00000001801c3c2c f i libvcruntime:frame.obj
 0001:001c2c2c       ??_Eexception@std@@UEAAPEAXI@Z 00000001801c3c2c f i libvcruntime:frame.obj
 0001:001c2c2c       ??_Gbad_exception@std@@UEAAPEAXI@Z 00000001801c3c2c f i libvcruntime:frame.obj
 0001:001c2c2c       ??_Gexception@std@@UEAAPEAXI@Z 00000001801c3c2c f i libvcruntime:frame.obj
 0001:001c2c70       ?CxxCallCatchBlock@__FrameHandler3@@SAPEAXPEAU_EXCEPTION_RECORD@@@Z 00000001801c3c70 f   libvcruntime:frame.obj
 0001:001c2e5c       ?CxxCallCatchBlock@__FrameHandler4@@SAPEAXPEAU_EXCEPTION_RECORD@@@Z 00000001801c3e5c f   libvcruntime:frame.obj
 0001:001c30ac       ?DecompHandler@HandlerMap4@FH4@@AEAAXXZ 00000001801c40ac f i libvcruntime:frame.obj
 0001:001c32f8       ?FrameUnwindToState@__FrameHandler3@@SAXPEA_KPEAU_xDISPATCHER_CONTEXT@@PEBU_s_FuncInfo@@H@Z 00000001801c42f8 f   libvcruntime:frame.obj
 0001:001c3484       ?FrameUnwindToState@__FrameHandler4@@SAXPEA_KPEAU_xDISPATCHER_CONTEXT@@PEAUFuncInfo4@FH4@@H@Z 00000001801c4484 f   libvcruntime:frame.obj
 0001:001c3780       ?GetHandlerSearchState@__FrameHandler3@@SAHPEA_KPEAU_xDISPATCHER_CONTEXT@@PEBU_s_FuncInfo@@@Z 00000001801c4780 f i libvcruntime:frame.obj
 0001:001c3990       ?ReadEntry@UWMap4@FH4@@AEAAXPEAPEAE@Z 00000001801c4990 f i libvcruntime:frame.obj
 0001:001c3a2c       ?_CallMemberFunction1@@YAXQEAX00@Z 00000001801c4a2c f i libvcruntime:frame.obj
 0001:001c3a38       ?_CallMemberFunction2@@YAXQEAX00H@Z 00000001801c4a38 f i libvcruntime:frame.obj
 0001:001c3a48       ?getStartStop@UWMap4@FH4@@QEAAXHHAEAViterator@12@0@Z 00000001801c4a48 f i libvcruntime:frame.obj
 0001:001c3b18       ?getStateFromIterators@UWMap4@FH4@@SAHAEBViterator@12@H0H0@Z 00000001801c4b18 f i libvcruntime:frame.obj
 0001:001c3bc8       ?what@exception@std@@UEBAPEBDXZ 00000001801c4bc8 f i libvcruntime:frame.obj
 0001:001c3bf0       _CallSettingFrame          00000001801c4bf0 f   libvcruntime:handlers.obj
 0001:001c3c40       _CallSettingFrame_LookupContinuationIndex 00000001801c4c40 f   libvcruntime:handlers.obj
 0001:001c3c70       _CallSettingFrame_NotifyContinuationAddr 00000001801c4c70 f   libvcruntime:handlers.obj
 0001:001c3ca0       _CallSettingFrameEncoded   00000001801c4ca0 f   libvcruntime:handlers.obj
 0001:001c3ce8       __std_exception_copy       00000001801c4ce8 f   libvcruntime:std_exception.obj
 0001:001c3d78       __std_exception_destroy    00000001801c4d78 f   libvcruntime:std_exception.obj
 0001:001c3da0       _CxxThrowException         00000001801c4da0 f   libvcruntime:throw.obj
 0001:001c3e40       _local_unwind              00000001801c4e40 f   libvcruntime:jmpuwind.obj
 0001:001c3e70       cosf                       00000001801c4e70 f   libucrt:cosf.obj
 0001:001c4370       sinf                       00000001801c5370 f   libucrt:sinf.obj
 0001:001c4a70       tanf                       00000001801c5a70 f   libucrt:tanf.obj
 0001:001c50e4       __acrt_initialize_stdio    00000001801c60e4 f   libucrt:_file.obj
 0001:001c5204       __acrt_iob_func            00000001801c6204 f   libucrt:_file.obj
 0001:001c5218       __acrt_uninitialize_stdio  00000001801c6218 f   libucrt:_file.obj
 0001:001c5274       _lock_file                 00000001801c6274 f   libucrt:_file.obj
 0001:001c5280       _unlock_file               00000001801c6280 f   libucrt:_file.obj
 0001:001c547c       ??$ensure_buffer_is_big_enough@D@formatting_buffer@__crt_stdio_output@@QEAA_N_KAEAV__crt_cached_ptd_host@@@Z 00000001801c647c f i libucrt:output.obj
 0001:001c5524       ??$parse_integer@KV?$c_string_character_source@D@__crt_strtox@@$0A@@__crt_strtox@@YAKAEAV__crt_cached_ptd_host@@V?$c_string_character_source@D@0@H_N@Z 00000001801c6524 f i libucrt:output.obj
 0001:001c57d4       ??$type_case_integer@$07@?$output_processor@DV?$stream_output_adapter@D@__crt_stdio_output@@V?$standard_base@DV?$stream_output_adapter@D@__crt_stdio_output@@@2@@__crt_stdio_output@@AEAA_N_N@Z 00000001801c67d4 f i libucrt:output.obj
 0001:001c57d4       ??$type_case_integer@$07@?$output_processor@DV?$string_output_adapter@D@__crt_stdio_output@@V?$format_validation_base@DV?$string_output_adapter@D@__crt_stdio_output@@@2@@__crt_stdio_output@@AEAA_N_N@Z 00000001801c67d4 f i libucrt:output.obj
 0001:001c57d4       ??$type_case_integer@$07@?$output_processor@DV?$string_output_adapter@D@__crt_stdio_output@@V?$standard_base@DV?$string_output_adapter@D@__crt_stdio_output@@@2@@__crt_stdio_output@@AEAA_N_N@Z 00000001801c67d4 f i libucrt:output.obj
 0001:001c59bc       ??$type_case_integer@$09@?$output_processor@DV?$stream_output_adapter@D@__crt_stdio_output@@V?$standard_base@DV?$stream_output_adapter@D@__crt_stdio_output@@@2@@__crt_stdio_output@@AEAA_N_N@Z 00000001801c69bc f i libucrt:output.obj
 0001:001c59bc       ??$type_case_integer@$09@?$output_processor@DV?$string_output_adapter@D@__crt_stdio_output@@V?$format_validation_base@DV?$string_output_adapter@D@__crt_stdio_output@@@2@@__crt_stdio_output@@AEAA_N_N@Z 00000001801c69bc f i libucrt:output.obj
 0001:001c59bc       ??$type_case_integer@$09@?$output_processor@DV?$string_output_adapter@D@__crt_stdio_output@@V?$standard_base@DV?$string_output_adapter@D@__crt_stdio_output@@@2@@__crt_stdio_output@@AEAA_N_N@Z 00000001801c69bc f i libucrt:output.obj
 0001:001c5ba4       ??$type_case_integer@$0BA@@?$output_processor@DV?$stream_output_adapter@D@__crt_stdio_output@@V?$standard_base@DV?$stream_output_adapter@D@__crt_stdio_output@@@2@@__crt_stdio_output@@AEAA_N_N@Z 00000001801c6ba4 f i libucrt:output.obj
 0001:001c5ba4       ??$type_case_integer@$0BA@@?$output_processor@DV?$string_output_adapter@D@__crt_stdio_output@@V?$format_validation_base@DV?$string_output_adapter@D@__crt_stdio_output@@@2@@__crt_stdio_output@@AEAA_N_N@Z 00000001801c6ba4 f i libucrt:output.obj
 0001:001c5ba4       ??$type_case_integer@$0BA@@?$output_processor@DV?$string_output_adapter@D@__crt_stdio_output@@V?$standard_base@DV?$string_output_adapter@D@__crt_stdio_output@@@2@@__crt_stdio_output@@AEAA_N_N@Z 00000001801c6ba4 f i libucrt:output.obj
 0001:001c5d8c       ??$type_case_integer_parse_into_buffer@I$07@?$output_processor@DV?$stream_output_adapter@D@__crt_stdio_output@@V?$standard_base@DV?$stream_output_adapter@D@__crt_stdio_output@@@2@@__crt_stdio_output@@AEAAXI_N@Z 00000001801c6d8c f i libucrt:output.obj
 0001:001c5d8c       ??$type_case_integer_parse_into_buffer@I$07@?$output_processor@DV?$string_output_adapter@D@__crt_stdio_output@@V?$format_validation_base@DV?$string_output_adapter@D@__crt_stdio_output@@@2@@__crt_stdio_output@@AEAAXI_N@Z 00000001801c6d8c f i libucrt:output.obj
 0001:001c5d8c       ??$type_case_integer_parse_into_buffer@I$07@?$output_processor@DV?$string_output_adapter@D@__crt_stdio_output@@V?$standard_base@DV?$string_output_adapter@D@__crt_stdio_output@@@2@@__crt_stdio_output@@AEAAXI_N@Z 00000001801c6d8c f i libucrt:output.obj
 0001:001c5e08       ??$type_case_integer_parse_into_buffer@I$09@?$output_processor@DV?$stream_output_adapter@D@__crt_stdio_output@@V?$standard_base@DV?$stream_output_adapter@D@__crt_stdio_output@@@2@@__crt_stdio_output@@AEAAXI_N@Z 00000001801c6e08 f i libucrt:output.obj
 0001:001c5e08       ??$type_case_integer_parse_into_buffer@I$09@?$output_processor@DV?$string_output_adapter@D@__crt_stdio_output@@V?$format_validation_base@DV?$string_output_adapter@D@__crt_stdio_output@@@2@@__crt_stdio_output@@AEAAXI_N@Z 00000001801c6e08 f i libucrt:output.obj
 0001:001c5e08       ??$type_case_integer_parse_into_buffer@I$09@?$output_processor@DV?$string_output_adapter@D@__crt_stdio_output@@V?$standard_base@DV?$string_output_adapter@D@__crt_stdio_output@@@2@@__crt_stdio_output@@AEAAXI_N@Z 00000001801c6e08 f i libucrt:output.obj
 0001:001c5eb0       ??$type_case_integer_parse_into_buffer@I$0BA@@?$output_processor@DV?$stream_output_adapter@D@__crt_stdio_output@@V?$standard_base@DV?$stream_output_adapter@D@__crt_stdio_output@@@2@@__crt_stdio_output@@AEAAXI_N@Z 00000001801c6eb0 f i libucrt:output.obj
 0001:001c5eb0       ??$type_case_integer_parse_into_buffer@I$0BA@@?$output_processor@DV?$string_output_adapter@D@__crt_stdio_output@@V?$format_validation_base@DV?$string_output_adapter@D@__crt_stdio_output@@@2@@__crt_stdio_output@@AEAAXI_N@Z 00000001801c6eb0 f i libucrt:output.obj
 0001:001c5eb0       ??$type_case_integer_parse_into_buffer@I$0BA@@?$output_processor@DV?$string_output_adapter@D@__crt_stdio_output@@V?$standard_base@DV?$string_output_adapter@D@__crt_stdio_output@@@2@@__crt_stdio_output@@AEAAXI_N@Z 00000001801c6eb0 f i libucrt:output.obj
 0001:001c5f3c       ??$type_case_integer_parse_into_buffer@_K$07@?$output_processor@DV?$stream_output_adapter@D@__crt_stdio_output@@V?$standard_base@DV?$stream_output_adapter@D@__crt_stdio_output@@@2@@__crt_stdio_output@@AEAAX_K_N@Z 00000001801c6f3c f i libucrt:output.obj
 0001:001c5f3c       ??$type_case_integer_parse_into_buffer@_K$07@?$output_processor@DV?$string_output_adapter@D@__crt_stdio_output@@V?$format_validation_base@DV?$string_output_adapter@D@__crt_stdio_output@@@2@@__crt_stdio_output@@AEAAX_K_N@Z 00000001801c6f3c f i libucrt:output.obj
 0001:001c5f3c       ??$type_case_integer_parse_into_buffer@_K$07@?$output_processor@DV?$string_output_adapter@D@__crt_stdio_output@@V?$standard_base@DV?$string_output_adapter@D@__crt_stdio_output@@@2@@__crt_stdio_output@@AEAAX_K_N@Z 00000001801c6f3c f i libucrt:output.obj
 0001:001c5fb8       ??$type_case_integer_parse_into_buffer@_K$09@?$output_processor@DV?$stream_output_adapter@D@__crt_stdio_output@@V?$standard_base@DV?$stream_output_adapter@D@__crt_stdio_output@@@2@@__crt_stdio_output@@AEAAX_K_N@Z 00000001801c6fb8 f i libucrt:output.obj
 0001:001c5fb8       ??$type_case_integer_parse_into_buffer@_K$09@?$output_processor@DV?$string_output_adapter@D@__crt_stdio_output@@V?$format_validation_base@DV?$string_output_adapter@D@__crt_stdio_output@@@2@@__crt_stdio_output@@AEAAX_K_N@Z 00000001801c6fb8 f i libucrt:output.obj
 0001:001c5fb8       ??$type_case_integer_parse_into_buffer@_K$09@?$output_processor@DV?$string_output_adapter@D@__crt_stdio_output@@V?$standard_base@DV?$string_output_adapter@D@__crt_stdio_output@@@2@@__crt_stdio_output@@AEAAX_K_N@Z 00000001801c6fb8 f i libucrt:output.obj
 0001:001c6064       ??$type_case_integer_parse_into_buffer@_K$0BA@@?$output_processor@DV?$stream_output_adapter@D@__crt_stdio_output@@V?$standard_base@DV?$stream_output_adapter@D@__crt_stdio_output@@@2@@__crt_stdio_output@@AEAAX_K_N@Z 00000001801c7064 f i libucrt:output.obj
 0001:001c6064       ??$type_case_integer_parse_into_buffer@_K$0BA@@?$output_processor@DV?$string_output_adapter@D@__crt_stdio_output@@V?$format_validation_base@DV?$string_output_adapter@D@__crt_stdio_output@@@2@@__crt_stdio_output@@AEAAX_K_N@Z 00000001801c7064 f i libucrt:output.obj
 0001:001c6064       ??$type_case_integer_parse_into_buffer@_K$0BA@@?$output_processor@DV?$string_output_adapter@D@__crt_stdio_output@@V?$standard_base@DV?$string_output_adapter@D@__crt_stdio_output@@@2@@__crt_stdio_output@@AEAAX_K_N@Z 00000001801c7064 f i libucrt:output.obj
 0001:001c620c       ?crop_zeroes@__crt_stdio_output@@YAXPEADQEAU__crt_locale_pointers@@@Z 00000001801c720c f i libucrt:output.obj
 0001:001c6280       ?get_raw_ptd@__crt_cached_ptd_host@@QEAAPEAU__acrt_ptd@@XZ 00000001801c7280 f i libucrt:output.obj
 0001:001c62e8       ?parse_int_from_format_string@?$output_processor@DV?$stream_output_adapter@D@__crt_stdio_output@@V?$standard_base@DV?$stream_output_adapter@D@__crt_stdio_output@@@2@@__crt_stdio_output@@AEAA_NQEAH@Z 00000001801c72e8 f i libucrt:output.obj
 0001:001c62e8       ?parse_int_from_format_string@?$output_processor@DV?$string_output_adapter@D@__crt_stdio_output@@V?$format_validation_base@DV?$string_output_adapter@D@__crt_stdio_output@@@2@@__crt_stdio_output@@AEAA_NQEAH@Z 00000001801c72e8 f i libucrt:output.obj
 0001:001c62e8       ?parse_int_from_format_string@?$output_processor@DV?$string_output_adapter@D@__crt_stdio_output@@V?$standard_base@DV?$string_output_adapter@D@__crt_stdio_output@@@2@@__crt_stdio_output@@AEAA_NQEAH@Z 00000001801c72e8 f i libucrt:output.obj
 0001:001c6378       ?process@?$output_processor@DV?$stream_output_adapter@D@__crt_stdio_output@@V?$standard_base@DV?$stream_output_adapter@D@__crt_stdio_output@@@2@@__crt_stdio_output@@QEAAHXZ 00000001801c7378 f i libucrt:output.obj
 0001:001c6704       ?process@?$output_processor@DV?$string_output_adapter@D@__crt_stdio_output@@V?$format_validation_base@DV?$string_output_adapter@D@__crt_stdio_output@@@2@@__crt_stdio_output@@QEAAHXZ 00000001801c7704 f i libucrt:output.obj
 0001:001c6a94       ?process@?$output_processor@DV?$string_output_adapter@D@__crt_stdio_output@@V?$standard_base@DV?$string_output_adapter@D@__crt_stdio_output@@@2@@__crt_stdio_output@@QEAAHXZ 00000001801c7a94 f i libucrt:output.obj
 0001:001c6e18       ?state_case_size@?$output_processor@DV?$stream_output_adapter@D@__crt_stdio_output@@V?$standard_base@DV?$stream_output_adapter@D@__crt_stdio_output@@@2@@__crt_stdio_output@@AEAA_NXZ 00000001801c7e18 f i libucrt:output.obj
 0001:001c6f9c       ?state_case_size@?$output_processor@DV?$string_output_adapter@D@__crt_stdio_output@@V?$format_validation_base@DV?$string_output_adapter@D@__crt_stdio_output@@@2@@__crt_stdio_output@@AEAA_NXZ 00000001801c7f9c f i libucrt:output.obj
 0001:001c6f9c       ?state_case_size@?$output_processor@DV?$string_output_adapter@D@__crt_stdio_output@@V?$standard_base@DV?$string_output_adapter@D@__crt_stdio_output@@@2@@__crt_stdio_output@@AEAA_NXZ 00000001801c7f9c f i libucrt:output.obj
 0001:001c7120       ?state_case_type@?$output_processor@DV?$stream_output_adapter@D@__crt_stdio_output@@V?$standard_base@DV?$stream_output_adapter@D@__crt_stdio_output@@@2@@__crt_stdio_output@@AEAA_NXZ 00000001801c8120 f i libucrt:output.obj
 0001:001c7554       ?state_case_type@?$output_processor@DV?$string_output_adapter@D@__crt_stdio_output@@V?$format_validation_base@DV?$string_output_adapter@D@__crt_stdio_output@@@2@@__crt_stdio_output@@AEAA_NXZ 00000001801c8554 f i libucrt:output.obj
 0001:001c7554       ?state_case_type@?$output_processor@DV?$string_output_adapter@D@__crt_stdio_output@@V?$standard_base@DV?$string_output_adapter@D@__crt_stdio_output@@@2@@__crt_stdio_output@@AEAA_NXZ 00000001801c8554 f i libucrt:output.obj
 0001:001c7920       ?type_case_Z@?$output_processor@DV?$stream_output_adapter@D@__crt_stdio_output@@V?$standard_base@DV?$stream_output_adapter@D@__crt_stdio_output@@@2@@__crt_stdio_output@@AEAA_NXZ 00000001801c8920 f i libucrt:output.obj
 0001:001c7920       ?type_case_Z@?$output_processor@DV?$string_output_adapter@D@__crt_stdio_output@@V?$format_validation_base@DV?$string_output_adapter@D@__crt_stdio_output@@@2@@__crt_stdio_output@@AEAA_NXZ 00000001801c8920 f i libucrt:output.obj
 0001:001c7920       ?type_case_Z@?$output_processor@DV?$string_output_adapter@D@__crt_stdio_output@@V?$standard_base@DV?$string_output_adapter@D@__crt_stdio_output@@@2@@__crt_stdio_output@@AEAA_NXZ 00000001801c8920 f i libucrt:output.obj
 0001:001c7998       ?type_case_a@?$output_processor@DV?$stream_output_adapter@D@__crt_stdio_output@@V?$standard_base@DV?$stream_output_adapter@D@__crt_stdio_output@@@2@@__crt_stdio_output@@AEAA_NXZ 00000001801c8998 f i libucrt:output.obj
 0001:001c7998       ?type_case_a@?$output_processor@DV?$string_output_adapter@D@__crt_stdio_output@@V?$format_validation_base@DV?$string_output_adapter@D@__crt_stdio_output@@@2@@__crt_stdio_output@@AEAA_NXZ 00000001801c8998 f i libucrt:output.obj
 0001:001c7998       ?type_case_a@?$output_processor@DV?$string_output_adapter@D@__crt_stdio_output@@V?$standard_base@DV?$string_output_adapter@D@__crt_stdio_output@@@2@@__crt_stdio_output@@AEAA_NXZ 00000001801c8998 f i libucrt:output.obj
 0001:001c7be4       ?type_case_c_tchar@?$output_processor@DV?$stream_output_adapter@D@__crt_stdio_output@@V?$standard_base@DV?$stream_output_adapter@D@__crt_stdio_output@@@2@@__crt_stdio_output@@AEAA_ND@Z 00000001801c8be4 f i libucrt:output.obj
 0001:001c7be4       ?type_case_c_tchar@?$output_processor@DV?$string_output_adapter@D@__crt_stdio_output@@V?$format_validation_base@DV?$string_output_adapter@D@__crt_stdio_output@@@2@@__crt_stdio_output@@AEAA_ND@Z 00000001801c8be4 f i libucrt:output.obj
 0001:001c7be4       ?type_case_c_tchar@?$output_processor@DV?$string_output_adapter@D@__crt_stdio_output@@V?$standard_base@DV?$string_output_adapter@D@__crt_stdio_output@@@2@@__crt_stdio_output@@AEAA_ND@Z 00000001801c8be4 f i libucrt:output.obj
 0001:001c7ca8       ?type_case_n@?$output_processor@DV?$stream_output_adapter@D@__crt_stdio_output@@V?$standard_base@DV?$stream_output_adapter@D@__crt_stdio_output@@@2@@__crt_stdio_output@@AEAA_NXZ 00000001801c8ca8 f i libucrt:output.obj
 0001:001c7ca8       ?type_case_n@?$output_processor@DV?$string_output_adapter@D@__crt_stdio_output@@V?$format_validation_base@DV?$string_output_adapter@D@__crt_stdio_output@@@2@@__crt_stdio_output@@AEAA_NXZ 00000001801c8ca8 f i libucrt:output.obj
 0001:001c7ca8       ?type_case_n@?$output_processor@DV?$string_output_adapter@D@__crt_stdio_output@@V?$standard_base@DV?$string_output_adapter@D@__crt_stdio_output@@@2@@__crt_stdio_output@@AEAA_NXZ 00000001801c8ca8 f i libucrt:output.obj
 0001:001c7d5c       ?type_case_s@?$output_processor@DV?$stream_output_adapter@D@__crt_stdio_output@@V?$standard_base@DV?$stream_output_adapter@D@__crt_stdio_output@@@2@@__crt_stdio_output@@AEAA_NXZ 00000001801c8d5c f i libucrt:output.obj
 0001:001c7d5c       ?type_case_s@?$output_processor@DV?$string_output_adapter@D@__crt_stdio_output@@V?$format_validation_base@DV?$string_output_adapter@D@__crt_stdio_output@@@2@@__crt_stdio_output@@AEAA_NXZ 00000001801c8d5c f i libucrt:output.obj
 0001:001c7d5c       ?type_case_s@?$output_processor@DV?$string_output_adapter@D@__crt_stdio_output@@V?$standard_base@DV?$string_output_adapter@D@__crt_stdio_output@@@2@@__crt_stdio_output@@AEAA_NXZ 00000001801c8d5c f i libucrt:output.obj
 0001:001c7e00       ?update_locale_slow@__crt_cached_ptd_host@@AEAAXXZ 00000001801c8e00 f i libucrt:output.obj
 0001:001c7e78       ?validate_stream_is_ansi_if_required@?$__acrt_stdio_char_traits@D@@SA_NQEAU_iobuf@@@Z 00000001801c8e78 f i libucrt:output.obj
 0001:001c7f14       ?write_string@?$string_output_adapter@D@__crt_stdio_output@@QEBAXQEBDHQEAHAEAV__crt_cached_ptd_host@@@Z 00000001801c8f14 f i libucrt:output.obj
 0001:001c7fb8       ?write_string_impl@?$output_adapter_common@DV?$stream_output_adapter@D@__crt_stdio_output@@@__crt_stdio_output@@IEBAXQEBDHQEAHAEAV__crt_cached_ptd_host@@@Z 00000001801c8fb8 f i libucrt:output.obj
 0001:001c8084       __stdio_common_vfprintf    00000001801c9084 f   libucrt:output.obj
 0001:001c81a8       __stdio_common_vsprintf    00000001801c91a8 f   libucrt:output.obj
 0001:001c83fc       __stdio_common_vsprintf_s  00000001801c93fc f   libucrt:output.obj
 0001:001c8510       _fpclass                   00000001801c9510 f   libucrt:ieeemisc.obj
 0001:001c85a0       powf                       00000001801c95a0 f   libucrt:powf.obj
 0001:001c9468       atan2f                     00000001801ca468 f   libucrt:atan2f.obj
 0001:001c9860       acosf                      00000001801ca860 f   libucrt:acosf.obj
 0001:001c9a8c       free                       00000001801caa8c f   libucrt:free.obj
 0001:001c9aa0       _seh_filter_dll            00000001801caaa0 f   libucrt:exception_filter.obj
 0001:001c9ab4       _seh_filter_exe            00000001801caab4 f   libucrt:exception_filter.obj
 0001:001c9ed8       __acrt_initialize_thread_local_exit_callback 00000001801caed8 f   libucrt:exit.obj
 0001:001c9ee0       _cexit                     00000001801caee0 f   libucrt:exit.obj
 0001:001c9ef0       _exit                      00000001801caef0 f   libucrt:exit.obj
 0001:001c9efc       _is_c_termination_complete 00000001801caefc f   libucrt:exit.obj
 0001:001ca0c4       __acrt_allocate_buffer_for_argv 00000001801cb0c4 f   libucrt:argv_parsing.obj
 0001:001ca124       _configure_narrow_argv     00000001801cb124 f   libucrt:argv_parsing.obj
 0001:001ca4ac       __dcrt_uninitialize_environments_nolock 00000001801cb4ac f   libucrt:environment_initialization.obj
 0001:001ca4f0       _initialize_narrow_environment 00000001801cb4f0 f   libucrt:environment_initialization.obj
 0001:001ca840       _crt_atexit                00000001801cb840 f   libucrt:onexit.obj
 0001:001ca850       _execute_onexit_table      00000001801cb850 f   libucrt:onexit.obj
 0001:001ca894       _initialize_onexit_table   00000001801cb894 f   libucrt:onexit.obj
 0001:001ca8bc       _register_onexit_function  00000001801cb8bc f   libucrt:onexit.obj
 0001:001ca93c       __acrt_uninitialize_command_line 00000001801cb93c f   libucrt:argv_data.obj
 0001:001caa34       __acrt_initialize          00000001801cba34 f   libucrt:initialization.obj
 0001:001caa48       __acrt_thread_attach       00000001801cba48 f   libucrt:initialization.obj
 0001:001caa5c       __acrt_thread_detach       00000001801cba5c f   libucrt:initialization.obj
 0001:001caa6c       __acrt_uninitialize        00000001801cba6c f   libucrt:initialization.obj
 0001:001caaa4       __acrt_uninitialize_critical 00000001801cbaa4 f   libucrt:initialization.obj
 0001:001caab4       _initterm                  00000001801cbab4 f   libucrt:initterm.obj
 0001:001caaf8       _initterm_e                00000001801cbaf8 f   libucrt:initterm.obj
 0001:001cab40       terminate                  00000001801cbb40 f   libucrt:terminate.obj
 0001:001cab6c       abort                      00000001801cbb6c f   libucrt:abort.obj
 0001:001cabc4       malloc                     00000001801cbbc4 f   libucrt:malloc.obj
 0001:001cabcc       strcpy_s                   00000001801cbbcc f   libucrt:strcpy_s.obj
 0001:001cac2c       ??$parse_integer@KV?$c_string_character_source@D@__crt_strtox@@$00@__crt_strtox@@YAKAEAV__crt_cached_ptd_host@@V?$c_string_character_source@D@0@H_N@Z 00000001801cbc2c f i libucrt:atox.obj
 0001:001caf0c       _ischartype_l              00000001801cbf0c f i libucrt:atox.obj
 0001:001caf84       atol                       00000001801cbf84 f   libucrt:atox.obj
 0001:001cb050       strncmp                    00000001801cc050 f   libucrt:strncmp.obj
 0001:001cb0d0       calloc                     00000001801cc0d0 f   libucrt:calloc.obj
 0001:001cb0d8       wcsncmp                    00000001801cc0d8 f   libucrt:wcsncmp.obj
 0001:001cb110       __remainder_piby2d2f_forAsm 00000001801cc110 f   libucrt:remainder_piby2f_forasm.obj
 0001:001cb260       __remainder_piby2_fma3     00000001801cc260 f   libucrt:remainder_piby2_forfma3.obj
 0001:001cb450       __remainder_piby2_fma3_bdl 00000001801cc450 f   libucrt:remainder_piby2_forfma3.obj
 0001:001cb4c8       _cosf_special              00000001801cc4c8 f   libucrt:sincos_special.obj
 0001:001cb568       _sinf_special              00000001801cc568 f   libucrt:sincos_special.obj
 0001:001cb57c       _tanf_special              00000001801cc57c f   libucrt:sincos_special.obj
 0001:001cb590       _clrfp                     00000001801cc590 f   libucrt:fpctrl.obj
 0001:001cb5b0       _ctrlfp                    00000001801cc5b0 f   libucrt:fpctrl.obj
 0001:001cb62c       _set_statfp                00000001801cc62c f   libucrt:fpctrl.obj
 0001:001cb64c       _statfp                    00000001801cc64c f   libucrt:fpctrl.obj
 0001:001cb660       __acrt_initialize_fma3     00000001801cc660 f   libucrt:fma3_available.obj
 0001:001cb6d0       __remainder_piby2d2f_forC  00000001801cc6d0 f   libucrt:remainder_piby2f_forc.obj
 0001:001cb85c       ?get_raw_ptd_noexit@__crt_cached_ptd_host@@QEAAPEAU__acrt_ptd@@XZ 00000001801cc85c f i libucrt:invalid_parameter.obj
 0001:001cb8c8       ?value@?$dual_state_global@P6AXPEB_W00I_K@Z@__crt_state_management@@QEAAAEAP6AXPEB_W00I_K@ZAEAV__crt_cached_ptd_host@@@Z 00000001801cc8c8 f i libucrt:invalid_parameter.obj
 0001:001cb914       __acrt_call_reportfault    00000001801cc914 f   libucrt:invalid_parameter.obj
 0001:001cba70       __acrt_initialize_invalid_parameter_handler 00000001801cca70 f   libucrt:invalid_parameter.obj
 0001:001cba78       _invalid_parameter         00000001801cca78 f   libucrt:invalid_parameter.obj
 0001:001cbb14       _invalid_parameter_internal 00000001801ccb14 f   libucrt:invalid_parameter.obj
 0001:001cbbe4       _invalid_parameter_noinfo  00000001801ccbe4 f   libucrt:invalid_parameter.obj
 0001:001cbc04       _invoke_watson             00000001801ccc04 f   libucrt:invalid_parameter.obj
 0001:001cbc4c       __acrt_errno_from_os_error 00000001801ccc4c f   libucrt:errno.obj
 0001:001cbc94       __acrt_errno_map_os_error  00000001801ccc94 f   libucrt:errno.obj
 0001:001cbcdc       __acrt_errno_map_os_error_ptd 00000001801cccdc f   libucrt:errno.obj
 0001:001cbd00       __doserrno                 00000001801ccd00 f   libucrt:errno.obj
 0001:001cbd20       _errno                     00000001801ccd20 f   libucrt:errno.obj
 0001:001cbd40       _calloc_base               00000001801ccd40 f   libucrt:calloc_base.obj
 0001:001cbdb8       _free_base                 00000001801ccdb8 f   libucrt:free_base.obj
 0001:001cbfb4       __acrt_AppPolicyGetProcessTerminationMethodInternal 00000001801ccfb4 f   libucrt:winapi_thunks.obj
 0001:001cc00c       __acrt_AreFileApisANSI     00000001801cd00c f   libucrt:winapi_thunks.obj
 0001:001cc050       __acrt_FlsAlloc            00000001801cd050 f   libucrt:winapi_thunks.obj
 0001:001cc058       __acrt_FlsFree             00000001801cd058 f   libucrt:winapi_thunks.obj
 0001:001cc060       __acrt_FlsGetValue         00000001801cd060 f   libucrt:winapi_thunks.obj
 0001:001cc068       __acrt_FlsSetValue         00000001801cd068 f   libucrt:winapi_thunks.obj
 0001:001cc070       __acrt_InitializeCriticalSectionEx 00000001801cd070 f   libucrt:winapi_thunks.obj
 0001:001cc0e0       __acrt_LCMapStringEx       00000001801cd0e0 f   libucrt:winapi_thunks.obj
 0001:001cc1cc       __acrt_LocaleNameToLCID    00000001801cd1cc f   libucrt:winapi_thunks.obj
 0001:001cc22c       __acrt_initialize_winapi_thunks 00000001801cd22c f   libucrt:winapi_thunks.obj
 0001:001cc250       __acrt_uninitialize_winapi_thunks 00000001801cd250 f   libucrt:winapi_thunks.obj
 0001:001cc294       _fcloseall                 00000001801cd294 f   libucrt:closeall.obj
 0001:001cc524       __acrt_stdio_flush_nolock  00000001801cd524 f   libucrt:fflush.obj
 0001:001cc5b0       _fflush_nolock             00000001801cd5b0 f   libucrt:fflush.obj
 0001:001cc684       _flushall                  00000001801cd684 f   libucrt:fflush.obj
 0001:001cc68c       __acrt_stdio_free_buffer_nolock 00000001801cd68c f   libucrt:_freebuf.obj
 0001:001cc8c4       __acrt_initialize_lowio    00000001801cd8c4 f   libucrt:ioinit.obj
 0001:001cc900       __acrt_uninitialize_lowio  00000001801cd900 f   libucrt:ioinit.obj
 0001:001cc940       _malloc_base               00000001801cd940 f   libucrt:malloc_base.obj
 0001:001cc9a0       strnlen                    00000001801cd9a0 f   libucrt:strnlen.obj
 0001:001ccaf0       wcsnlen                    00000001801cdaf0 f   libucrt:strnlen.obj
 0001:001cccc8       __acrt_update_locale_info  00000001801cdcc8 f   libucrt:locale_update.obj
 0001:001cccfc       __acrt_update_locale_info_explicit 00000001801cdcfc f   libucrt:locale_update.obj
 0001:001ccd34       __acrt_update_multibyte_info 00000001801cdd34 f   libucrt:locale_update.obj
 0001:001ccd68       __acrt_update_multibyte_info_explicit 00000001801cdd68 f   libucrt:locale_update.obj
 0001:001cd8d0       __acrt_fp_format           00000001801ce8d0 f   libucrt:cvt.obj
 0001:001cdbb8       _wctomb_internal           00000001801cebb8 f   libucrt:wctomb.obj
 0001:001cdd68       _mbtowc_internal           00000001801ced68 f   libucrt:mbtowc.obj
 0001:001cdee0       _fileno                    00000001801ceee0 f   libucrt:fileno.obj
 0001:001cdf08       _get_printf_count_output   00000001801cef08 f   libucrt:printf_count_output.obj
 0001:001cdf20       _fputc_nolock_internal     00000001801cef20 f   libucrt:fputc.obj
 0001:001cdf38       __acrt_should_use_temporary_buffer 00000001801cef38 f   libucrt:_sftbuf.obj
 0001:001cdf80       __acrt_stdio_begin_temporary_buffering_nolock 00000001801cef80 f   libucrt:_sftbuf.obj
 0001:001ce048       __acrt_stdio_end_temporary_buffering_nolock 00000001801cf048 f   libucrt:_sftbuf.obj
 0001:001ce3fc       __acrt_freeptd             00000001801cf3fc f   libucrt:per_thread_data.obj
 0001:001ce440       __acrt_getptd              00000001801cf440 f   libucrt:per_thread_data.obj
 0001:001ce514       __acrt_getptd_head         00000001801cf514 f   libucrt:per_thread_data.obj
 0001:001ce5b8       __acrt_getptd_noexit       00000001801cf5b8 f   libucrt:per_thread_data.obj
 0001:001ce680       __acrt_getptd_noexit_explicit 00000001801cf680 f   libucrt:per_thread_data.obj
 0001:001ce740       __acrt_initialize_ptd      00000001801cf740 f   libucrt:per_thread_data.obj
 0001:001ce77c       __acrt_uninitialize_ptd    00000001801cf77c f   libucrt:per_thread_data.obj
 0001:001ce810       __acrt_set_locale_changed  00000001801cf810 f   libucrt:wsetlocale.obj
 0001:001ce81c       __acrt_uninitialize_locale 00000001801cf81c f   libucrt:wsetlocale.obj
 0001:001ce970       _handle_error              00000001801cf970 f   libucrt:libm_error.obj
 0001:001cea98       _handle_errorf             00000001801cfa98 f   libucrt:libm_error.obj
 0001:001cebcc       _handle_nan                00000001801cfbcc f   libucrt:libm_error.obj
 0001:001cebe8       _handle_nanf               00000001801cfbe8 f   libucrt:libm_error.obj
 0001:001cec00       _powf_special              00000001801cfc00 f   libucrt:pow_special.obj
 0001:001ced50       __acrt_initialize_locks    00000001801cfd50 f   libucrt:locks.obj
 0001:001ced98       __acrt_lock                00000001801cfd98 f   libucrt:locks.obj
 0001:001cedb4       __acrt_uninitialize_locks  00000001801cfdb4 f   libucrt:locks.obj
 0001:001cedec       __acrt_unlock              00000001801cfdec f   libucrt:locks.obj
 0001:001cee08       __acrt_get_process_end_policy 00000001801cfe08 f   libucrt:win_policies.obj
 0001:001cee58       ??$__acrt_convert_wcs_mbs_cp@D_WV<lambda_7c9dea7b4ca7285d2cdb541a38da6275>@@U__crt_win32_buffer_internal_dynamic_resizing@@@@YAHQEBDAEAV?$__crt_win32_buffer@_WU__crt_win32_buffer_internal_dynamic_resizing@@@@AEBV<lambda_7c9dea7b4ca7285d2cdb541a38da6275>@@I@Z 00000001801cfe58 f i libucrt:argv_wildcards.obj
 0001:001cefd4       ??$__acrt_convert_wcs_mbs_cp@_WDV<lambda_d8593a27d1aa8c02be35c86a17d324c4>@@U__crt_win32_buffer_internal_dynamic_resizing@@@@YAHQEB_WAEAV?$__crt_win32_buffer@DU__crt_win32_buffer_internal_dynamic_resizing@@@@AEBV<lambda_d8593a27d1aa8c02be35c86a17d324c4>@@I@Z 00000001801cffd4 f i libucrt:argv_wildcards.obj
 0001:001cf87c       ??0_LocaleUpdate@@QEAA@QEAU__crt_locale_pointers@@@Z 00000001801d087c f i libucrt:argv_wildcards.obj
 0001:001cf918       __acrt_expand_narrow_argv_wildcards 00000001801d0918 f   libucrt:argv_wildcards.obj
 0001:001cf920       ??$__acrt_convert_wcs_mbs_cp@_WDV<lambda_f788ae46380686e8b737efdd8c720d07>@@U__crt_win32_buffer_no_resizing@@@@YAHQEB_WAEAV?$__crt_win32_buffer@DU__crt_win32_buffer_no_resizing@@@@AEBV<lambda_f788ae46380686e8b737efdd8c720d07>@@I@Z 00000001801d0920 f i libucrt:getmodulefilenamea.obj
 0001:001cfa3c       __acrt_GetModuleFileNameA  00000001801d0a3c f   libucrt:getmodulefilenamea.obj
 0001:001d0358       __acrt_initialize_multibyte 00000001801d1358 f   libucrt:mbctype.obj
 0001:001d03b8       __acrt_update_thread_multibyte_data 00000001801d13b8 f   libucrt:mbctype.obj
 0001:001d03d4       _setmbcp_nolock            00000001801d13d4 f   libucrt:mbctype.obj
 0001:001d0708       _ismbblead                 00000001801d1708 f   libucrt:ismbbyte.obj
 0001:001d071c       __acrt_initialize_command_line 00000001801d171c f   libucrt:argv_data.obj
 0001:001d0744       __acrt_MultiByteToWideChar 00000001801d1744 f   libucrt:multibytetowidechar.obj
 0001:001d07a0       __acrt_WideCharToMultiByte 00000001801d17a0 f   libucrt:widechartomultibyte.obj
 0001:001d0850       __dcrt_get_narrow_environment_from_os 00000001801d1850 f   libucrt:get_environment_from_os.obj
 0001:001d0960       _recalloc_base             00000001801d1960 f   libucrt:recalloc.obj
 0001:001d09f8       __acrt_initialize_heap     00000001801d19f8 f   libucrt:heap_handle.obj
 0001:001d0a14       __acrt_uninitialize_heap   00000001801d1a14 f   libucrt:heap_handle.obj
 0001:001d0a20       __acrt_execute_initializers 00000001801d1a20 f   libucrt:shared_initialization.obj
 0001:001d0ab4       __acrt_execute_uninitializers 00000001801d1ab4 f   libucrt:shared_initialization.obj
 0001:001d0afc       __acrt_initialize_new_handler 00000001801d1afc f   libucrt:new_handler.obj
 0001:001d0b04       _callnewh                  00000001801d1b04 f   libucrt:new_handler.obj
 0001:001d0b40       _query_new_handler         00000001801d1b40 f   libucrt:new_handler.obj
 0001:001d0bbc       __acrt_get_sigabrt_handler 00000001801d1bbc f   libucrt:signal.obj
 0001:001d0bec       __acrt_initialize_signal_handlers 00000001801d1bec f   libucrt:signal.obj
 0001:001d0c0c       raise                      00000001801d1c0c f   libucrt:signal.obj
 0001:001d0e8c       __acrt_has_user_matherr    00000001801d1e8c f   libucrt:matherr.obj
 0001:001d0eac       __acrt_initialize_user_matherr 00000001801d1eac f   libucrt:matherr.obj
 0001:001d0eb4       __acrt_invoke_user_matherr 00000001801d1eb4 f   libucrt:matherr.obj
 0001:001d0eec       __pctype_func              00000001801d1eec f   libucrt:ctype.obj
 0001:001d0f1c       _isctype_l                 00000001801d1f1c f   libucrt:isctype.obj
 0001:001d1040       _get_fpsr                  00000001801d2040 f   libucrt:fpsr.obj
 0001:001d1050       _set_fpsr                  00000001801d2050 f   libucrt:fpsr.obj
 0001:001d105a       _fclrf                     00000001801d205a f   libucrt:fpsr.obj
 0001:001d106e       _frnd                      00000001801d206e f   libucrt:fpsr.obj
 0001:001d1090       _query_new_mode            00000001801d2090 f   libucrt:new_mode.obj
 0001:001d1098       __acrt_DownlevelLocaleNameToLCID 00000001801d2098 f   libucrt:lcidtoname_downlevel.obj
 0001:001d1260       fclose                     00000001801d2260 f   libucrt:fclose.obj
 0001:001d1384       _commit                    00000001801d2384 f   libucrt:commit.obj
 0001:001d1c34       _write_internal            00000001801d2c34 f   libucrt:write.obj
 0001:001d1d5c       _write_nolock              00000001801d2d5c f   libucrt:write.obj
 0001:001d206c       __acrt_lowio_create_handle_array 00000001801d306c f   libucrt:osfinfo.obj
 0001:001d2114       __acrt_lowio_destroy_handle_array 00000001801d3114 f   libucrt:osfinfo.obj
 0001:001d2164       __acrt_lowio_ensure_fh_exists 00000001801d3164 f   libucrt:osfinfo.obj
 0001:001d220c       __acrt_lowio_lock_fh       00000001801d320c f   libucrt:osfinfo.obj
 0001:001d2234       __acrt_lowio_unlock_fh     00000001801d3234 f   libucrt:osfinfo.obj
 0001:001d225c       _free_osfhnd               00000001801d325c f   libucrt:osfinfo.obj
 0001:001d2318       _get_osfhandle             00000001801d3318 f   libucrt:osfinfo.obj
 0001:001d2390       __acrt_add_locale_ref      00000001801d3390 f   libucrt:locale_refcounting.obj
 0001:001d241c       __acrt_free_locale         00000001801d341c f   libucrt:locale_refcounting.obj
 0001:001d2594       __acrt_locale_add_lc_time_reference 00000001801d3594 f   libucrt:locale_refcounting.obj
 0001:001d25bc       __acrt_locale_free_lc_time_if_unreferenced 00000001801d35bc f   libucrt:locale_refcounting.obj
 0001:001d25f4       __acrt_locale_release_lc_time_reference 00000001801d35f4 f   libucrt:locale_refcounting.obj
 0001:001d261c       __acrt_release_locale_ref  00000001801d361c f   libucrt:locale_refcounting.obj
 0001:001d26c4       __acrt_update_thread_locale_data 00000001801d36c4 f   libucrt:locale_refcounting.obj
 0001:001d2734       _updatetlocinfoEx_nolock   00000001801d3734 f   libucrt:locale_refcounting.obj
 0001:001d279c       __acrt_fp_strflt_to_string 00000001801d379c f   libucrt:_fptostr.obj
 0001:001d2920       ?divide@__crt_strtox@@YA_KAEAUbig_integer@1@AEBU21@@Z 00000001801d3920 f i libucrt:cfout.obj
 0001:001d2dac       __acrt_fltout              00000001801d3dac f   libucrt:cfout.obj
 0001:001d4074       fegetround                 00000001801d5074 f   libucrt:fegetround.obj
 0001:001d4088       ?__c32rtomb_utf8@__crt_mbstring@@YA_KPEAD_UPEAU_Mbstatet@@AEAV__crt_cached_ptd_host@@@Z 00000001801d5088 f   libucrt:c32rtomb.obj
 0001:001d412c       ?__mbrtowc_utf8@__crt_mbstring@@YA_KPEA_WPEBD_KPEAU_Mbstatet@@AEAV__crt_cached_ptd_host@@@Z 00000001801d512c f   libucrt:mbrtowc.obj
 0001:001d4170       ?__mbsrtowcs_utf8@__crt_mbstring@@YA_KPEA_WPEAPEBD_KPEAU_Mbstatet@@AEAV__crt_cached_ptd_host@@@Z 00000001801d5170 f   libucrt:mbrtowc.obj
 0001:001d4488       __acrt_stdio_flush_and_write_narrow_nolock 00000001801d5488 f   libucrt:_flsbuf.obj
 0001:001d454c       _isatty                    00000001801d554c f   libucrt:isatty.obj
 0001:001d45ac       __acrt_locale_free_monetary 00000001801d55ac f   libucrt:initmon.obj
 0001:001d46b8       __acrt_locale_free_numeric 00000001801d56b8 f   libucrt:initnum.obj
 0001:001d4758       __acrt_locale_free_time    00000001801d5758 f   libucrt:inittime.obj
 0001:001d4860       __acrt_GetStringTypeA      00000001801d5860 f   libucrt:getstringtypea.obj
 0001:001d49fc       _raise_exc                 00000001801d59fc f   libucrt:fpexcept.obj
 0001:001d4a24       _raise_exc_ex              00000001801d5a24 f   libucrt:fpexcept.obj
 0001:001d4d34       _raise_excf                00000001801d5d34 f   libucrt:fpexcept.obj
 0001:001d4d60       _set_errno_from_matherr    00000001801d5d60 f   libucrt:fpexcept.obj
 0001:001d4d90       qsort                      00000001801d5d90 f   libucrt:qsort.obj
 0001:001d51a0       strncpy_s                  00000001801d61a0 f   libucrt:strncpy_s.obj
 0001:001d5330       strpbrk                    00000001801d6330 f   libucrt:strpbrk.obj
 0001:001d56f8       _mbsdec                    00000001801d66f8 f   libucrt:mbsdec.obj
 0001:001d5700       _mbsdec_l                  00000001801d6700 f   libucrt:mbsdec.obj
 0001:001d5ab4       __acrt_LCMapStringA        00000001801d6ab4 f   libucrt:lcmapstringa.obj
 0001:001d5b64       _msize_base                00000001801d6b64 f   libucrt:msize.obj
 0001:001d5ba0       _realloc_base              00000001801d6ba0 f   libucrt:realloc_base.obj
 0001:001d5c1c       __ascii_wcsnicmp           00000001801d6c1c f   libucrt:wcsnicmp.obj
 0001:001d5ce0       _close_internal            00000001801d6ce0 f   libucrt:close.obj
 0001:001d5da4       _close_nolock_internal     00000001801d6da4 f   libucrt:close.obj
 0001:001d5e74       ?__acrt_stdio_free_stream@@YAXV__crt_stdio_stream@@@Z 00000001801d6e74 f   libucrt:stream.obj
 0001:001d6064       _lseeki64                  00000001801d7064 f   libucrt:lseek.obj
 0001:001d6100       _lseeki64_nolock_internal  00000001801d7100 f   libucrt:lseek.obj
 0001:001d6108       _putwch_nolock             00000001801d7108 f   libucrt:putwch.obj
 0001:001d6144       _query_app_type            00000001801d7144 f   libucrt:report_runtime_error.obj
 0001:001d614c       _controlfp_s               00000001801d714c f   libucrt:contrlfp.obj
 0001:001d61b0       fegetenv                   00000001801d71b0 f   libucrt:fegetenv.obj
 0001:001d61d0       fesetenv                   00000001801d71d0 f   libucrt:fesetenv.obj
 0001:001d621c       feholdexcept               00000001801d721c f   libucrt:feholdexcept.obj
 0001:001d626c       ceil                       00000001801d726c f   libucrt:ceil.obj
 0001:001d6330       log10                      00000001801d7330 f   libucrt:log10.obj
 0001:001d68dc       __acrt_fenv_get_common_round_control 00000001801d78dc f   libucrt:_fenvutils.obj
 0001:001d68e8       __acrt_fenv_get_control    00000001801d78e8 f   libucrt:_fenvutils.obj
 0001:001d69cc       __acrt_fenv_get_status     00000001801d79cc f   libucrt:_fenvutils.obj
 0001:001d6a24       __acrt_fenv_set_control    00000001801d7a24 f   libucrt:_fenvutils.obj
 0001:001d6b60       __acrt_fenv_set_status     00000001801d7b60 f   libucrt:_fenvutils.obj
 0001:001d6bd4       ?reset_and_return@__crt_mbstring@@YA_K_KPEAU_Mbstatet@@@Z 00000001801d7bd4 f   libucrt:common_utf8.obj
 0001:001d6bdc       ?return_illegal_sequence@__crt_mbstring@@YA_KPEAU_Mbstatet@@AEAV__crt_cached_ptd_host@@@Z 00000001801d7bdc f   libucrt:common_utf8.obj
 0001:001d6bf0       ?__mbrtoc32_utf8@__crt_mbstring@@YA_KPEA_UPEBD_KPEAU_Mbstatet@@AEAV__crt_cached_ptd_host@@@Z 00000001801d7bf0 f   libucrt:mbrtoc32.obj
 0001:001d6dcc       __acrt_stdio_allocate_buffer_nolock 00000001801d7dcc f   libucrt:_getbuf.obj
 0001:001d6e38       __strncnt                  00000001801d7e38 f   libucrt:strncnt.obj
 0001:001d6e50       __dcrt_lowio_ensure_console_output_initialized 00000001801d7e50 f   libucrt:initcon.obj
 0001:001d6ea4       __dcrt_terminate_console_output 00000001801d7ea4 f   libucrt:initcon.obj
 0001:001d6ec0       __dcrt_write_console       00000001801d7ec0 f   libucrt:initcon.obj
 0001:001d6f80       _clearfp                   00000001801d7f80 f   libucrt:ieee.obj
 0001:001d6ff0       _control87                 00000001801d7ff0 f   libucrt:ieee.obj
 0001:001d72c0       _log10_special             00000001801d82c0 f   libucrt:log_special.obj
 0001:001d7380       _FindPESection             00000001801d8380 f   LIBCMT:pesect.obj
 0001:001d73d0       _IsNonwritableInCurrentImage 00000001801d83d0 f   LIBCMT:pesect.obj
 0001:001d7420       _ValidateImageBase         00000001801d8420 f   LIBCMT:pesect.obj
 0001:001d744c       __GSHandlerCheck           00000001801d844c f   LIBCMT:gshandler.obj
 0001:001d746c       __GSHandlerCheckCommon     00000001801d846c f   LIBCMT:gshandler.obj
 0001:001d74e0       __security_check_cookie    00000001801d84e0 f   LIBCMT:amdsecgs.obj
 0001:001d7500       __GSHandlerCheck_SEH       00000001801d8500 f   LIBCMT:gshandlerseh.obj
 0001:001d7588       __raise_securityfailure    00000001801d8588 f   LIBCMT:gs_report.obj
 0001:001d75bc       __report_gsfailure         00000001801d85bc f   LIBCMT:gs_report.obj
 0001:001d7690       __report_rangecheckfailure 00000001801d8690 f   LIBCMT:gs_report.obj
 0001:001d76a4       __report_securityfailure   00000001801d86a4 f   LIBCMT:gs_report.obj
 0001:001d7824       __GSHandlerCheck_EH        00000001801d8824 f   LIBCMT:gshandlereh.obj
 0001:001d78a4       __C_specific_handler_noexcept 00000001801d88a4 f   libvcruntime:chandler_noexcept.obj
 0001:001d78f0       strrchr                    00000001801d88f0 f   libvcruntime:strrchr.obj
 0001:001d7a40       memcmp                     00000001801d8a40 f   libvcruntime:memcmp.obj
 0001:001d7b20       _guard_dispatch_icall_nop  00000001801d8b20 f   LIBCMT:guard_dispatch.obj
 0001:001d7b40       _guard_xfg_dispatch_icall_nop 00000001801d8b40 f   LIBCMT:guard_xfg_dispatch.obj
 0002:00000000       __imp_GetLastError         00000001801da000     kernel32:KERNEL32.dll
 0002:00000008       __imp_FreeLibrary          00000001801da008     kernel32:KERNEL32.dll
 0002:00000010       __imp_GetProcAddress       00000001801da010     kernel32:KERNEL32.dll
 0002:00000018       __imp_LoadLibraryA         00000001801da018     kernel32:KERNEL32.dll
 0002:00000020       __imp_WriteConsoleW        00000001801da020     kernel32:KERNEL32.dll
 0002:00000028       __imp_RaiseException       00000001801da028     kernel32:KERNEL32.dll
 0002:00000030       __imp_GetSystemInfo        00000001801da030     kernel32:KERNEL32.dll
 0002:00000038       __imp_VirtualProtect       00000001801da038     kernel32:KERNEL32.dll
 0002:00000040       __imp_VirtualQuery         00000001801da040     kernel32:KERNEL32.dll
 0002:00000048       __imp_GetModuleHandleW     00000001801da048     kernel32:KERNEL32.dll
 0002:00000050       __imp_LoadLibraryExA       00000001801da050     kernel32:KERNEL32.dll
 0002:00000058       __imp_InitializeSListHead  00000001801da058     kernel32:KERNEL32.dll
 0002:00000060       __imp_RtlCaptureContext    00000001801da060     kernel32:KERNEL32.dll
 0002:00000068       __imp_RtlLookupFunctionEntry 00000001801da068     kernel32:KERNEL32.dll
 0002:00000070       __imp_RtlVirtualUnwind     00000001801da070     kernel32:KERNEL32.dll
 0002:00000078       __imp_IsDebuggerPresent    00000001801da078     kernel32:KERNEL32.dll
 0002:00000080       __imp_UnhandledExceptionFilter 00000001801da080     kernel32:KERNEL32.dll
 0002:00000088       __imp_SetUnhandledExceptionFilter 00000001801da088     kernel32:KERNEL32.dll
 0002:00000090       __imp_GetStartupInfoW      00000001801da090     kernel32:KERNEL32.dll
 0002:00000098       __imp_IsProcessorFeaturePresent 00000001801da098     kernel32:KERNEL32.dll
 0002:000000a0       __imp_QueryPerformanceCounter 00000001801da0a0     kernel32:KERNEL32.dll
 0002:000000a8       __imp_GetCurrentProcessId  00000001801da0a8     kernel32:KERNEL32.dll
 0002:000000b0       __imp_GetCurrentThreadId   00000001801da0b0     kernel32:KERNEL32.dll
 0002:000000b8       __imp_GetSystemTimeAsFileTime 00000001801da0b8     kernel32:KERNEL32.dll
 0002:000000c0       __imp_InterlockedPushEntrySList 00000001801da0c0     kernel32:KERNEL32.dll
 0002:000000c8       __imp_InterlockedFlushSList 00000001801da0c8     kernel32:KERNEL32.dll
 0002:000000d0       __imp_RtlUnwindEx          00000001801da0d0     kernel32:KERNEL32.dll
 0002:000000d8       __imp_SetLastError         00000001801da0d8     kernel32:KERNEL32.dll
 0002:000000e0       __imp_EnterCriticalSection 00000001801da0e0     kernel32:KERNEL32.dll
 0002:000000e8       __imp_LeaveCriticalSection 00000001801da0e8     kernel32:KERNEL32.dll
 0002:000000f0       __imp_DeleteCriticalSection 00000001801da0f0     kernel32:KERNEL32.dll
 0002:000000f8       __imp_InitializeCriticalSectionAndSpinCount 00000001801da0f8     kernel32:KERNEL32.dll
 0002:00000100       __imp_TlsAlloc             00000001801da100     kernel32:KERNEL32.dll
 0002:00000108       __imp_TlsGetValue          00000001801da108     kernel32:KERNEL32.dll
 0002:00000110       __imp_TlsSetValue          00000001801da110     kernel32:KERNEL32.dll
 0002:00000118       __imp_TlsFree              00000001801da118     kernel32:KERNEL32.dll
 0002:00000120       __imp_LoadLibraryExW       00000001801da120     kernel32:KERNEL32.dll
 0002:00000128       __imp_EncodePointer        00000001801da128     kernel32:KERNEL32.dll
 0002:00000130       __imp_RtlPcToFileHeader    00000001801da130     kernel32:KERNEL32.dll
 0002:00000138       __imp_RtlUnwind            00000001801da138     kernel32:KERNEL32.dll
 0002:00000140       __imp_GetCurrentProcess    00000001801da140     kernel32:KERNEL32.dll
 0002:00000148       __imp_ExitProcess          00000001801da148     kernel32:KERNEL32.dll
 0002:00000150       __imp_TerminateProcess     00000001801da150     kernel32:KERNEL32.dll
 0002:00000158       __imp_GetModuleHandleExW   00000001801da158     kernel32:KERNEL32.dll
 0002:00000160       __imp_GetModuleFileNameW   00000001801da160     kernel32:KERNEL32.dll
 0002:00000168       __imp_HeapAlloc            00000001801da168     kernel32:KERNEL32.dll
 0002:00000170       __imp_HeapFree             00000001801da170     kernel32:KERNEL32.dll
 0002:00000178       __imp_FlsAlloc             00000001801da178     kernel32:KERNEL32.dll
 0002:00000180       __imp_FlsGetValue          00000001801da180     kernel32:KERNEL32.dll
 0002:00000188       __imp_FlsSetValue          00000001801da188     kernel32:KERNEL32.dll
 0002:00000190       __imp_FlsFree              00000001801da190     kernel32:KERNEL32.dll
 0002:00000198       __imp_LCMapStringW         00000001801da198     kernel32:KERNEL32.dll
 0002:000001a0       __imp_GetStdHandle         00000001801da1a0     kernel32:KERNEL32.dll
 0002:000001a8       __imp_GetFileType          00000001801da1a8     kernel32:KERNEL32.dll
 0002:000001b0       __imp_FindClose            00000001801da1b0     kernel32:KERNEL32.dll
 0002:000001b8       __imp_FindFirstFileExW     00000001801da1b8     kernel32:KERNEL32.dll
 0002:000001c0       __imp_FindNextFileW        00000001801da1c0     kernel32:KERNEL32.dll
 0002:000001c8       __imp_IsValidCodePage      00000001801da1c8     kernel32:KERNEL32.dll
 0002:000001d0       __imp_GetACP               00000001801da1d0     kernel32:KERNEL32.dll
 0002:000001d8       __imp_GetOEMCP             00000001801da1d8     kernel32:KERNEL32.dll
 0002:000001e0       __imp_GetCPInfo            00000001801da1e0     kernel32:KERNEL32.dll
 0002:000001e8       __imp_GetCommandLineA      00000001801da1e8     kernel32:KERNEL32.dll
 0002:000001f0       __imp_GetCommandLineW      00000001801da1f0     kernel32:KERNEL32.dll
 0002:000001f8       __imp_MultiByteToWideChar  00000001801da1f8     kernel32:KERNEL32.dll
 0002:00000200       __imp_WideCharToMultiByte  00000001801da200     kernel32:KERNEL32.dll
 0002:00000208       __imp_GetEnvironmentStringsW 00000001801da208     kernel32:KERNEL32.dll
 0002:00000210       __imp_FreeEnvironmentStringsW 00000001801da210     kernel32:KERNEL32.dll
 0002:00000218       __imp_GetProcessHeap       00000001801da218     kernel32:KERNEL32.dll
 0002:00000220       __imp_FlushFileBuffers     00000001801da220     kernel32:KERNEL32.dll
 0002:00000228       __imp_WriteFile            00000001801da228     kernel32:KERNEL32.dll
 0002:00000230       __imp_GetConsoleOutputCP   00000001801da230     kernel32:KERNEL32.dll
 0002:00000238       __imp_GetConsoleMode       00000001801da238     kernel32:KERNEL32.dll
 0002:00000240       __imp_SetStdHandle         00000001801da240     kernel32:KERNEL32.dll
 0002:00000248       __imp_GetFileSizeEx        00000001801da248     kernel32:KERNEL32.dll
 0002:00000250       __imp_SetFilePointerEx     00000001801da250     kernel32:KERNEL32.dll
 0002:00000258       __imp_GetStringTypeW       00000001801da258     kernel32:KERNEL32.dll
 0002:00000260       __imp_HeapSize             00000001801da260     kernel32:KERNEL32.dll
 0002:00000268       __imp_HeapReAlloc          00000001801da268     kernel32:KERNEL32.dll
 0002:00000270       __imp_CloseHandle          00000001801da270     kernel32:KERNEL32.dll
 0002:00000278       __imp_CreateFileW          00000001801da278     kernel32:KERNEL32.dll
 0002:00000280       \177KERNEL32_NULL_THUNK_DATA 00000001801da280     kernel32:KERNEL32.dll
 0002:00000288       __guard_check_icall_fptr   00000001801da288     LIBCMT:guard_support.obj
 0002:00000290       __guard_xfg_check_icall_fptr 00000001801da290     LIBCMT:guard_support.obj
 0002:00000298       __guard_dispatch_icall_fptr 00000001801da298     LIBCMT:guard_support.obj
 0002:000002a0       __guard_xfg_dispatch_icall_fptr 00000001801da2a0     LIBCMT:guard_support.obj
 0002:000002a8       __guard_xfg_table_dispatch_icall_fptr 00000001801da2a8     LIBCMT:guard_support.obj
 0002:000002b0       __castguard_check_failure_os_handled_fptr 00000001801da2b0     LIBCMT:guard_support.obj
 0002:000002b8       __guard_memcpy_fptr        00000001801da2b8     libvcruntime:softmemtag.obj
 0002:000002c0       __xc_a                     00000001801da2c0     LIBCMT:initializers.obj
 0002:00001c98       __xc_z                     00000001801dbc98     LIBCMT:initializers.obj
 0002:00001ca0       __xi_a                     00000001801dbca0     LIBCMT:initializers.obj
 0002:00001ca8       __acrt_stdio_initializer   00000001801dbca8     libucrt:stdio_initializer.obj
 0002:00001cb0       __acrt_tran_fma3_initializer 00000001801dbcb0     libucrt:fma3_initializer.obj
 0002:00001cb8       __acrt_multibyte_initializer 00000001801dbcb8     libucrt:multibyte_initializer.obj
 0002:00001cc0       __xi_z                     00000001801dbcc0     LIBCMT:initializers.obj
 0002:00001cc8       __xp_a                     00000001801dbcc8     LIBCMT:initializers.obj
 0002:00001cd0       __acrt_locale_terminator   00000001801dbcd0     libucrt:locale_initializer.obj
 0002:00001cd8       __dcrt_console_output_terminator 00000001801dbcd8     libucrt:console_output_initializer.obj
 0002:00001ce0       __acrt_stdio_terminator    00000001801dbce0     libucrt:stdio_initializer.obj
 0002:00001ce8       __xp_z                     00000001801dbce8     LIBCMT:initializers.obj
 0002:00001cf0       __xt_a                     00000001801dbcf0     LIBCMT:initializers.obj
 0002:00001cf8       __xt_z                     00000001801dbcf8     LIBCMT:initializers.obj
 0002:00001d00       ??_C@_08MDGMHCHN@PtrTable@ 00000001801dbd00     CmPtrTable.obj
 0002:00001d0c       ??_C@_04GKJNKENE@void@     00000001801dbd0c     CmPtrTable.obj
 0002:00001d18       ??_C@_07DFEBJDHE@mSingle@  00000001801dbd18     CmPtrTable.obj
 0002:00001d20       ??_C@_05NLHHBMOH@PxU16@    00000001801dbd20     CmPtrTable.obj
 0002:00001d28       ??_C@_06EPKHJPIM@mCount@   00000001801dbd28     CmPtrTable.obj
 0002:00001d30       ??_C@_04DDKJGDCM@bool@     00000001801dbd30     CmPtrTable.obj
 0002:00001d38       ??_C@_0M@DAGELID@mOwnsMemory@ 00000001801dbd38     CmPtrTable.obj
 0002:00001d48       ??_C@_0M@MMPOMMLP@mBufferUsed@ 00000001801dbd48     CmPtrTable.obj
 0002:00001d54       ??_C@_05LMJPANIN@PxU32@    00000001801dbd54     CmPtrTable.obj
 0002:00001d60       ??_C@_09PMLNMEMN@mFreeSlot@ 00000001801dbd60     CmPtrTable.obj
 0002:00001d70       ??_7PxCollection@physx@@6B@ 00000001801dbd70     CmCollection.obj
 0002:00001df0       ??_C@_00CNPNBAHC@@         00000001801dbdf0     CmCollection.obj
 0002:00001df8       ??_7Collection@Cm@physx@@6B@ 00000001801dbdf8     CmCollection.obj
 0002:00001e80       ??_C@_0GE@GBACBMOC@PxCollection?3?3add?5called?5for?5an@ 00000001801dbe80     CmCollection.obj
 0002:00001ef0       ??_C@_0EK@IIEBOAIO@E?3?2Physx?2PhysX?9106?40?9physx?95?44?4@ 00000001801dbef0     CmCollection.obj
 0002:00001f40       ??_C@_0EM@OMMGDOMK@PxCollection?3?3add?5called?5with?5a@ 00000001801dbf40     CmCollection.obj
 0002:00001f90       ??_C@_0EM@JLMKKELK@E?3?2Physx?2PhysX?9106?40?9physx?95?44?4@ 00000001801dbf90     CmCollection.obj
 0002:00001fe0       ??_C@_0BM@OIFKLHDN@?$DMallocation?5names?5disabled?$DO@ 00000001801dbfe0     CmCollection.obj
 0002:00002000       ??_7RadixSort@Cm@physx@@6B@ 00000001801dc000     CmRadixSort.obj
 0002:00002008       ??_7RadixSortBuffered@Cm@physx@@6B@ 00000001801dc008     CmRadixSort.obj
 0002:00002010       ??_C@_0EJ@JBCKAKOJ@E?3?2Physx?2PhysX?9106?40?9physx?95?44?4@ 00000001801dc010     CmRadixSort.obj
 0002:00002060       __xmm@00000001000000010000000100000001 00000001801dc060     CmRadixSort.obj
 0002:00002070       __xmm@00000003000000020000000100000000 00000001801dc070     CmRadixSort.obj
 0002:00002080       __real@3d4ccccd            00000001801dc080     CmVisualization.obj
 0002:00002084       __real@3e19999a            00000001801dc084     CmVisualization.obj
 0002:00002088       __real@3e490fdb            00000001801dc088     CmVisualization.obj
 0002:0000208c       __real@3e800000            00000001801dc08c     CmVisualization.obj
 0002:00002090       __real@3e99999a            00000001801dc090     CmVisualization.obj
 0002:00002094       __real@3ea0d97c            00000001801dc094     CmVisualization.obj
 0002:00002098       __real@3eddb3d7            00000001801dc098     CmVisualization.obj
 0002:0000209c       __real@3f3504f3            00000001801dc09c     CmVisualization.obj
 0002:000020a0       __real@3f800000            00000001801dc0a0     CmVisualization.obj
 0002:000020a4       __real@3fc00000            00000001801dc0a4     CmVisualization.obj
 0002:000020a8       __real@3fddb3d7            00000001801dc0a8     CmVisualization.obj
 0002:000020ac       __real@40100000            00000001801dc0ac     CmVisualization.obj
 0002:000020b0       __real@40c90fdb            00000001801dc0b0     CmVisualization.obj
 0002:000020b4       __real@bfddb3d7            00000001801dc0b4     CmVisualization.obj
 0002:000020b8       __real@c0000000            00000001801dc0b8     CmVisualization.obj
 0002:000020c0       __xmm@3f800000000000000000000000000000 00000001801dc0c0     CmVisualization.obj
 0002:000020d0       __xmm@7fffffff7fffffff7fffffff7fffffff 00000001801dc0d0     CmVisualization.obj
 0002:000020e0       __xmm@80000000800000008000000080000000 00000001801dc0e0     CmVisualization.obj
 0002:000020f0       ??_C@_0BB@CPDDPFKD@GetUpdatedModule@ 00000001801dc0f0     CmWindowsModuleUpdateLoader.obj
 0002:00002110       ??_C@_0GB@HGNAHDLK@E?3?2Physx?2PhysX?9106?40?9physx?95?44?4@ 00000001801dc110     CmWindowsModuleUpdateLoader.obj
 0002:00002178       ??_C@_0CP@PGOIOJOO@?$CFs?3?$CFi?3?5loadLibrary?5error?5when?5l@ 00000001801dc178     CmWindowsModuleUpdateLoader.obj
 0002:000021a8       ??_C@_0BA@EGLNOO@PhysXFoundation@ 00000001801dc1a8     CmWindowsDelayLoadHook.obj
 0002:000021b8       ??_C@_0M@ILKNCJKN@PhysXCommon@ 00000001801dc1b8     CmWindowsDelayLoadHook.obj
 0002:000021f0       __real@3f000000            00000001801dc1f0     GuBox.obj
 0002:000021f4       __real@3f7ff972            00000001801dc1f4     GuBox.obj
 0002:00002200       __xmm@000000003a83126f3a83126f3a83126f 00000001801dc200     GuBox.obj
 0002:00002210       __xmm@00000000ba83126fba83126fba83126f 00000001801dc210     GuBox.obj
 0002:00002220       __xmm@3a83126f3a83126f3a83126f3a83126f 00000001801dc220     GuBox.obj
 0002:00002230       __xmm@ba83126fba83126fba83126fba83126f 00000001801dc230     GuBox.obj
 0002:00002260       ??_7EntityReport@Gu@physx@@6B@ 00000001801dc260     GuSweepsHF.obj
 0002:00002260       ??_7OverlapCallback@PxBVH@physx@@6B@ 00000001801dc260     GuQuerySystem.obj
 0002:00002260       ??_7OverlapReport@Gu@physx@@6B@ 00000001801dc260     GuCCTSweepTests.obj
 0002:00002260       ??_7RaycastCallback@PxBVH@physx@@6B@ 00000001801dc260     GuQuerySystem.obj
 0002:00002260       ??_7RemapCallback@RTreeCooker@physx@@6B@ 00000001801dc260     GuCookingTriangleMesh.obj
 0002:00002280       __real@3b03126f            00000001801dc280     GuCCTSweepTests.obj
 0002:00002284       __real@40000000            00000001801dc284     GuCCTSweepTests.obj
 0002:000022c0       ??_7SupportLocal@Gu@physx@@6B@ 00000001801dc2c0     GuGeometryQuery.obj
 0002:000022e0       ??_7?$SupportLocalImpl@VBoxV@Gu@physx@@@Gu@physx@@6B@ 00000001801dc2e0     GuGeometryQuery.obj
 0002:00002300       ??_7?$SupportLocalImpl@VConvexHullV@Gu@physx@@@Gu@physx@@6B@ 00000001801dc300     GuGeometryQuery.obj
 0002:00002320       ??_C@_0EE@OAFBPKOA@E?3?2Physx?2PhysX?9106?40?9physx?95?44?4@ 00000001801dc320     GuGeometryQuery.obj
 0002:00002364       __real@30d1b7e9            00000001801dc364     GuGeometryQuery.obj
 0002:00002368       __real@322bcc77            00000001801dc368     GuGeometryQuery.obj
 0002:0000236c       __real@358637bd            00000001801dc36c     GuGeometryQuery.obj
 0002:00002370       __real@3a83126f            00000001801dc370     GuGeometryQuery.obj
 0002:00002374       __real@3ccccccd            00000001801dc374     GuGeometryQuery.obj
 0002:00002378       __real@3dcccccd            00000001801dc378     GuGeometryQuery.obj
 0002:0000237c       __real@49742400            00000001801dc37c     GuGeometryQuery.obj
 0002:00002380       __real@7f7fffff            00000001801dc380     GuGeometryQuery.obj
 0002:00002384       __real@bf800000            00000001801dc384     GuGeometryQuery.obj
 0002:00002390       __xmm@0000000000000000000000003f800000 00000001801dc390     GuGeometryQuery.obj
 0002:000023a0       __xmm@00000000000000003f80000000000000 00000001801dc3a0     GuGeometryQuery.obj
 0002:000023b0       __xmm@00000000000000003f8000003f800000 00000001801dc3b0     GuGeometryQuery.obj
 0002:000023c0       __xmm@000000003f8000000000000000000000 00000001801dc3c0     GuGeometryQuery.obj
 0002:000023d0       __xmm@000000003f8000003f8000003f800000 00000001801dc3d0     GuGeometryQuery.obj
 0002:000023e0       __xmm@00000000ffffffffffffffffffffffff 00000001801dc3e0     GuGeometryQuery.obj
 0002:000023f0       __xmm@3d4ccccd3d4ccccd3d4ccccd3d4ccccd 00000001801dc3f0     GuGeometryQuery.obj
 0002:00002400       __xmm@3e19999a3e19999a3e19999a3e19999a 00000001801dc400     GuGeometryQuery.obj
 0002:00002410       __xmm@3e4ccccd3e4ccccd3e4ccccd3e4ccccd 00000001801dc410     GuGeometryQuery.obj
 0002:00002420       __xmm@3e8000003e8000003e8000003e800000 00000001801dc420     GuGeometryQuery.obj
 0002:00002430       __xmm@3f7ef9db3f7ef9db3f7ef9db3f7ef9db 00000001801dc430     GuGeometryQuery.obj
 0002:00002440       __xmm@3f7ff2e53f7ff2e53f7ff2e53f7ff2e5 00000001801dc440     GuGeometryQuery.obj
 0002:00002450       __xmm@7f7fffff7f7fffff7f7fffff7f7fffff 00000001801dc450     GuGeometryQuery.obj
 0002:00002460       __xmm@bf000000bf000000bf000000bf000000 00000001801dc460     GuGeometryQuery.obj
 0002:00002490       ??_C@_0EO@ENOHLINL@E?3?2Physx?2PhysX?9106?40?9physx?95?44?4@ 00000001801dc490     GuMeshFactory.obj
 0002:000024f0       ??_C@_0EM@BDFDGBD@Inserting?5object?5failed?3?5Object@ 00000001801dc4f0     GuMeshFactory.obj
 0002:00002560       ??_7CallbackRaycast@RTree@Gu@physx@@6B@ 00000001801dc560     GuMidphaseRTree.obj
 0002:00002560       ??_7CallbackRefit@RTree@Gu@physx@@6B@ 00000001801dc560     GuTriangleMeshRTree.obj
 0002:00002560       ??_7PxInsertionCallback@physx@@6B@ 00000001801dc560     GuMeshFactory.obj
 0002:00002570       ??_7PxCollisionMeshMappingData@physx@@6B@ 00000001801dc570     GuMeshFactory.obj
 0002:00002580       ??_7MeshFactory@Gu@physx@@6B@ 00000001801dc580     GuMeshFactory.obj
 0002:00002588       ??_7MeshDataBase@Gu@physx@@6B@ 00000001801dc588     GuMeshFactory.obj
 0002:00002590       ??_C@_0EO@KDDBLGFM@E?3?2Physx?2PhysX?9106?40?9physx?95?44?4@ 00000001801dc590     GuMeshFactory.obj
 0002:000025e0       ??_7TriangleMeshData@Gu@physx@@6B@ 00000001801dc5e0     GuMeshFactory.obj
 0002:000025e8       ??_7RTreeTriangleData@Gu@physx@@6B@ 00000001801dc5e8     GuMeshFactory.obj
 0002:000025f0       ??_7BV4TriangleData@Gu@physx@@6B@ 00000001801dc5f0     GuMeshFactory.obj
 0002:000025f8       ??_7SoftBodyCollisionData@Gu@physx@@6B@ 00000001801dc5f8     GuMeshFactory.obj
 0002:00002600       ??_7CollisionMeshMappingData@Gu@physx@@6B@ 00000001801dc600     GuMeshFactory.obj
 0002:00002610       ??_7SoftBodySimulationData@Gu@physx@@6B@ 00000001801dc610     GuMeshFactory.obj
 0002:00002620       ??_C@_0GP@NHELMDAL@Loading?5triangle?5mesh?5failed?3?5D@ 00000001801dc620     GuMeshFactory.obj
 0002:00002690       ??_C@_0BP@CDOKDACA@RTree?5binary?5image?5load?5error?4@ 00000001801dc690     GuMeshFactory.obj
 0002:000026b0       ??_C@_0BN@MJPNIELF@BV4?5binary?5image?5load?5error?4@ 00000001801dc6b0     GuMeshFactory.obj
 0002:000026d0       ??_C@_0BO@JDPABAOF@BV32?5binary?5image?5load?5error?4@ 00000001801dc6d0     GuMeshFactory.obj
 0002:000026f0       ??_C@_0EE@OJDMPDJJ@E?3?2Physx?2PhysX?9106?40?9physx?95?44?4@ 00000001801dc6f0     GuMeshFactory.obj
 0002:00002740       __xmm@fe7fffff7e7fffff7e7fffff7e7fffff 00000001801dc740     GuMeshFactory.obj
 0002:00002770       ??_C@_06EJKDJEDO@PxBase@   00000001801dc770     GuMetaData.obj
 0002:00002778       ??_C@_07GFCEJNGM@Valency@  00000001801dc778     GuMetaData.obj
 0002:00002780       ??_C@_07NHGKEEIN@mOffset@  00000001801dc780     GuMetaData.obj
 0002:00002788       ??_C@_0BB@BAGHBMNJ@BigConvexRawData@ 00000001801dc788     GuMetaData.obj
 0002:000027a0       ??_C@_07PBDEJAAC@mSubdiv@  00000001801dc7a0     GuMetaData.obj
 0002:000027a8       ??_C@_0L@HNPACPGH@mNbSamples@ 00000001801dc7a8     GuMetaData.obj
 0002:000027b4       ??_C@_04NCKNBPPK@PxU8@     00000001801dc7b4     GuMetaData.obj
 0002:000027c0       ??_C@_08DEPEKJNI@mSamples@ 00000001801dc7c0     GuMetaData.obj
 0002:000027d0       ??_C@_08IJDNJBMI@mNbVerts@ 00000001801dc7d0     GuMetaData.obj
 0002:000027e0       ??_C@_0M@MMKMIJAF@mNbAdjVerts@ 00000001801dc7e0     GuMetaData.obj
 0002:000027f0       ??_C@_0L@EOKMNILC@mValencies@ 00000001801dc7f0     GuMetaData.obj
 0002:00002800       ??_C@_0P@DLGEAMHJ@mAdjacentVerts@ 00000001801dc800     GuMetaData.obj
 0002:00002810       ??_C@_04GGOEHDKB@Dim3@     00000001801dc810     GuMetaData.obj
 0002:00002818       ??_C@_01FJMABOPO@x@        00000001801dc818     GuMetaData.obj
 0002:0000281c       ??_C@_01EANLCPLP@y@        00000001801dc81c     GuMetaData.obj
 0002:00002820       ??_C@_01GLPGHMHM@z@        00000001801dc820     GuMetaData.obj
 0002:00002824       ??_C@_03NGLDENDA@SDF@      00000001801dc824     GuMetaData.obj
 0002:00002828       ??_C@_06KDGGGLIJ@PxVec3@   00000001801dc828     GuMetaData.obj
 0002:00002830       ??_C@_0L@COALOJDH@mMeshLower@ 00000001801dc830     GuMetaData.obj
 0002:0000283c       ??_C@_06GIEBFILM@PxReal@   00000001801dc83c     GuMetaData.obj
 0002:00002848       ??_C@_08LAPKNLAN@mSpacing@ 00000001801dc848     GuMetaData.obj
 0002:00002854       ??_C@_05FFBHHGJO@mDims@    00000001801dc854     GuMetaData.obj
 0002:00002860       ??_C@_08BEIPGJN@mNumSdfs@  00000001801dc860     GuMetaData.obj
 0002:0000286c       ??_C@_04PNLOLEIP@mSdf@     00000001801dc86c     GuMetaData.obj
 0002:00002878       ??_C@_0N@ILJLOAFB@mSubgridSize@ 00000001801dc878     GuMetaData.obj
 0002:00002888       ??_C@_0P@EMNLEPPL@mNumStartSlots@ 00000001801dc888     GuMetaData.obj
 0002:00002898       ??_C@_0BD@BIMMHJEO@mSubgridStartSlots@ 00000001801dc898     GuMetaData.obj
 0002:000028b0       ??_C@_0BA@OKNFKLGG@mNumSubgridSdfs@ 00000001801dc8b0     GuMetaData.obj
 0002:000028c0       ??_C@_0M@PGCPOAID@mSubgridSdf@ 00000001801dc8c0     GuMetaData.obj
 0002:000028d0       ??_C@_0BK@KJPHDIOI@mSdfSubgrids3DTexBlockDim@ 00000001801dc8d0     GuMetaData.obj
 0002:000028f0       ??_C@_0BF@PONLKCNL@mSubgridsMinSdfValue@ 00000001801dc8f0     GuMetaData.obj
 0002:00002908       ??_C@_0BF@GOKILCDB@mSubgridsMaxSdfValue@ 00000001801dc908     GuMetaData.obj
 0002:00002920       ??_C@_0BF@NMEHBGBK@mBytesPerSparsePixel@ 00000001801dc920     GuMetaData.obj
 0002:00002938       ??_C@_0O@PFOPBKAM@BigConvexData@ 00000001801dc938     GuMetaData.obj
 0002:00002948       ??_C@_05PLKALGFN@mData@    00000001801dc948     GuMetaData.obj
 0002:00002950       ??_C@_08PEMCLHEM@mVBuffer@ 00000001801dc950     GuMetaData.obj
 0002:00002960       ??_C@_09FBMAGD@Alignment@  00000001801dc960     GuMetaData.obj
 0002:00002970       ??_C@_0BE@KFHIBEEA@InternalObjectsData@ 00000001801dc970     GuMetaData.obj
 0002:00002988       ??_C@_0BB@FGDFDKPC@mInternalExtents@ 00000001801dc988     GuMetaData.obj
 0002:000029a0       ??_C@_0BA@LMFGPCMM@mInternalRadius@ 00000001801dc9a0     GuMetaData.obj
 0002:000029b0       ??_C@_0BA@LFMGGCBK@HullPolygonData@ 00000001801dc9b0     GuMetaData.obj
 0002:000029c0       ??_C@_06BOHHGLB@mPlane@    00000001801dc9c0     GuMetaData.obj
 0002:000029c8       ??_C@_06EHMLHGLN@mVRef8@   00000001801dc9c8     GuMetaData.obj
 0002:000029d0       ??_C@_09BAHHHINI@mMinIndex@ 00000001801dc9d0     GuMetaData.obj
 0002:000029e0       ??_C@_0P@GBLBPIPB@ConvexHullData@ 00000001801dc9e0     GuMetaData.obj
 0002:000029f0       ??_C@_09JDCJAPKD@PxBounds3@ 00000001801dc9f0     GuMetaData.obj
 0002:000029fc       ??_C@_05NDNHIFA@mAABB@     00000001801dc9fc     GuMetaData.obj
 0002:00002a08       ??_C@_0O@LNOGEMJI@mCenterOfMass@ 00000001801dca08     GuMetaData.obj
 0002:00002a18       ??_C@_09CNMCBBKH@mPolygons@ 00000001801dca18     GuMetaData.obj
 0002:00002a28       ??_C@_0BC@KKPDCFJC@mBigConvexRawData@ 00000001801dca28     GuMetaData.obj
 0002:00002a40       ??_C@_08MPNAAJLD@mSdfData@ 00000001801dca40     GuMetaData.obj
 0002:00002a50       ??_C@_08ELDMKGKH@mNbEdges@ 00000001801dca50     GuMetaData.obj
 0002:00002a60       ??_C@_0BA@CGLOHBAC@mNbHullVertices@ 00000001801dca60     GuMetaData.obj
 0002:00002a70       ??_C@_0M@HGFFLLDM@mNbPolygons@ 00000001801dca70     GuMetaData.obj
 0002:00002a80       ??_C@_09BHJEMDGO@mInternal@ 00000001801dca80     GuMetaData.obj
 0002:00002a90       ??_C@_0L@GMFHOMKA@ConvexMesh@ 00000001801dca90     GuMetaData.obj
 0002:00002aa0       ??_C@_09ILEBDLJH@mHullData@ 00000001801dcaa0     GuMetaData.obj
 0002:00002aac       ??_C@_03DKDIKGNC@mNb@      00000001801dcaac     GuMetaData.obj
 0002:00002ab0       ??_C@_0P@ENLHFHMD@mBigConvexData@ 00000001801dcab0     GuMetaData.obj
 0002:00002ac0       ??_C@_05ILALLCHK@mMass@    00000001801dcac0     GuMetaData.obj
 0002:00002ac8       ??_C@_07DBPDADGB@PxMat33@  00000001801dcac8     GuMetaData.obj
 0002:00002ad0       ??_C@_08FNBHNDBI@mInertia@ 00000001801dcad0     GuMetaData.obj
 0002:00002ae0       ??_C@_0O@FCKNKLMJ@GuMeshFactory@ 00000001801dcae0     GuMetaData.obj
 0002:00002af0       ??_C@_0N@EGBCLMAK@mMeshFactory@ 00000001801dcaf0     GuMetaData.obj
 0002:00002b00       ??_C@_0BE@CJJAMAMK@PxHeightFieldSample@ 00000001801dcb00     GuMetaData.obj
 0002:00002b14       ??_C@_05MBLIPEMA@PxI16@    00000001801dcb14     GuMetaData.obj
 0002:00002b1c       ??_C@_06LNLHEAAG@height@   00000001801dcb1c     GuMetaData.obj
 0002:00002b28       ??_C@_0N@HHDGHJN@PxBitAndByte@ 00000001801dcb28     GuMetaData.obj
 0002:00002b38       ??_C@_0P@MBBMLBO@materialIndex0@ 00000001801dcb38     GuMetaData.obj
 0002:00002b48       ??_C@_0P@BFAKPKFP@materialIndex1@ 00000001801dcb48     GuMetaData.obj
 0002:00002b58       ??_C@_0BD@EBLPJEOE@PxHeightFieldFlags@ 00000001801dcb58     GuMetaData.obj
 0002:00002b70       ??_C@_0BK@FNNCFFCN@PxHeightFieldFormat?3?3Enum@ 00000001801dcb70     GuMetaData.obj
 0002:00002b90       ??_C@_0BA@CLNFMAAA@HeightFieldData@ 00000001801dcb90     GuMetaData.obj
 0002:00002ba0       ??_C@_04IMCGAIPI@rows@     00000001801dcba0     GuMetaData.obj
 0002:00002ba8       ??_C@_07HIFEPIJN@columns@  00000001801dcba8     GuMetaData.obj
 0002:00002bb0       ??_C@_08MOAGOABI@rowLimit@ 00000001801dcbb0     GuMetaData.obj
 0002:00002bc0       ??_C@_08BAGEHOBO@colLimit@ 00000001801dcbc0     GuMetaData.obj
 0002:00002bd0       ??_C@_09LKDBLADF@nbColumns@ 00000001801dcbd0     GuMetaData.obj
 0002:00002be0       ??_C@_07ODIFGGLK@samples@  00000001801dcbe0     GuMetaData.obj
 0002:00002be8       ??_C@_0BE@POHEGOJG@convexEdgeThreshold@ 00000001801dcbe8     GuMetaData.obj
 0002:00002bfc       ??_C@_05GECEPKB@flags@     00000001801dcbfc     GuMetaData.obj
 0002:00002c04       ??_C@_06DLEPGFEF@format@   00000001801dcc04     GuMetaData.obj
 0002:00002c10       ??_C@_0BF@MOGDNMPL@PxMaterialTableIndex@ 00000001801dcc10     GuMetaData.obj
 0002:00002c28       ??_C@_0M@JMJICJJO@HeightField@ 00000001801dcc28     GuMetaData.obj
 0002:00002c38       ??_C@_0O@ENGHMLJP@mSampleStride@ 00000001801dcc38     GuMetaData.obj
 0002:00002c48       ??_C@_0L@EBEEMFFB@mMinHeight@ 00000001801dcc48     GuMetaData.obj
 0002:00002c58       ??_C@_0L@EAEIFPOF@mMaxHeight@ 00000001801dcc58     GuMetaData.obj
 0002:00002c68       ??_C@_0N@FEFJOKKE@mModifyCount@ 00000001801dcc68     GuMetaData.obj
 0002:00002c78       ??_C@_09PHDKHCK@RTreePage@ 00000001801dcc78     GuMetaData.obj
 0002:00002c84       ??_C@_04LLPOBGED@minx@     00000001801dcc84     GuMetaData.obj
 0002:00002c8c       ??_C@_04KCOFCHAC@miny@     00000001801dcc8c     GuMetaData.obj
 0002:00002c94       ??_C@_04IJMIHEMB@minz@     00000001801dcc94     GuMetaData.obj
 0002:00002c9c       ??_C@_04GGOBOBGO@maxx@     00000001801dcc9c     GuMetaData.obj
 0002:00002ca4       ??_C@_04HPPKNACP@maxy@     00000001801dcca4     GuMetaData.obj
 0002:00002cac       ??_C@_04FENHIDOM@maxz@     00000001801dccac     GuMetaData.obj
 0002:00002cb4       ??_C@_04HHDFEJON@ptrs@     00000001801dccb4     GuMetaData.obj
 0002:00002cbc       ??_C@_05FFEIGAJF@RTree@    00000001801dccbc     GuMetaData.obj
 0002:00002cc4       ??_C@_06OMCHPNEO@PxVec4@   00000001801dccc4     GuMetaData.obj
 0002:00002cd0       ??_C@_0L@NBIFEFLN@mBoundsMin@ 00000001801dccd0     GuMetaData.obj
 0002:00002ce0       ??_C@_0L@MDAOKBNC@mBoundsMax@ 00000001801dcce0     GuMetaData.obj
 0002:00002cf0       ??_C@_0N@NJEHLCOF@mInvDiagonal@ 00000001801dccf0     GuMetaData.obj
 0002:00002d00       ??_C@_0BA@BEFIGPFG@mDiagonalScaler@ 00000001801dcd00     GuMetaData.obj
 0002:00002d10       ??_C@_09DICGGKGO@mPageSize@ 00000001801dcd10     GuMetaData.obj
 0002:00002d20       ??_C@_0O@BOFFCNOL@mNumRootPages@ 00000001801dcd20     GuMetaData.obj
 0002:00002d30       ??_C@_0L@JKLGBKAE@mNumLevels@ 00000001801dcd30     GuMetaData.obj
 0002:00002d40       ??_C@_0M@PHDOHJGK@mTotalNodes@ 00000001801dcd40     GuMetaData.obj
 0002:00002d50       ??_C@_0M@GDGHALAO@mTotalPages@ 00000001801dcd50     GuMetaData.obj
 0002:00002d5c       ??_C@_06MHCBBJGP@mFlags@   00000001801dcd5c     GuMetaData.obj
 0002:00002d64       ??_C@_06MMNBLHOK@mPages@   00000001801dcd64     GuMetaData.obj
 0002:00002d70       ??_C@_0P@JNLGHJNH@SourceMeshBase@ 00000001801dcd70     GuMetaData.obj
 0002:00002d80       ??_C@_06JFCLJMNN@mVerts@   00000001801dcd80     GuMetaData.obj
 0002:00002d88       ??_C@_05GNIIDDHH@mType@    00000001801dcd88     GuMetaData.obj
 0002:00002d90       ??_C@_06DHAAKLFK@mRemap@   00000001801dcd90     GuMetaData.obj
 0002:00002d98       ??_C@_0L@LEOGNOEC@SourceMesh@ 00000001801dcd98     GuMetaData.obj
 0002:00002da8       ??_C@_07MPIKOOAP@mNbTris@  00000001801dcda8     GuMetaData.obj
 0002:00002db0       ??_C@_0N@FBMOMEHF@mTriangles32@ 00000001801dcdb0     GuMetaData.obj
 0002:00002dc0       ??_C@_0N@DGCGNFBP@mTriangles16@ 00000001801dcdc0     GuMetaData.obj
 0002:00002dd0       ??_C@_0O@NLNHFNO@QuantizedAABB@ 00000001801dcdd0     GuMetaData.obj
 0002:00002de0       ??_C@_0BC@OOGBEMHH@mData?$FL0?$FN?4mExtents@ 00000001801dcde0     GuMetaData.obj
 0002:00002df8       ??_C@_0BB@OCEDKIEF@mData?$FL0?$FN?4mCenter@ 00000001801dcdf8     GuMetaData.obj
 0002:00002e10       ??_C@_0BC@HFMEAABI@mData?$FL1?$FN?4mExtents@ 00000001801dce10     GuMetaData.obj
 0002:00002e28       ??_C@_0BB@CDMNHHIF@mData?$FL1?$FN?4mCenter@ 00000001801dce28     GuMetaData.obj
 0002:00002e40       ??_C@_0BC@CFKNCOI@mData?$FL2?$FN?4mExtents@ 00000001801dce40     GuMetaData.obj
 0002:00002e58       ??_C@_0BB@LKCPBBIE@mData?$FL2?$FN?4mCenter@ 00000001801dce58     GuMetaData.obj
 0002:00002e70       ??_C@_0O@MJJKKPFN@BVDataPackedQ@ 00000001801dce70     GuMetaData.obj
 0002:00002e80       ??_C@_0O@JFMLAIPJ@CenterExtents@ 00000001801dce80     GuMetaData.obj
 0002:00002e90       ??_C@_07GNKDIIKJ@mCenter@  00000001801dce90     GuMetaData.obj
 0002:00002e98       ??_C@_08EHFCACAE@mExtents@ 00000001801dce98     GuMetaData.obj
 0002:00002ea8       ??_C@_0P@KBMJDPLO@BVDataPackedNQ@ 00000001801dcea8     GuMetaData.obj
 0002:00002eb8       ??_C@_0M@PNCEBOG@LocalBounds@ 00000001801dceb8     GuMetaData.obj
 0002:00002ec4       ??_C@_05KNFBNCOH@float@    00000001801dcec4     GuMetaData.obj
 0002:00002ed0       ??_C@_0BC@LADJKHPL@mExtentsMagnitude@ 00000001801dced0     GuMetaData.obj
 0002:00002ee8       ??_C@_07HELIOLAF@BV4Tree@  00000001801dcee8     GuMetaData.obj
 0002:00002ef0       ??_C@_0P@EMMDNPMH@mMeshInterface@ 00000001801dcef0     GuMetaData.obj
 0002:00002f00       ??_C@_0N@DCKMHLCL@mLocalBounds@ 00000001801dcf00     GuMetaData.obj
 0002:00002f10       ??_C@_08EEJOMIJL@mNbNodes@ 00000001801dcf10     GuMetaData.obj
 0002:00002f1c       ??_C@_06FIIIMFIO@mNodes@   00000001801dcf1c     GuMetaData.obj
 0002:00002f28       ??_C@_09FGKNPI@mInitData@  00000001801dcf28     GuMetaData.obj
 0002:00002f38       ??_C@_0BC@CLDEHKCO@mCenterOrMinCoeff@ 00000001801dcf38     GuMetaData.obj
 0002:00002f50       ??_C@_0BD@LAOLBNJ@mExtentsOrMaxCoeff@ 00000001801dcf50     GuMetaData.obj
 0002:00002f68       ??_C@_0P@JEECKKBL@mUserAllocated@ 00000001801dcf68     GuMetaData.obj
 0002:00002f78       ??_C@_0L@GLIMNECG@mQuantized@ 00000001801dcf78     GuMetaData.obj
 0002:00002f88       ??_C@_0L@CCOJDAID@mIsEdgeSet@ 00000001801dcf88     GuMetaData.obj
 0002:00002f98       ??_C@_08BNDBAGDH@mPadding@ 00000001801dcf98     GuMetaData.obj
 0002:00002fa8       ??_C@_0N@OJNNNLIB@TriangleMesh@ 00000001801dcfa8     GuMetaData.obj
 0002:00002fb8       ??_C@_0M@OGEDMEAL@mNbVertices@ 00000001801dcfb8     GuMetaData.obj
 0002:00002fc8       ??_C@_0N@MGGDNHNI@mNbTriangles@ 00000001801dcfc8     GuMetaData.obj
 0002:00002fd8       ??_C@_09LNNEGOJA@mVertices@ 00000001801dcfd8     GuMetaData.obj
 0002:00002fe8       ??_C@_0L@KBOFAKLO@mTriangles@ 00000001801dcfe8     GuMetaData.obj
 0002:00002ff8       ??_C@_0P@MHDFIHLD@mExtraTrigData@ 00000001801dcff8     GuMetaData.obj
 0002:00003008       ??_C@_0N@MGIKKCI@mGeomEpsilon@ 00000001801dd008     GuMetaData.obj
 0002:00003018       ??_C@_0BB@IFLOOCNA@mMaterialIndices@ 00000001801dd018     GuMetaData.obj
 0002:00003030       ??_C@_0L@OPJMBFMI@mFaceRemap@ 00000001801dd030     GuMetaData.obj
 0002:00003040       ??_C@_0N@BIOECAPM@mAdjacencies@ 00000001801dd040     GuMetaData.obj
 0002:00003050       ??_C@_09CICJHLPI@mEdgeList@ 00000001801dd050     GuMetaData.obj
 0002:00003060       ??_C@_0BD@IPKCNNIK@mLocalCenterOfMass@ 00000001801dd060     GuMetaData.obj
 0002:00003078       ??_C@_0BA@OCOIGPII@mGRB_triIndices@ 00000001801dd078     GuMetaData.obj
 0002:00003088       ??_C@_0BE@JPINNDAH@mGRB_triAdjacencies@ 00000001801dd088     GuMetaData.obj
 0002:000030a0       ??_C@_0P@EDFJJHEF@mGRB_faceRemap@ 00000001801dd0a0     GuMetaData.obj
 0002:000030b0       ??_C@_0BG@EEALPPCP@mGRB_faceRemapInverse@ 00000001801dd0b0     GuMetaData.obj
 0002:000030c8       ??_C@_0N@NAKPIGJP@Gu?3?3BV32Tree@ 00000001801dd0c8     GuMetaData.obj
 0002:000030d8       ??_C@_0O@CKMBAIFN@mGRB_BV32Tree@ 00000001801dd0d8     GuMetaData.obj
 0002:000030e8       ??_C@_0BJ@LEBGJKBE@mAccumulatedTrianglesRef@ 00000001801dd0e8     GuMetaData.obj
 0002:00003108       ??_C@_0BF@OJMCNCDP@mTrianglesReferences@ 00000001801dd108     GuMetaData.obj
 0002:00003120       ??_C@_0BH@LDGPOFA@mNbTrianglesReferences@ 00000001801dd120     GuMetaData.obj
 0002:00003138       ??_C@_0BC@IFGECKF@RTreeTriangleMesh@ 00000001801dd138     GuMetaData.obj
 0002:0000314c       ??_C@_06JDIHDDGN@mRTree@   00000001801dd14c     GuMetaData.obj
 0002:00003158       ??_C@_0BA@LNNFPOKA@BV4TriangleMesh@ 00000001801dd158     GuMetaData.obj
 0002:00003168       ??_C@_08FKLPEGDB@mBV4Tree@ 00000001801dd168     GuMetaData.obj
 0002:00003178       ??_7?$SupportLocalImpl@VConvexHullNoScaleV@Gu@physx@@@Gu@physx@@6B@ 00000001801dd178     GuMTD.obj
 0002:000031c0       ?absMask@?1??FAbs@aos@physx@@YA?AT__m128@@T4@@Z@4QBIB 00000001801dd1c0     GuMTD.obj
 0002:000031d0       ??_7GjkConvex@Gu@physx@@6B@ 00000001801dd1d0     GuMTD.obj
 0002:00003200       ??_7?$LocalConvex@VCapsuleV@Gu@physx@@@Gu@physx@@6B@ 00000001801dd200     GuMTD.obj
 0002:00003230       ??_7?$LocalConvex@VConvexHullV@Gu@physx@@@Gu@physx@@6B@ 00000001801dd230     GuMTD.obj
 0002:00003260       __real@2edbe6ff            00000001801dd260     GuMTD.obj
 0002:00003264       __real@34000000            00000001801dd264     GuMTD.obj
 0002:00003268       __real@ff7fffff            00000001801dd268     GuMTD.obj
 0002:00003270       __xmm@28800000288000002880000028800000 00000001801dd270     GuMTD.obj
 0002:00003280       __xmm@34000000340000003400000034000000 00000001801dd280     GuMTD.obj
 0002:00003290       __xmm@358637bd358637bd358637bd358637bd 00000001801dd290     GuMTD.obj
 0002:000032a0       __xmm@3dcccccd3dcccccd3dcccccd3dcccccd 00000001801dd2a0     GuMTD.obj
 0002:000032b0       __xmm@3f7ff1413f7ff1413f7ff1413f7ff141 00000001801dd2b0     GuMTD.obj
 0002:000032c0       __xmm@3f8000003f8000003f8000003f800000 00000001801dd2c0     GuMTD.obj
 0002:000032f0       ??_7?$RelativeConvex@VBoxV@Gu@physx@@@Gu@physx@@6B@ 00000001801dd2f0     GuOverlapTests.obj
 0002:00003320       ??_7?$RelativeConvex@VConvexHullV@Gu@physx@@@Gu@physx@@6B@ 00000001801dd320     GuOverlapTests.obj
 0002:00003380       __real@1e3ce508            00000001801dd380     GuRaycastTests.obj
 0002:00003384       __real@28800000            00000001801dd384     GuRaycastTests.obj
 0002:00003388       __real@33d6bf95            00000001801dd388     GuRaycastTests.obj
 0002:0000338c       __real@3727c5ac            00000001801dd38c     GuRaycastTests.obj
 0002:00003390       __real@38d1b717            00000001801dd390     GuRaycastTests.obj
 0002:00003394       __real@3f0147ae            00000001801dd394     GuRaycastTests.obj
 0002:00003398       __real@3f7ffffe            00000001801dd398     GuRaycastTests.obj
 0002:0000339c       __real@3f800347            00000001801dd39c     GuRaycastTests.obj
 0002:000033a0       __real@41200000            00000001801dd3a0     GuRaycastTests.obj
 0002:000033a4       __real@80000000            00000001801dd3a4     GuRaycastTests.obj
 0002:000033a8       __real@b3d6bf95            00000001801dd3a8     GuRaycastTests.obj
 0002:000033ac       __real@b8d1b717            00000001801dd3ac     GuRaycastTests.obj
 0002:000033b0       __real@c1200000            00000001801dd3b0     GuRaycastTests.obj
 0002:000033f0       ??_7?$MeshHitCallback@UPxGeomRaycastHit@physx@@@Gu@physx@@6B@ 00000001801dd3f0     GuSweepMTD.obj
 0002:00003400       ??_7MeshMTDGenerationCallback@@6B@ 00000001801dd400     GuSweepMTD.obj
 0002:00003410       ??_7MidPhaseQueryLocalReport@@6B@ 00000001801dd410     GuSweepMTD.obj
 0002:00003420       __real@3f8147ae            00000001801dd420     GuSweepMTD.obj
 0002:00003424       __real@3f933333            00000001801dd424     GuSweepMTD.obj
 0002:00003450       __real@3c23d70a            00000001801dd450     GuSweepSharedTests.obj
 0002:00003454       __real@42c80000            00000001801dd454     GuSweepSharedTests.obj
 0002:00003460       __xmm@ffffffffffffffffffffffffffffffff 00000001801dd460     GuSweepSharedTests.obj
 0002:00003490       ??_7?$LocalConvex@VBoxV@Gu@physx@@@Gu@physx@@6B@ 00000001801dd490     GuSweepTests.obj
 0002:000034c0       ??_7?$LocalConvex@VTriangleV@Gu@physx@@@Gu@physx@@6B@ 00000001801dd4c0     GuSweepTests.obj
 0002:000034f0       __real@00000000            00000001801dd4f0     GuSweepTests.obj
 0002:00003500       __xmm@00000002000000020000000200000002 00000001801dd500     GuSweepTests.obj
 0002:00003510       __xmm@3eaaaa9f3eaaaa9f3eaaaa9f3eaaaa9f 00000001801dd510     GuSweepTests.obj
 0002:000035c8       ??_7PxRunnable@physx@@6B@  00000001801dd5c8     GuSDF.obj
 0002:000035e0       ??_C@_0EG@HCLIOCIG@E?3?2Physx?2PhysX?9106?40?9physx?95?44?4@ 00000001801dd5e0     GuSDF.obj
 0002:00003628       ??_7PointOntoTriangleMeshProjector@Gu@physx@@6B@ 00000001801dd628     GuSDF.obj
 0002:00003640       ??_7?$PxThreadT@V?$PxReflectionAllocator@VPxThreadImpl@physx@@@physx@@@physx@@6B@ 00000001801dd640     GuSDF.obj
 0002:00003650       ??_C@_06FJHNOCKE@thread@   00000001801dd650     GuSDF.obj
 0002:00003660       ??_C@_0BAK@OPLLKLNG@SDF?5creation?3?5Mesh?5is?5not?5suita@ 00000001801dd660     GuSDF.obj
 0002:00003770       ??_C@_0FB@OMEANACP@SDF?5creation?3?5Input?5mesh?5is?5not@ 00000001801dd770     GuSDF.obj
 0002:000037d0       ??_C@_0EF@ENFNKPIO@E?3?2Physx?2PhysX?9106?40?9physx?95?44?4@ 00000001801dd7d0     GuSDF.obj
 0002:00003820       ??_C@_0ED@CAGEPMNJ@E?3?2Physx?2PhysX?9106?40?9physx?95?44?4@ 00000001801dd820     GuSDF.obj
 0002:00003870       ??_C@_0EM@HJPHFHLL@E?3?2Physx?2PhysX?9106?40?9physx?95?44?4@ 00000001801dd870     GuSDF.obj
 0002:000038bc       __real@37800080            00000001801dd8bc     GuSDF.obj
 0002:000038c0       __real@3b808081            00000001801dd8c0     GuSDF.obj
 0002:000038c4       __real@3e2aaaab            00000001801dd8c4     GuSDF.obj
 0002:000038c8       __real@3eaaaaab            00000001801dd8c8     GuSDF.obj
 0002:000038cc       __real@3f400000            00000001801dd8cc     GuSDF.obj
 0002:000038d0       __real@3f7d70a4            00000001801dd8d0     GuSDF.obj
 0002:000038d4       __real@4996b438            00000001801dd8d4     GuSDF.obj
 0002:000038d8       __real@7e7fffff            00000001801dd8d8     GuSDF.obj
 0002:000038dc       __real@bf000000            00000001801dd8dc     GuSDF.obj
 0002:000038e0       __real@fe7fffff            00000001801dd8e0     GuSDF.obj
 0002:000038f0       __xmm@00000001000000010000000100000000 00000001801dd8f0     GuSDF.obj
 0002:00003900       __real@437f0000            00000001801dd900     GuCookingSDF.obj
 0002:00003904       __real@477fff00            00000001801dd904     GuCookingSDF.obj
 0002:00003930       ??_7?$RelativeConvex@UCustomConvexV@@@Gu@physx@@6B@ 00000001801dd930     GuGjkQuery.obj
 0002:00003960       ??_7?$LocalConvex@UCustomConvexV@@@Gu@physx@@6B@ 00000001801dd960     GuGjkQuery.obj
 0002:00003990       ??_7?$LocalConvex@UPointConvexV@@@Gu@physx@@6B@ 00000001801dd990     GuGjkQuery.obj
 0002:000039c0       __xmm@3f0000003f0000003f0000003f000000 00000001801dd9c0     GuGjkQuery.obj
 0002:000039f0       __real@3da2f983            00000001801dd9f0     GuWindingNumber.obj
 0002:000039f4       __real@3e22f983            00000001801dd9f4     GuWindingNumber.obj
 0002:000039f8       __real@3f99999a            00000001801dd9f8     GuWindingNumber.obj
 0002:00003a60       __real@3c343958            00000001801dda60     GuCCDSweepConvexMesh.obj
 0002:00003a64       __real@3ca3d70a            00000001801dda64     GuCCDSweepConvexMesh.obj
 0002:00003a68       __real@3f0ccccd            00000001801dda68     GuCCDSweepConvexMesh.obj
 0002:00003a6c       __real@3f8ccccd            00000001801dda6c     GuCCDSweepConvexMesh.obj
 0002:00003a70       __real@b58637bd            00000001801dda70     GuCCDSweepConvexMesh.obj
 0002:00003aa0       ??_7?$RelativeConvex@VCapsuleV@Gu@physx@@@Gu@physx@@6B@ 00000001801ddaa0     GuCCDSweepPrimitives.obj
 0002:00003ad0       ??_7?$RelativeConvex@VTriangleV@Gu@physx@@@Gu@physx@@6B@ 00000001801ddad0     GuCCDSweepPrimitives.obj
 0002:00003b00       __real@3ba3d70a            00000001801ddb00     GuCCDSweepPrimitives.obj
 0002:00003b04       __real@501502f9            00000001801ddb04     GuCCDSweepPrimitives.obj
 0002:00003b30       ??_C@_0FF@OOECNBDG@E?3?2Physx?2PhysX?9106?40?9physx?95?44?4@ 00000001801ddb30     GuAdjacencies.obj
 0002:00003b88       ??_C@_0DA@FMEHLBKI@Adjacencies?3?3UpdateLink?3?5invali@ 00000001801ddb88     GuAdjacencies.obj
 0002:00003bc0       ??_C@_0EA@CPHOACLK@Adjacencies?3?3CreateDatabase?3?5ca@ 00000001801ddbc0     GuAdjacencies.obj
 0002:00003c00       ??_C@_0FC@PBIALIIG@E?3?2Physx?2PhysX?9106?40?9physx?95?44?4@ 00000001801ddc00     GuEdgeList.obj
 0002:00003c58       ??_C@_0CO@GBNJFPN@EdgeList?3?3CreateFacesToEdges?3?5N@ 00000001801ddc58     GuEdgeList.obj
 0002:00003c88       ??_C@_0CO@EHJBBMNK@EdgeList?3?3ComputeActiveEdges?3?5N@ 00000001801ddc88     GuEdgeList.obj
 0002:00003cb8       ??_C@_0DI@GBHLFOFP@ActiveEdges?3?3ComputeConvexEdges@ 00000001801ddcb8     GuEdgeList.obj
 0002:00003cf0       ??_C@_0DM@JOGBLHDI@ActiveEdges?3?3ComputeConvexEdges@ 00000001801ddcf0     GuEdgeList.obj
 0002:00003d30       ??_C@_0ED@FEMJKPEL@ActiveEdges?3?3ComputeConvexEdges@ 00000001801ddd30     GuEdgeList.obj
 0002:00003d80       ??_C@_0EB@BFDPMFCD@ActiveEdges?3?3ComputeConvexEdges@ 00000001801ddd80     GuEdgeList.obj
 0002:00003dc4       __real@bf7fbe77            00000001801dddc4     GuEdgeList.obj
 0002:00003dc8       ??_7Quantizer@Gu@physx@@6B@ 00000001801dddc8     GuQuantizer.obj
 0002:00003df0       ??_7QuantizerImpl@@6B@     00000001801dddf0     GuQuantizer.obj
 0002:00003e20       ??_C@_0FD@MNMHNDEP@E?3?2Physx?2PhysX?9106?40?9physx?95?44?4@ 00000001801dde20     GuQuantizer.obj
 0002:00003e74       __real@3f0020c5            00000001801dde74     GuQuantizer.obj
 0002:00003e78       __real@3f8020c5            00000001801dde78     GuQuantizer.obj
 0002:00003e80       ??_C@_0FF@MLBJPMGC@E?3?2Physx?2PhysX?9106?40?9physx?95?44?4@ 00000001801dde80     GuMeshCleaner.obj
 0002:00003ed8       __real@40800000            00000001801dded8     GuMeshCleaner.obj
 0002:00003ee0       ??_C@_0FH@DFAPCMKB@E?3?2Physx?2PhysX?9106?40?9physx?95?44?4@ 00000001801ddee0     GuVertexReducer.obj
 0002:00004030       __real@3f7fbe77            00000001801de030     GuContactBoxBox.obj
 0002:00004080       __real@3f7ff2e5            00000001801de080     GuContactCapsuleCapsule.obj
 0002:00004110       __real@358637be            00000001801de110     GuContactCapsuleMesh.obj
 0002:00004114       __real@ba83126f            00000001801de114     GuContactCapsuleMesh.obj
 0002:00004170       ??_7ConvexMeshContactGenerationCallback@@6B@ 00000001801de170     GuContactConvexMesh.obj
 0002:000041f0       __real@3ec90fdb            00000001801de1f0     GuContactPolygonPolygon.obj
 0002:000041f4       __real@3f490fdb            00000001801de1f4     GuContactPolygonPolygon.obj
 0002:000041f8       __real@3f96cbe4            00000001801de1f8     GuContactPolygonPolygon.obj
 0002:000041fc       __real@3fc90fdb            00000001801de1fc     GuContactPolygonPolygon.obj
 0002:00004200       __real@3ffb53d2            00000001801de200     GuContactPolygonPolygon.obj
 0002:00004204       __real@4016cbe4            00000001801de204     GuContactPolygonPolygon.obj
 0002:00004208       __real@402feddf            00000001801de208     GuContactPolygonPolygon.obj
 0002:00004270       ??_C@_0FH@GHIMEIIF@E?3?2Physx?2PhysX?9106?40?9physx?95?44?4@ 00000001801de270     GuBigConvexData.obj
 0002:000042f0       ??_C@_0N@CDGINLLF@PxConvexMesh@ 00000001801de2f0     GuConvexMesh.obj
 0002:00004300       ??_7PxBase@physx@@6B@      00000001801de300     GuConvexMesh.obj
 0002:00004328       ??_C@_0CE@IDAGNPDH@isKindOf?5called?5with?5invalid?5st@ 00000001801de328     GuConvexMesh.obj
 0002:00004350       ??_C@_0N@OPPDBGAG@PxRefCounted@ 00000001801de350     GuConvexMesh.obj
 0002:00004360       ??_C@_0EH@OHLCHELC@E?3?2Physx?2PhysX?9106?40?9physx?95?44?4@ 00000001801de360     GuConvexMesh.obj
 0002:000043a8       ??_7ConvexMesh@Gu@physx@@6B@ 00000001801de3a8     GuConvexMesh.obj
 0002:00004440       ??_C@_0FE@DJJCBKKO@E?3?2Physx?2PhysX?9106?40?9physx?95?44?4@ 00000001801de440     GuConvexMesh.obj
 0002:00004498       ??_C@_0DM@NEJKOFIP@Loading?5convex?5mesh?5failed?3?5Dep@ 00000001801de498     GuConvexMesh.obj
 0002:000044d8       ??_C@_0DB@PAHEPIEL@PxConvexMesh?3?3release?3?5double?5d@ 00000001801de4d8     GuConvexMesh.obj
 0002:00004510       ??_C@_0EM@GPFEOHDA@E?3?2Physx?2PhysX?9106?40?9physx?95?44?4@ 00000001801de510     GuConvexMesh.obj
 0002:00004580       __xmm@000000000000000000000000ffffffff 00000001801de580     GuConvexSupportTable.obj
 0002:00004590       __xmm@0000000000000000ffffffff00000000 00000001801de590     GuConvexSupportTable.obj
 0002:000045a0       __xmm@0000000000000000ffffffffffffffff 00000001801de5a0     GuConvexSupportTable.obj
 0002:000045b0       __xmm@00000000ffffffff0000000000000000 00000001801de5b0     GuConvexSupportTable.obj
 0002:000045c0       __xmm@00000000ffffffff00000000ffffffff 00000001801de5c0     GuConvexSupportTable.obj
 0002:000045d0       __xmm@00000000ffffffffffffffff00000000 00000001801de5d0     GuConvexSupportTable.obj
 0002:00004660       __xmm@2b8cbccc2b8cbccc2b8cbccc2b8cbccc 00000001801de660     GuDistancePointTriangle.obj
 0002:000046d0       __real@2b8cbccc            00000001801de6d0     GuDistanceSegmentTriangle.obj
 0002:000046e0       __xmm@3f8000013f8000013f8000013f800001 00000001801de6e0     GuDistanceSegmentTriangle.obj
 0002:000046f0       __xmm@b4000000b4000000b4000000b4000000 00000001801de6f0     GuDistanceSegmentTriangle.obj
 0002:00004720       __real@26901d7d            00000001801de720     GuDistanceTriangleTriangle.obj
 0002:000047a0       __xmm@38d1b71738d1b71738d1b71738d1b717 00000001801de7a0     GuGJKSimplex.obj
 0002:000047d0       ??_C@_0O@PBAKPCEC@PxHeightField@ 00000001801de7d0     GuHeightField.obj
 0002:000047e0       ??_C@_0EI@MPJKCONP@E?3?2Physx?2PhysX?9106?40?9physx?95?44?4@ 00000001801de7e0     GuHeightField.obj
 0002:00004828       ??_7HeightField@Gu@physx@@6B@ 00000001801de828     GuHeightField.obj
 0002:000048e0       ??_C@_0DC@BDMMBOKH@PxHeightField?3?3release?3?5double?5@ 00000001801de8e0     GuHeightField.obj
 0002:00004920       ??_C@_0FB@MHOGBEMC@E?3?2Physx?2PhysX?9106?40?9physx?95?44?4@ 00000001801de920     GuHeightField.obj
 0002:00004978       ??_C@_0CI@DMKEKGNK@Gu?3?3HeightField?3?3load?3?5PX_ALLOC@ 00000001801de978     GuHeightField.obj
 0002:000049c0       __real@3a03126f            00000001801de9c0     GuHeightFieldUtil.obj
 0002:000049c4       __real@3f19999a            00000001801de9c4     GuHeightFieldUtil.obj
 0002:000049d0       __xmm@40000000000000000000000000000000 00000001801de9d0     GuHeightFieldUtil.obj
 0002:00004a60       ??_7HeightFieldTraceSegmentReport@@6B@ 00000001801dea60     GuSweepsHF.obj
 0002:00004a70       ??_7CapsuleTraceSegmentReport@@6B@ 00000001801dea70     GuSweepsHF.obj
 0002:00004a80       ??_7ConvexTraceSegmentReport@@6B@ 00000001801dea80     GuSweepsHF.obj
 0002:00004a90       ??_7BoxTraceSegmentReport@@6B@ 00000001801dea90     GuSweepsHF.obj
 0002:00004aa0       __real@aedbe6ff            00000001801deaa0     GuSweepsHF.obj
 0002:00004ad0       __real@3089705f            00000001801dead0     GuIntersectionRayBox.obj
 0002:00004ad4       __real@b4000000            00000001801dead4     GuIntersectionRayBox.obj
 0002:00004ae0       __xmm@000000003089705f3089705f3089705f 00000001801deae0     GuIntersectionRayBox.obj
 0002:00004af0       __xmm@00000000bf800000bf800000bf800000 00000001801deaf0     GuIntersectionRayBox.obj
 0002:00004b40       ??_7SourceMeshBase@Gu@physx@@6B@ 00000001801deb40     GuBV4.obj
 0002:00004b68       ??_7SourceMesh@Gu@physx@@6B@ 00000001801deb68     GuBV4.obj
 0002:00004b90       ??_7TetrahedronSourceMesh@Gu@physx@@6B@ 00000001801deb90     GuBV4.obj
 0002:00004bc0       ??_C@_0EL@NFBKJHAI@E?3?2Physx?2PhysX?9106?40?9physx?95?44?4@ 00000001801debc0     GuBV4.obj
 0002:00004c10       __xmm@ff7fffffff7fffffff7fffffff7fffff 00000001801dec10     GuBV4.obj
 0002:00004c40       ??_C@_0FA@JFFLBDPN@E?3?2Physx?2PhysX?9106?40?9physx?95?44?4@ 00000001801dec40     GuBV4Build.obj
 0002:00004c90       __real@38000100            00000001801dec90     GuBV4Build.obj
 0002:00004c94       __real@3e93cd3a            00000001801dec94     GuBV4Build.obj
 0002:00004c98       __real@46fffe00            00000001801dec98     GuBV4Build.obj
 0002:00004c9c       __real@be93cd3a            00000001801dec9c     GuBV4Build.obj
 0002:00004cc0       __xmm@0000ffff0000ffff0000ffff0000ffff 00000001801decc0     GuBV4_AABBSweep.obj
 0002:00004cd0       __xmm@3089705f3089705f3089705f3089705f 00000001801decd0     GuBV4_AABBSweep.obj
 0002:00004ce0       __xmm@33d6bf9533d6bf9533d6bf9533d6bf95 00000001801dece0     GuBV4_AABBSweep.obj
 0002:00004cf0       __xmm@40000000400000004000000040000000 00000001801decf0     GuBV4_AABBSweep.obj
 0002:00004d80       __xmm@322bcc77322bcc77322bcc77322bcc77 00000001801ded80     GuBV4_MeshMeshOverlap.obj
 0002:00004df0       __real@4f7fffff            00000001801dedf0     GuBV4_SphereOverlap.obj
 0002:00004e40       __xmm@000000007f7fffff0000000000000000 00000001801dee40     GuMidphaseBV4.obj
 0002:00004eb0       ??_C@_0FD@EHCCILIF@Adjacency?5information?5not?5creat@ 00000001801deeb0     GuMeshQuery.obj
 0002:00004f10       ??_C@_0FB@MEAOOMKJ@E?3?2Physx?2PhysX?9106?40?9physx?95?44?4@ 00000001801def10     GuMeshQuery.obj
 0002:00004f70       ??_C@_0FL@BKNMAHIA@PxMeshQuery?3?3findOverlapTriangl@ 00000001801def70     GuMeshQuery.obj
 0002:00004fcc       __real@4cbebc20            00000001801defcc     GuMeshQuery.obj
 0002:00004ff0       ??_7Callback@RTree@Gu@physx@@6B@ 00000001801deff0     GuMidphaseRTree.obj
 0002:00005008       ??_7?$RayRTreeCallback@$00$0A@@@6BCallbackRaycast@RTree@Gu@physx@@@ 00000001801df008     GuMidphaseRTree.obj
 0002:00005008       ??_7?$RayRTreeCallback@$0A@$0A@@@6BCallbackRaycast@RTree@Gu@physx@@@ 00000001801df008     GuMidphaseRTree.obj
 0002:00005018       ??_7?$RayRTreeCallback@$00$0A@@@6BCallback@RTree@Gu@physx@@@ 00000001801df018     GuMidphaseRTree.obj
 0002:00005018       ??_7?$RayRTreeCallback@$0A@$0A@@@6BCallback@RTree@Gu@physx@@@ 00000001801df018     GuMidphaseRTree.obj
 0002:00005030       ??_7RayMeshColliderCallback@@6B@ 00000001801df030     GuMidphaseRTree.obj
 0002:00005040       ??_C@_0EN@DPPFLBLF@Point?9mesh?5distance?5query?5not?5s@ 00000001801df040     GuMidphaseRTree.obj
 0002:00005090       ??_C@_0FF@KKJKDPEE@E?3?2Physx?2PhysX?9106?40?9physx?95?44?4@ 00000001801df090     GuMidphaseRTree.obj
 0002:000050e8       ??_7?$RayRTreeCallback@$0A@$00@@6BCallbackRaycast@RTree@Gu@physx@@@ 00000001801df0e8     GuMidphaseRTree.obj
 0002:000050f8       ??_7?$RayRTreeCallback@$0A@$00@@6BCallback@RTree@Gu@physx@@@ 00000001801df0f8     GuMidphaseRTree.obj
 0002:00005110       ??_7?$RayRTreeCallback@$00$00@@6BCallbackRaycast@RTree@Gu@physx@@@ 00000001801df110     GuMidphaseRTree.obj
 0002:00005120       ??_7?$RayRTreeCallback@$00$00@@6BCallback@RTree@Gu@physx@@@ 00000001801df120     GuMidphaseRTree.obj
 0002:000051a0       __xmm@7f7fffff000000000000000000000000 00000001801df1a0     GuMidphaseRTree.obj
 0002:00005220       ??_7?$PxReportCallback@UPxGeomIndexPair@physx@@@physx@@6B@ 00000001801df220     GuOverlapTestsMesh.obj
 0002:00005240       ??_C@_0EP@CEFGCJKJ@PxGeometryQuery?3?3overlap?$CI?$CJ?3?5onl@ 00000001801df240     GuOverlapTestsMesh.obj
 0002:00005290       ??_C@_0FI@FMNJEDD@E?3?2Physx?2PhysX?9106?40?9physx?95?44?4@ 00000001801df290     GuOverlapTestsMesh.obj
 0002:00005310       ?MN@RTreePage@Gu@physx@@2MB 00000001801df310     GuRTree.obj
 0002:00005314       ?MX@RTreePage@Gu@physx@@2MB 00000001801df314     GuRTree.obj
 0002:00005320       ??_C@_0EN@GOAMGBBC@E?3?2Physx?2PhysX?9106?40?9physx?95?44?4@ 00000001801df320     GuRTree.obj
 0002:000053e0       ??_7SweepShapeMeshHitCallback@Gu@physx@@6B@ 00000001801df3e0     GuSweepsMesh.obj
 0002:000053f0       ??_7SweepCapsuleMeshHitCallback@Gu@physx@@6B@ 00000001801df3f0     GuSweepsMesh.obj
 0002:00005400       ??_7SweepBoxMeshHitCallback@Gu@physx@@6B@ 00000001801df400     GuSweepsMesh.obj
 0002:00005410       ??_7SweepConvexMeshHitCallback@Gu@physx@@6B@ 00000001801df410     GuSweepsMesh.obj
 0002:00005440       ??_C@_0P@GGNFNHKF@PxTriangleMesh@ 00000001801df440     GuTriangleMesh.obj
 0002:00005450       ??_C@_0EJ@PBPLMHML@E?3?2Physx?2PhysX?9106?40?9physx?95?44?4@ 00000001801df450     GuTriangleMesh.obj
 0002:000054a0       ??_7TriangleMesh@Gu@physx@@6B@ 00000001801df4a0     GuTriangleMesh.obj
 0002:00005578       ??_C@_0DD@LOOPMCGG@PxTriangleMesh?3?3release?3?5double@ 00000001801df578     GuTriangleMesh.obj
 0002:000055b0       ??_C@_0FH@PMPAJDGI@PxTriangleMesh?3?3getVerticesForM@ 00000001801df5b0     GuTriangleMesh.obj
 0002:00005610       ??_C@_0FE@HMCLFEP@E?3?2Physx?2PhysX?9106?40?9physx?95?44?4@ 00000001801df610     GuTriangleMesh.obj
 0002:00005670       ??_C@_0EF@GMNFLDH@PxTriangleMesh?3?3refitBVH?$CI?$CJ?5is?5n@ 00000001801df670     GuTriangleMesh.obj
 0002:000056c0       __xmm@38383838383838383838383838383838 00000001801df6c0     GuTriangleMesh.obj
 0002:000056f0       ??_C@_0BE@CNJKIINO@PxBVH34TriangleMesh@ 00000001801df6f0     GuTriangleMeshBV4.obj
 0002:00005708       ??_7BV4TriangleMesh@Gu@physx@@6B@ 00000001801df708     GuTriangleMeshBV4.obj
 0002:000057e0       ??_C@_0EF@JLFNNPLP@BVH34?5trees?3?5refit?5operation?5on@ 00000001801df7e0     GuTriangleMeshBV4.obj
 0002:00005830       ??_C@_0FH@KLLGHMAB@E?3?2Physx?2PhysX?9106?40?9physx?95?44?4@ 00000001801df830     GuTriangleMeshBV4.obj
 0002:00005888       __real@3951b717            00000001801df888     GuTriangleMeshBV4.obj
 0002:000058b0       ??_C@_0BE@EIFHCCBO@PxBVH33TriangleMesh@ 00000001801df8b0     GuTriangleMeshRTree.obj
 0002:000058c8       ??_7RTreeTriangleMesh@Gu@physx@@6B@ 00000001801df8c8     GuTriangleMeshRTree.obj
 0002:000059a0       ??_7?$RefitCallback@G@physx@@6B@ 00000001801df9a0     GuTriangleMeshRTree.obj
 0002:000059b0       ??_7?$RefitCallback@I@physx@@6B@ 00000001801df9b0     GuTriangleMeshRTree.obj
 0002:000059e0       ??_C@_0EM@HCENHDLE@E?3?2Physx?2PhysX?9106?40?9physx?95?44?4@ 00000001801df9e0     GuBV32.obj
 0002:00005a50       ??_C@_0FB@JBMEDCJM@E?3?2Physx?2PhysX?9106?40?9physx?95?44?4@ 00000001801dfa50     GuBV32Build.obj
 0002:00005ad0       ??_C@_0BC@FDAIDHBP@PxTetrahedronMesh@ 00000001801dfad0     GuTetrahedronMesh.obj
 0002:00005af0       ??_C@_0EM@PGHLJDGH@E?3?2Physx?2PhysX?9106?40?9physx?95?44?4@ 00000001801dfaf0     GuTetrahedronMesh.obj
 0002:00005b40       ??_C@_0BC@FBICGJIB@PxSoftBodyAuxData@ 00000001801dfb40     GuTetrahedronMesh.obj
 0002:00005b58       ??_C@_0P@CLLFGFAA@PxSoftBodyMesh@ 00000001801dfb58     GuTetrahedronMesh.obj
 0002:00005b68       ??_7SoftBodyAuxData@Gu@physx@@6B@ 00000001801dfb68     GuTetrahedronMesh.obj
 0002:00005bb0       ??_7TetrahedronMesh@Gu@physx@@6B@ 00000001801dfbb0     GuTetrahedronMesh.obj
 0002:00005c28       ??_7BVTetrahedronMesh@Gu@physx@@6B@ 00000001801dfc28     GuTetrahedronMesh.obj
 0002:00005ca0       ??_7SoftBodyMesh@Gu@physx@@6B@ 00000001801dfca0     GuTetrahedronMesh.obj
 0002:00005d20       ??_C@_0DG@JJNMDPMD@PxTetrahedronMesh?3?3release?3?5dou@ 00000001801dfd20     GuTetrahedronMesh.obj
 0002:00005d58       ??_C@_0DD@GGFGEPII@PxSoftBodyMesh?3?3release?3?5double@ 00000001801dfd58     GuTetrahedronMesh.obj
 0002:00005d90       ??_C@_0FH@EJPFJGJF@E?3?2Physx?2PhysX?9106?40?9physx?95?44?4@ 00000001801dfd90     GuTetrahedronMesh.obj
 0002:00005e30       __xmm@00000000358637bd358637bd358637bd 00000001801dfe30     GuPCMContactBoxBox.obj
 0002:00005e40       __xmm@3f4ccccd3f4ccccd3f4ccccd3f4ccccd 00000001801dfe40     GuPCMContactBoxBox.obj
 0002:00005e50       __xmm@3f8003473f8003473f8003473f800347 00000001801dfe50     GuPCMContactBoxBox.obj
 0002:00005e60       __xmm@ffffffff00000000ffffffffffffffff 00000001801dfe60     GuPCMContactBoxBox.obj
 0002:00005e90       ??_7?$LocalConvex@VConvexHullNoScaleV@Gu@physx@@@Gu@physx@@6B@ 00000001801dfe90     GuPCMContactBoxConvex.obj
 0002:00005ec0       __xmm@3f3504f33f3504f33f3504f33f3504f3 00000001801dfec0     GuPCMContactBoxConvex.obj
 0002:00005f10       __xmm@ffffffffffffffffffffffff00000000 00000001801dff10     GuPCMContactCapsuleCapsule.obj
 0002:00005f40       __xmm@3fa000003fa000003fa000003fa00000 00000001801dff40     GuPCMContactCapsuleConvex.obj
 0002:00005f70       ??_7PCMCapsuleVsHeightfieldContactGenerationCallback@@6B@ 00000001801dff70     GuPCMContactCapsuleHeightField.obj
 0002:00005f80       __real@3f7f3b64            00000001801dff80     GuPCMContactCapsuleHeightField.obj
 0002:00005fd0       __xmm@3f7ff9723f7ff9723f7ff9723f7ff972 00000001801dffd0     GuPCMContactCapsuleMesh.obj
 0002:00005fe0       __xmm@3f7fffef3f7fffef3f7fffef3f7fffef 00000001801dffe0     GuPCMContactCapsuleMesh.obj
 0002:00005ff0       __xmm@60ad78ec60ad78ec60ad78ec60ad78ec 00000001801dfff0     GuPCMContactCapsuleMesh.obj
 0002:00006020       ??_7?$SupportLocalImpl@VTriangleV@Gu@physx@@@Gu@physx@@6B@ 00000001801e0020     GuPCMContactConvexCommon.obj
 0002:00006040       __xmm@3cf5c2803cf5c2803cf5c2803cf5c280 00000001801e0040     GuPCMContactConvexCommon.obj
 0002:00006050       __xmm@3f7851ec3f7851ec3f7851ec3f7851ec 00000001801e0050     GuPCMContactConvexCommon.obj
 0002:00006080       ??_7?$RelativeConvex@VConvexHullNoScaleV@Gu@physx@@@Gu@physx@@6B@ 00000001801e0080     GuPCMContactConvexConvex.obj
 0002:000060e0       __xmm@3f19999a3f19999a3f19999a3f19999a 00000001801e00e0     GuPCMContactConvexHeightField.obj
 0002:00006150       __xmm@3f34fdf43f34fdf43f34fdf43f34fdf4 00000001801e0150     GuPCMContactGenBoxConvex.obj
 0002:00006180       __xmm@3f80a3d73f80a3d73f80a3d73f80a3d7 00000001801e0180     GuPCMContactGenSphereCapsule.obj
 0002:00006190       __xmm@bba3d70abba3d70abba3d70abba3d70a 00000001801e0190     GuPCMContactGenSphereCapsule.obj
 0002:000061c0       __xmm@3f7ffd613f7ffd613f7ffd613f7ffd61 00000001801e01c0     GuPCMContactPlaneBox.obj
 0002:000061f0       __real@3b23d70b            00000001801e01f0     GuPCMContactPlaneCapsule.obj
 0002:00006200       __xmm@3ca3d70a3ca3d70a3ca3d70a3ca3d70a 00000001801e0200     GuPCMContactPlaneCapsule.obj
 0002:00006230       __xmm@3a03126f3a03126f3a03126f3a03126f 00000001801e0230     GuPCMContactPlaneConvex.obj
 0002:00006350       __xmm@3727c5ac3727c5ac3727c5ac3727c5ac 00000001801e0350     GuPCMContactSphereSphere.obj
 0002:00006380       __xmm@3f7f06f73f7f06f73f7f06f73f7f06f7 00000001801e0380     GuPCMContactCustomGeometry.obj
 0002:00006390       ?gPCMBoxPolygonData@Gu@physx@@3QBEB 00000001801e0390     GuPCMShapeConvex.obj
 0002:00006410       ?invalidateThresholds@Gu@physx@@3QBMB 00000001801e0410     GuPersistentContactManifold.obj
 0002:00006428       ?invalidateQuatThresholds@Gu@physx@@3QBMB 00000001801e0428     GuPersistentContactManifold.obj
 0002:00006440       ?invalidateThresholds2@Gu@physx@@3QBMB 00000001801e0440     GuPersistentContactManifold.obj
 0002:00006450       ?invalidateQuatThresholds2@Gu@physx@@3QBMB 00000001801e0450     GuPersistentContactManifold.obj
 0002:00006460       __xmm@00000000340000003400000034000000 00000001801e0460     GuPersistentContactManifold.obj
 0002:00006470       __xmm@000000003f8000003f80000000000000 00000001801e0470     GuPersistentContactManifold.obj
 0002:00006480       __xmm@00000000bf8000003f80000000000000 00000001801e0480     GuPersistentContactManifold.obj
 0002:00006490       __xmm@ffffffffffffffff00000000ffffffff 00000001801e0490     GuPersistentContactManifold.obj
 0002:000064c0       __xmm@c1200000c1200000c1200000c1200000 00000001801e04c0     GuPCMContactGenUtil.obj
 0002:00006510       __real@b727c5ac            00000001801e0510     GuSweepBoxSphere.obj
 0002:00006580       ??_C@_0FI@MHOHPBGB@E?3?2Physx?2PhysX?9106?40?9physx?95?44?4@ 00000001801e0580     GuSweepCapsuleBox.obj
 0002:00006620       __real@3f7fff58            00000001801e0620     GuSweepCapsuleTriangle.obj
 0002:00006690       ??_C@_0CH@DHJGKCPD@Gu?3?3computeBounds?3?5Unknown?5shap@ 00000001801e0690     GuBounds.obj
 0002:000066c0       ??_C@_0EJ@DMODGEIH@E?3?2Physx?2PhysX?9106?40?9physx?95?44?4@ 00000001801e06c0     GuBounds.obj
 0002:0000670c       __real@34800000            00000001801e070c     GuBounds.obj
 0002:00006710       __real@3f7fffef            00000001801e0710     GuBounds.obj
 0002:00006720       __xmm@3f8147ae3f8147ae3f8147ae3f8147ae 00000001801e0720     GuBounds.obj
 0002:00006750       ??_C@_0EL@OKGINEGI@E?3?2Physx?2PhysX?9106?40?9physx?95?44?4@ 00000001801e0750     GuAABBTree.obj
 0002:000067a0       __xmm@5a60b17f5a60b17f5a60b17f5a60b17f 00000001801e07a0     GuAABBTree.obj
 0002:000067b0       __xmm@da60b17fda60b17fda60b17fda60b17f 00000001801e07b0     GuAABBTree.obj
 0002:00006820       ??_C@_0FG@HIGGEHI@E?3?2Physx?2PhysX?9106?40?9physx?95?44?4@ 00000001801e0820     GuIncrementalAABBTree.obj
 0002:00006880       ??_C@_0ED@BMFBMKAH@E?3?2Physx?2PhysX?9106?40?9physx?95?44?4@ 00000001801e0880     GuIncrementalAABBTree.obj
 0002:000068c4       __real@40400000            00000001801e08c4     GuIncrementalAABBTree.obj
 0002:000068d0       ??_C@_0EG@BKIKKMFB@E?3?2Physx?2PhysX?9106?40?9physx?95?44?4@ 00000001801e08d0     GuSAH.obj
 0002:00006940       ??_7PxBVH@physx@@6B@       00000001801e0940     GuBVH.obj
 0002:000069b8       ??_C@_05OKJNPKBM@PxBVH@    00000001801e09b8     GuBVH.obj
 0002:000069c0       ??_C@_0EA@PBEHLEDB@E?3?2Physx?2PhysX?9106?40?9physx?95?44?4@ 00000001801e09c0     GuBVH.obj
 0002:00006a00       ??_7RefCountable@Cm@physx@@6B@ 00000001801e0a00     GuBVH.obj
 0002:00006a10       ??_7BVH@Gu@physx@@6BPxBVH@2@@ 00000001801e0a10     GuBVH.obj
 0002:00006a88       ??_7BVH@Gu@physx@@6BRefCountable@Cm@2@@ 00000001801e0a88     GuBVH.obj
 0002:00006aa0       ??_C@_0EG@IOCDPKE@E?3?2Physx?2PhysX?9106?40?9physx?95?44?4@ 00000001801e0aa0     GuBVH.obj
 0002:00006ae8       ??_C@_0CK@HAIOEINI@PxBVH?3?3release?3?5double?5deletion@ 00000001801e0ae8     GuBVH.obj
 0002:00006b40       ??_C@_0FM@IJBHOKNM@E?3?2Physx?2PhysX?9106?40?9physx?95?44?4@ 00000001801e0b40     GuIncrementalAABBPrunerCore.obj
 0002:00006b9c       __real@3f80a3d7            00000001801e0b9c     GuIncrementalAABBPrunerCore.obj
 0002:00006bc0       ??_7BasePruner@Gu@physx@@6B@ 00000001801e0bc0     GuIncrementalAABBPruner.obj
 0002:00006bd8       ??_7IncrementalAABBPruner@Gu@physx@@6B@ 00000001801e0bd8     GuIncrementalAABBPruner.obj
 0002:00006c60       ??_C@_0FI@NMINBEFM@E?3?2Physx?2PhysX?9106?40?9physx?95?44?4@ 00000001801e0c60     GuIncrementalAABBPruner.obj
 0002:00006ce0       ??_C@_0EO@FPHHGNJO@E?3?2Physx?2PhysX?9106?40?9physx?95?44?4@ 00000001801e0ce0     GuPruningPool.obj
 0002:00006d70       ??_7BucketPruner@Gu@physx@@6B@ 00000001801e0d70     GuBucketPruner.obj
 0002:00006e00       ??_C@_0EP@CLELHEHE@E?3?2Physx?2PhysX?9106?40?9physx?95?44?4@ 00000001801e0e00     GuBucketPruner.obj
 0002:00006e50       __real@bf13cd3a            00000001801e0e50     GuBucketPruner.obj
 0002:00006e60       __xmm@000000007e7fffff7e7fffff7e7fffff 00000001801e0e60     GuBucketPruner.obj
 0002:00006e70       __xmm@00000000fe7ffffffe7ffffffe7fffff 00000001801e0e70     GuBucketPruner.obj
 0002:00006e80       __xmm@3f13cd3a3f13cd3a3f13cd3a3f13cd3a 00000001801e0e80     GuBucketPruner.obj
 0002:00006e90       __xmm@bf13cd3abf13cd3abf13cd3a3f13cd3a 00000001801e0e90     GuBucketPruner.obj
 0002:00006ea0       __xmm@bf8000003f8000003f800000bf800000 00000001801e0ea0     GuBucketPruner.obj
 0002:00006eb0       __xmm@bf8000003f800000bf8000003f800000 00000001801e0eb0     GuBucketPruner.obj
 0002:00006ec0       __xmm@bf800000bf8000003f8000003f800000 00000001801e0ec0     GuBucketPruner.obj
 0002:00006ed0       __xmm@bf800000bf800000bf8000003f800000 00000001801e0ed0     GuBucketPruner.obj
 0002:00006ee0       ?mIndices@MaverickNode@Gu@physx@@2QBIB 00000001801e0ee0     GuMaverickNode.obj
 0002:00006f40       ??_C@_0FH@BNLPFFHI@E?3?2Physx?2PhysX?9106?40?9physx?95?44?4@ 00000001801e0f40     GuExtendedBucketPruner.obj
 0002:00006fc0       ??_7CompanionPruner@Gu@physx@@6B@ 00000001801e0fc0     GuSecondaryPruner.obj
 0002:00007040       ??_7CompanionPrunerBucket@@6B@ 00000001801e1040     GuSecondaryPruner.obj
 0002:000070c0       ??_7CompanionPrunerIncremental@@6B@ 00000001801e10c0     GuSecondaryPruner.obj
 0002:00007140       ??_7CompanionPrunerAABBTree@@6B@ 00000001801e1140     GuSecondaryPruner.obj
 0002:000071c0       ??_C@_0FC@DINAMNCF@E?3?2Physx?2PhysX?9106?40?9physx?95?44?4@ 00000001801e11c0     GuSecondaryPruner.obj
 0002:00007240       ??_7AABBPruner@Gu@physx@@6B@ 00000001801e1240     GuAABBPruner.obj
 0002:000072e0       ??_C@_0LA@IHBEIKND@SceneQuery?5static?5AABB?5Tree?5reb@ 00000001801e12e0     GuAABBPruner.obj
 0002:00007390       ??_C@_0EN@FNCOFIGP@E?3?2Physx?2PhysX?9106?40?9physx?95?44?4@ 00000001801e1390     GuAABBPruner.obj
 0002:000073e0       ??_C@_0FA@JHOMEJCO@E?3?2Physx?2PhysX?9106?40?9physx?95?44?4@ 00000001801e13e0     GuActorShapeMap.obj
 0002:00007450       ??_C@_0BF@DNABLJAF@Invalid?5pruner?5index@ 00000001801e1450     GuQuerySystem.obj
 0002:00007470       ??_C@_0EO@BBBJFBE@E?3?2Physx?2PhysX?9106?40?9physx?95?44?4@ 00000001801e1470     GuQuerySystem.obj
 0002:000074f0       ??_C@_0EF@JHJOGEC@E?3?2Physx?2PhysX?9106?40?9physx?95?44?4@ 00000001801e14f0     GuQuerySystem.obj
 0002:00007560       ??_C@_0EK@BGKIOOAM@E?3?2Physx?2PhysX?9106?40?9physx?95?44?4@ 00000001801e1560     GuFactory.obj
 0002:000075b0       ?reductionFactors@SubSortQuick@physx@@2QBMB 00000001801e15b0     GuRTreeCooking.obj
 0002:000075c0       ?stopAtTrisPerLeaf1@SubSortQuick@physx@@2QBIB 00000001801e15c0     GuRTreeCooking.obj
 0002:00007690       ??_C@_0FH@PLGLBPIN@E?3?2Physx?2PhysX?9106?40?9physx?95?44?4@ 00000001801e1690     GuRTreeCooking.obj
 0002:000076e8       __real@41100000            00000001801e16e8     GuRTreeCooking.obj
 0002:000076ec       __real@41700000            00000001801e16ec     GuRTreeCooking.obj
 0002:000076f0       __real@42200000            00000001801e16f0     GuRTreeCooking.obj
 0002:00007700       __xmm@00000004000000030000000200000001 00000001801e1700     GuRTreeCooking.obj
 0002:00007730       ??_C@_0FF@GMOLEGDE@E?3?2Physx?2PhysX?9106?40?9physx?95?44?4@ 00000001801e1730     GuCookingBVH.obj
 0002:00007788       ??_C@_0DL@JHPKHGFA@Cooking?3?3cookBVH?3?5user?9provided@ 00000001801e1788     GuCookingBVH.obj
 0002:000077c8       ??_C@_0DN@PLNPGFEB@Cooking?3?3createBVH?3?5user?9provid@ 00000001801e17c8     GuCookingBVH.obj
 0002:00007810       ??_C@_0EL@JCJBAPHL@Cooking?3?3cookHeightField?3?5user?9@ 00000001801e1810     GuCookingHF.obj
 0002:00007860       ??_C@_0FE@HLBMOKJJ@E?3?2Physx?2PhysX?9106?40?9physx?95?44?4@ 00000001801e1860     GuCookingHF.obj
 0002:000078c0       ??_C@_0EN@FCEPCAFC@Cooking?3?3createHeightField?3?5use@ 00000001801e18c0     GuCookingHF.obj
 0002:00007910       ??_C@_0EK@EKAIJEBL@Cooking?3?3cookConvexMesh?3?5user?9p@ 00000001801e1910     GuCookingConvexMesh.obj
 0002:00007960       ??_C@_0FA@GFFGAPML@Cooking?3?3cookConvexMesh?3?5provid@ 00000001801e1960     GuCookingConvexMesh.obj
 0002:000079b0       ??_C@_0EP@PKDCPNNO@Cooking?3?3cookConvexMesh?3?5provid@ 00000001801e19b0     GuCookingConvexMesh.obj
 0002:00007a00       ??_C@_0EO@LKFMMDE@Cooking?3?3cookConvexMesh?3?5user?9p@ 00000001801e1a00     GuCookingConvexMesh.obj
 0002:00007a50       ??_C@_0EL@KJEPJALG@Cooking?3?3cookConvexMesh?3?5user?9p@ 00000001801e1a50     GuCookingConvexMesh.obj
 0002:00007aa0       ??_C@_0FM@LHMEBKMM@Cooking?3?3cookConvexMesh?3?5GPU?9co@ 00000001801e1aa0     GuCookingConvexMesh.obj
 0002:00007b00       ??_C@_0FJ@FHCFFABE@Cooking?3?3cookConvexMesh?3?5GPU?9co@ 00000001801e1b00     GuCookingConvexMesh.obj
 0002:00007b60       ??_C@_0LM@CHONPBFM@Cooking?3?3cookConvexMesh?3?5GPU?9co@ 00000001801e1b60     GuCookingConvexMesh.obj
 0002:00007c20       ??_C@_0FM@JHNCJCMB@E?3?2Physx?2PhysX?9106?40?9physx?95?44?4@ 00000001801e1c20     GuCookingConvexMesh.obj
 0002:00007ca0       ??_7TriangleMeshBuilder@physx@@6B@ 00000001801e1ca0     GuCookingTriangleMesh.obj
 0002:00007cc8       ??_7RTreeTriangleMeshBuilder@physx@@6B@ 00000001801e1cc8     GuCookingTriangleMesh.obj
 0002:00007cf0       ??_7BV4TriangleMeshBuilder@physx@@6B@ 00000001801e1cf0     GuCookingTriangleMesh.obj
 0002:00007d20       ??_C@_0FO@LJBFPAJD@E?3?2Physx?2PhysX?9106?40?9physx?95?44?4@ 00000001801e1d20     GuCookingTriangleMesh.obj
 0002:00007d80       ??_C@_0EM@DBPINPE@TriangleMeshBuilder?3?3cleanMesh?3@ 00000001801e1d80     GuCookingTriangleMesh.obj
 0002:00007dd0       ??_C@_0EF@MLNDPEDJ@TriangleMeshBuilder?3?3cleanMesh?3@ 00000001801e1dd0     GuCookingTriangleMesh.obj
 0002:00007e20       ??_C@_0FJ@HHJLKGDF@TriangleMesh?3?5triangles?5are?5too@ 00000001801e1e20     GuCookingTriangleMesh.obj
 0002:00007e80       ??_C@_0CN@KGPHHHLK@TriangleMesh?3?5mesh?5is?5too?5big?5f@ 00000001801e1e80     GuCookingTriangleMesh.obj
 0002:00007eb0       ??_C@_0DD@CMJGDCNN@TriangleMesh?3?3loadFromDesc?3?5des@ 00000001801e1eb0     GuCookingTriangleMesh.obj
 0002:00007ef0       ??_C@_0ED@ILJJNHIP@TriangleMesh?3?3loadFromDesc?3?5mPa@ 00000001801e1ef0     GuCookingTriangleMesh.obj
 0002:00007f40       ??_C@_0EP@FHJBNFFH@Requesting?5SDF?5for?5mesh?5without@ 00000001801e1f40     GuCookingTriangleMesh.obj
 0002:00007f90       ??_C@_0BK@JIDHMMCE@BV4?5tree?5failed?5to?5build?4@ 00000001801e1f90     GuCookingTriangleMesh.obj
 0002:00007fb0       ??_C@_0BL@DHNECNBE@BV32?5tree?5failed?5to?5build?4@ 00000001801e1fb0     GuCookingTriangleMesh.obj
 0002:00007fd0       ??_7RTreeCookerRemap@@6B@  00000001801e1fd0     GuCookingTriangleMesh.obj
 0002:00007fe0       ??_C@_0FC@PJIHAFK@Cooking?3?3validateTriangleMesh?3?5@ 00000001801e1fe0     GuCookingTriangleMesh.obj
 0002:000080c0       ??_7PxCollisionTetrahedronMeshData@physx@@6B@ 00000001801e20c0     GuCookingTetrahedronMesh.obj
 0002:000080f0       ??_7PxSimulationTetrahedronMeshData@physx@@6B@ 00000001801e20f0     GuCookingTetrahedronMesh.obj
 0002:00008110       ??_7CollisionTetrahedronMeshData@Gu@physx@@6B@ 00000001801e2110     GuCookingTetrahedronMesh.obj
 0002:00008140       ??_7SimulationTetrahedronMeshData@Gu@physx@@6B@ 00000001801e2140     GuCookingTetrahedronMesh.obj
 0002:00008160       ??_C@_0GB@FINPKGEI@E?3?2Physx?2PhysX?9106?40?9physx?95?44?4@ 00000001801e2160     GuCookingTetrahedronMesh.obj
 0002:000081c8       ??_7?$LocalConvex@VTetrahedronV@Gu@physx@@@Gu@physx@@6B@ 00000001801e21c8     GuCookingTetrahedronMesh.obj
 0002:000081f8       ??_C@_0CD@OJGNHLOE@BV4_AABBTree?5tree?5failed?5to?5bui@ 00000001801e21f8     GuCookingTetrahedronMesh.obj
 0002:00008220       ??_C@_0DG@NCNIEEHB@TetrahedronMesh?3?3loadFromDesc?3?5@ 00000001801e2220     GuCookingTetrahedronMesh.obj
 0002:00008260       ??_C@_0EG@CJIFGLMC@TetrahedronMesh?3?3loadFromDesc?3?5@ 00000001801e2260     GuCookingTetrahedronMesh.obj
 0002:000082a8       __real@be2aaaab            00000001801e22a8     GuCookingTetrahedronMesh.obj
 0002:000082b0       __xmm@00000003000000030000000300000003 00000001801e22b0     GuCookingTetrahedronMesh.obj
 0002:000082e0       __real@3bc79ca10c924223    00000001801e22e0     GuCookingVolumeIntegration.obj
 0002:000082e8       __real@3f91111111111111    00000001801e22e8     GuCookingVolumeIntegration.obj
 0002:000082f0       __real@3fa5555555555555    00000001801e22f0     GuCookingVolumeIntegration.obj
 0002:000082f8       __real@3fa999999999999a    00000001801e22f8     GuCookingVolumeIntegration.obj
 0002:00008300       __real@3fb5555555555555    00000001801e2300     GuCookingVolumeIntegration.obj
 0002:00008308       __real@3fc5555555555555    00000001801e2308     GuCookingVolumeIntegration.obj
 0002:00008310       __real@3fe0000000000000    00000001801e2310     GuCookingVolumeIntegration.obj
 0002:00008318       __real@3ff0000000000000    00000001801e2318     GuCookingVolumeIntegration.obj
 0002:00008320       __real@4008000000000000    00000001801e2320     GuCookingVolumeIntegration.obj
 0002:00008328       __real@4010000000000000    00000001801e2328     GuCookingVolumeIntegration.obj
 0002:00008330       __real@bf91111111111111    00000001801e2330     GuCookingVolumeIntegration.obj
 0002:00008338       __real@bfa999999999999a    00000001801e2338     GuCookingVolumeIntegration.obj
 0002:00008340       __real@bfb5555555555555    00000001801e2340     GuCookingVolumeIntegration.obj
 0002:00008348       __real@bfc5555555555555    00000001801e2348     GuCookingVolumeIntegration.obj
 0002:00008350       __xmm@3c0888893c0888893c0888893c088889 00000001801e2350     GuCookingVolumeIntegration.obj
 0002:00008360       __xmm@3c8888893c8888893c8888893c888889 00000001801e2360     GuCookingVolumeIntegration.obj
 0002:00008370       __xmm@3d2aaaab3d2aaaab3d2aaaab3d2aaaab 00000001801e2370     GuCookingVolumeIntegration.obj
 0002:00008380       __xmm@3e2aaaab3e2aaaab3e2aaaab3e2aaaab 00000001801e2380     GuCookingVolumeIntegration.obj
 0002:00008390       __xmm@3f811111111111113f81111111111111 00000001801e2390     GuCookingVolumeIntegration.obj
 0002:000083a0       __xmm@3f811111111111113f91111111111111 00000001801e23a0     GuCookingVolumeIntegration.obj
 0002:000083b0       __xmm@3f911111111111113f91111111111111 00000001801e23b0     GuCookingVolumeIntegration.obj
 0002:000083c0       __xmm@3fa55555555555553fa5555555555555 00000001801e23c0     GuCookingVolumeIntegration.obj
 0002:000083d0       __xmm@3fa55555555555553fc5555555555555 00000001801e23d0     GuCookingVolumeIntegration.obj
 0002:000083e0       __xmm@3fd55555555555553fd5555555555555 00000001801e23e0     GuCookingVolumeIntegration.obj
 0002:000083f0       __xmm@3fe00000000000003fe0000000000000 00000001801e23f0     GuCookingVolumeIntegration.obj
 0002:00008400       __xmm@7fffffffffffffff7fffffffffffffff 00000001801e2400     GuCookingVolumeIntegration.obj
 0002:00008410       __xmm@80000000000000008000000000000000 00000001801e2410     GuCookingVolumeIntegration.obj
 0002:00008420       ??_7ConvexHullLib@physx@@6B@ 00000001801e2420     GuCookingQuickHullConvexHullLib.obj
 0002:00008440       ??_7QuickHullConvexHullLib@physx@@6B@ 00000001801e2440     GuCookingQuickHullConvexHullLib.obj
 0002:00008460       ??_C@_0GI@IALGOMOE@E?3?2Physx?2PhysX?9106?40?9physx?95?44?4@ 00000001801e2460     GuCookingQuickHullConvexHullLib.obj
 0002:000084d0       ??_C@_0GA@EPPAEJPM@QuickHullConvexHullLib?3?3findSim@ 00000001801e24d0     GuCookingQuickHullConvexHullLib.obj
 0002:00008530       ??_C@_0FB@NEBIJMML@QuickHullConvexHullLib?3?3findSim@ 00000001801e2530     GuCookingQuickHullConvexHullLib.obj
 0002:00008590       ??_C@_0FB@CLLCBEMM@QuickHullConvexHullLib?3?3findSim@ 00000001801e2590     GuCookingQuickHullConvexHullLib.obj
 0002:000085e4       __real@34c00000            00000001801e25e4     GuCookingQuickHullConvexHullLib.obj
 0002:000085e8       ??_C@_0DP@PJBJBEGF@Meshmerizer?3?3extractHullPolygon@ 00000001801e25e8     GuCookingConvexPolygonsBuilder.obj
 0002:00008630       ??_C@_0GH@FMJGAEFA@E?3?2Physx?2PhysX?9106?40?9physx?95?44?4@ 00000001801e2630     GuCookingConvexPolygonsBuilder.obj
 0002:00008698       ??_C@_0DL@IAFKOCCK@ConvexHullBuilder?3?5convex?5hull?5@ 00000001801e2698     GuCookingConvexPolygonsBuilder.obj
 0002:000086e0       ??_C@_0GF@OJLJHAMH@ConvexHullBuilder?3?3CreateTriang@ 00000001801e26e0     GuCookingConvexPolygonsBuilder.obj
 0002:00008770       ??_C@_0DF@LLFJIJGM@Gu?3?3ConvexMesh?3?3loadFromDesc?3?5d@ 00000001801e2770     GuCookingConvexMeshBuilder.obj
 0002:000087b0       ??_C@_0HK@JOGKIEAA@Gu?3?3ConvexMesh?3?5Mesh?5has?5a?5nega@ 00000001801e27b0     GuCookingConvexMeshBuilder.obj
 0002:00008830       ??_C@_0DH@NJPPHFFD@Gu?3?3ConvexMesh?3?5Error?5computing@ 00000001801e2830     GuCookingConvexMeshBuilder.obj
 0002:00008868       ??_C@_0DJ@LJDLGLDJ@Gu?3?3ConvexMesh?3?3loadConvexHull?3@ 00000001801e2868     GuCookingConvexMeshBuilder.obj
 0002:000088b0       ??_C@_0HJ@KJANPPOE@ConvexMeshBuilder?3?3computeHullP@ 00000001801e28b0     GuCookingConvexMeshBuilder.obj
 0002:00008930       ??_C@_0GD@PEFLFLPC@E?3?2Physx?2PhysX?9106?40?9physx?95?44?4@ 00000001801e2930     GuCookingConvexMeshBuilder.obj
 0002:00008998       ??_C@_0O@JMAGMMGG@PxHullPolygon@ 00000001801e2998     GuCookingConvexMeshBuilder.obj
 0002:000089a8       __real@3f13cd3a            00000001801e29a8     GuCookingConvexMeshBuilder.obj
 0002:000089d0       ??_C@_0GB@CJFIPGFD@E?3?2Physx?2PhysX?9106?40?9physx?95?44?4@ 00000001801e29d0     GuCookingConvexHullUtils.obj
 0002:00008a34       __real@3e20d97c            00000001801e2a34     GuCookingConvexHullUtils.obj
 0002:00008a40       ??_C@_0FP@KLAFPMML@E?3?2Physx?2PhysX?9106?40?9physx?95?44?4@ 00000001801e2a40     GuCookingConvexHullLib.obj
 0002:00008aa0       ??_C@_0JE@PABBNGEL@ConvexHullLib?3?3cleanupVertices?3@ 00000001801e2aa0     GuCookingConvexHullLib.obj
 0002:00008b60       ??_C@_0GD@DKPPPLKH@E?3?2Physx?2PhysX?9106?40?9physx?95?44?4@ 00000001801e2b60     GuCookingConvexHullBuilder.obj
 0002:00008bd0       ??_C@_0EB@DCEIFDGC@ConvexHullBuilder?3?3init?3?5convex@ 00000001801e2bd0     GuCookingConvexHullBuilder.obj
 0002:00008c20       ??_C@_0FM@KICBLCBH@Gu?3?3ConvexMesh?3?3checkHullPolygo@ 00000001801e2c20     GuCookingConvexHullBuilder.obj
 0002:00008c80       ??_C@_0GO@HBFIOGLL@Gu?3?3ConvexMesh?3?3checkHullPolygo@ 00000001801e2c80     GuCookingConvexHullBuilder.obj
 0002:00008cf0       ??_C@_0HF@OLJFBIEL@ConvexHullBuilder?3?5convex?5hull?5@ 00000001801e2cf0     GuCookingConvexHullBuilder.obj
 0002:00008d70       ??_C@_0OG@JNHFOIL@ConvexHullBuilder?3?5convex?5hull?5@ 00000001801e2d70     GuCookingConvexHullBuilder.obj
 0002:00008e60       ??_C@_0EJ@NIOIBAKH@Cooking?3?3cookConvexMesh?3?5non?9ma@ 00000001801e2e60     GuCookingConvexHullBuilder.obj
 0002:00008ed0       ??_C@_0GG@DFJHMFKI@E?3?2Physx?2PhysX?9106?40?9physx?95?44?4@ 00000001801e2ed0     GuCookingBigConvexDataBuilder.obj
 0002:00008f40       __sz_PhysXFoundation_64_dll 00000001801e2f40     PhysXFoundation_64:PhysXFoundation_64.dll
 0002:00008f58       ??_C@_1BK@DBDEIDLH@?$AAK?$AAE?$AAR?$AAN?$AAE?$AAL?$AA3?$AA2?$AA?4?$AAD?$AAL?$AAL@ 00000001801e2f58     Delayimp:delayhlp.obj
 0002:00008f78       ??_C@_0BI@OMNLIJDB@AcquireSRWLockExclusive@ 00000001801e2f78     Delayimp:delayhlp.obj
 0002:00008f90       ??_C@_0BI@HMIEPCNJ@ReleaseSRWLockExclusive@ 00000001801e2f90     Delayimp:delayhlp.obj
 0002:00008fa8       __pfnDliFailureHook2       00000001801e2fa8     Delayimp:delayhk1.obj
 0002:00008fb8       ??_7type_info@@6B@         00000001801e2fb8     LIBCMT:std_type_info_static.obj
 0002:00009020       _pDefaultRawDllMain        00000001801e3020     LIBCMT:dll_dllmain.obj
 0002:00009020       _pRawDllMain               00000001801e3020     LIBCMT:dll_dllmain.obj
 0002:00009030       _load_config_used          00000001801e3030     LIBCMT:loadcfg.obj
 0002:00009170       _pDestructExceptionObject  00000001801e3170     libvcruntime:ehhelpers.obj
 0002:00009890       ??_C@_08EHJDFFNH@__based?$CI@ 00000001801e3890     libvcruntime:undname.obj
 0002:000098a0       ??_C@_07KOLFKCDI@__cdecl@  00000001801e38a0     libvcruntime:undname.obj
 0002:000098a8       ??_C@_08GHMPAG@__pascal@   00000001801e38a8     libvcruntime:undname.obj
 0002:000098b8       ??_C@_09IFJBGAPI@__stdcall@ 00000001801e38b8     libvcruntime:undname.obj
 0002:000098c8       ??_C@_0L@NPHFGOKO@__thiscall@ 00000001801e38c8     libvcruntime:undname.obj
 0002:000098d8       ??_C@_0L@JMKHOMEK@__fastcall@ 00000001801e38d8     libvcruntime:undname.obj
 0002:000098e8       ??_C@_0N@BCKKPABJ@__vectorcall@ 00000001801e38e8     libvcruntime:undname.obj
 0002:000098f8       ??_C@_09HIJEGCPM@__clrcall@ 00000001801e38f8     libvcruntime:undname.obj
 0002:00009904       ??_C@_06GHPCKEAG@__eabi@   00000001801e3904     libvcruntime:undname.obj
 0002:00009910       ??_C@_09IOPIDJLG@__swift_1@ 00000001801e3910     libvcruntime:undname.obj
 0002:00009920       ??_C@_09KFNFGKHF@__swift_2@ 00000001801e3920     libvcruntime:undname.obj
 0002:00009930       ??_C@_09LMMOFLDE@__swift_3@ 00000001801e3930     libvcruntime:undname.obj
 0002:00009940       ??_C@_07JOMMBBKO@__ptr64@  00000001801e3940     libvcruntime:undname.obj
 0002:00009948       ??_C@_0L@PILCLIHE@__restrict@ 00000001801e3948     libvcruntime:undname.obj
 0002:00009958       ??_C@_0M@GFIIJFMG@__unaligned@ 00000001801e3958     libvcruntime:undname.obj
 0002:00009968       ??_C@_09DHDLOLLB@restrict?$CI@ 00000001801e3968     libvcruntime:undname.obj
 0002:00009974       ??_C@_04NIHEBCM@?5new@     00000001801e3974     libvcruntime:undname.obj
 0002:00009980       ??_C@_07FPCDHGMM@?5delete@ 00000001801e3980     libvcruntime:undname.obj
 0002:00009988       ??_C@_01NEMOKFLO@?$DN@     00000001801e3988     libvcruntime:undname.obj
 0002:0000998c       ??_C@_02GPIOPFAK@?$DO?$DO@ 00000001801e398c     libvcruntime:undname.obj
 0002:00009990       ??_C@_02FODMEDOG@?$DM?$DM@ 00000001801e3990     libvcruntime:undname.obj
 0002:00009994       ??_C@_01DCLJPIOD@?$CB@     00000001801e3994     libvcruntime:undname.obj
 0002:00009998       ??_C@_02EGOFBIJA@?$DN?$DN@ 00000001801e3998     libvcruntime:undname.obj
 0002:0000999c       ??_C@_02FDNJECIE@?$CB?$DN@ 00000001801e399c     libvcruntime:undname.obj
 0002:000099a0       ??_C@_02GPECMEKF@?$FL?$FN@ 00000001801e39a0     libvcruntime:undname.obj
 0002:000099a8       ??_C@_08LHJFAFGD@operator@ 00000001801e39a8     libvcruntime:undname.obj
 0002:000099b4       ??_C@_02HBOOOICD@?9?$DO@   00000001801e39b4     libvcruntime:undname.obj
 0002:000099b8       ??_C@_01NBENCBCI@?$CK@     00000001801e39b8     libvcruntime:undname.obj
 0002:000099bc       ??_C@_02ECNGHCIF@?$CL?$CL@ 00000001801e39bc     libvcruntime:undname.obj
 0002:000099c0       ??_C@_02BAABKJLB@?9?9@     00000001801e39c0     libvcruntime:undname.obj
 0002:000099c4       ??_C@_01JOAMLHOP@?9@       00000001801e39c4     libvcruntime:undname.obj
 0002:000099c8       ??_C@_01MIFGBAGJ@?$CL@     00000001801e39c8     libvcruntime:undname.obj
 0002:000099cc       ??_C@_01HNPIGOCE@?$CG@     00000001801e39cc     libvcruntime:undname.obj
 0002:000099d0       ??_C@_03MNHNFDLC@?9?$DO?$CK@ 00000001801e39d0     libvcruntime:undname.obj
 0002:000099d4       ??_C@_01KMDKNFGN@?1@       00000001801e39d4     libvcruntime:undname.obj
 0002:000099d8       ??_C@_01FGNFDNOH@?$CF@     00000001801e39d8     libvcruntime:undname.obj
 0002:000099dc       ??_C@_01MNNFJEPP@?$DM@     00000001801e39dc     libvcruntime:undname.obj
 0002:000099e0       ??_C@_02EHCHHCKH@?$DM?$DN@ 00000001801e39e0     libvcruntime:undname.obj
 0002:000099e4       ??_C@_01PPODPGHN@?$DO@     00000001801e39e4     libvcruntime:undname.obj
 0002:000099e8       ??_C@_02EEKDKGMJ@?$DO?$DN@ 00000001801e39e8     libvcruntime:undname.obj
 0002:000099ec       ??_C@_01IHBHIGKO@?0@       00000001801e39ec     libvcruntime:undname.obj
 0002:000099f0       ??_C@_02HCKGKOFO@?$CI?$CJ@ 00000001801e39f0     libvcruntime:undname.obj
 0002:000099f4       ??_C@_01PJKLJHI@?$HO@      00000001801e39f4     libvcruntime:undname.obj
 0002:000099f8       ??_C@_01JKBOJNNK@?$FO@     00000001801e39f8     libvcruntime:undname.obj
 0002:000099fc       ??_C@_01DNKMNLPK@?$HM@     00000001801e39fc     libvcruntime:undname.obj
 0002:00009a00       ??_C@_02PPKAJPJL@?$CG?$CG@ 00000001801e3a00     libvcruntime:undname.obj
 0002:00009a04       ??_C@_02NONPIBCD@?$HM?$HM@ 00000001801e3a04     libvcruntime:undname.obj
 0002:00009a08       ??_C@_02FPIMKNGF@?$CK?$DN@ 00000001801e3a08     libvcruntime:undname.obj
 0002:00009a0c       ??_C@_02FOEOMHFC@?$CL?$DN@ 00000001801e3a0c     libvcruntime:undname.obj
 0002:00009a10       ??_C@_02FKMDLLOA@?9?$DN@   00000001801e3a10     libvcruntime:undname.obj
 0002:00009a14       ??_C@_02FJEHGPIO@?1?$DN@   00000001801e3a14     libvcruntime:undname.obj
 0002:00009a18       ??_C@_02FENAOKFI@?$CF?$DN@ 00000001801e3a18     libvcruntime:undname.obj
 0002:00009a1c       ??_C@_03IKFCCPFF@?$DO?$DO?$DN@ 00000001801e3a1c     libvcruntime:undname.obj
 0002:00009a20       ??_C@_03CDNPDDLA@?$DM?$DM?$DN@ 00000001801e3a20     libvcruntime:undname.obj
 0002:00009a24       ??_C@_02FGJGFEAB@?$CG?$DN@ 00000001801e3a24     libvcruntime:undname.obj
 0002:00009a28       ??_C@_02DHLNPPGH@?$HM?$DN@ 00000001801e3a28     libvcruntime:undname.obj
 0002:00009a2c       ??_C@_02MHEGNOJ@?$FO?$DN@  00000001801e3a2c     libvcruntime:undname.obj
 0002:00009a30       ??_C@_09IFPLHPGF@?$GAvftable?8@ 00000001801e3a30     libvcruntime:undname.obj
 0002:00009a40       ??_C@_09BLBHBJP@?$GAvbtable?8@ 00000001801e3a40     libvcruntime:undname.obj
 0002:00009a50       ??_C@_07FEEIOKP@?$GAvcall?8@ 00000001801e3a50     libvcruntime:undname.obj
 0002:00009a58       ??_C@_08LLFFHHDJ@?$GAtypeof?8@ 00000001801e3a58     libvcruntime:undname.obj
 0002:00009a68       ??_C@_0BF@KDPPACIK@?$GAlocal?5static?5guard?8@ 00000001801e3a68     libvcruntime:undname.obj
 0002:00009a80       ??_C@_08OBABFOLI@?$GAstring?8@ 00000001801e3a80     libvcruntime:undname.obj
 0002:00009a90       ??_C@_0BD@JDLKDPAB@?$GAvbase?5destructor?8@ 00000001801e3a90     libvcruntime:undname.obj
 0002:00009aa8       ??_C@_0BN@DEGPLNFK@?$GAvector?5deleting?5destructor?8@ 00000001801e3aa8     libvcruntime:undname.obj
 0002:00009ac8       ??_C@_0BO@OBMKPJIG@?$GAdefault?5constructor?5closure?8@ 00000001801e3ac8     libvcruntime:undname.obj
 0002:00009ae8       ??_C@_0BN@IMDCHIKM@?$GAscalar?5deleting?5destructor?8@ 00000001801e3ae8     libvcruntime:undname.obj
 0002:00009b08       ??_C@_0BO@PFGOCPJJ@?$GAvector?5constructor?5iterator?8@ 00000001801e3b08     libvcruntime:undname.obj
 0002:00009b28       ??_C@_0BN@LFPFMEDL@?$GAvector?5destructor?5iterator?8@ 00000001801e3b28     libvcruntime:undname.obj
 0002:00009b48       ??_C@_0CE@IKBNEHA@?$GAvector?5vbase?5constructor?5itera@ 00000001801e3b48     libvcruntime:undname.obj
 0002:00009b70       ??_C@_0BL@NILFHHPC@?$GAvirtual?5displacement?5map?8@ 00000001801e3b70     libvcruntime:undname.obj
 0002:00009b90       ??_C@_0CB@JONCMFFK@?$GAeh?5vector?5constructor?5iterator@ 00000001801e3b90     libvcruntime:undname.obj
 0002:00009bb8       ??_C@_0CA@GCEOPDGL@?$GAeh?5vector?5destructor?5iterator?8@ 00000001801e3bb8     libvcruntime:undname.obj
 0002:00009bd8       ??_C@_0CH@OOJPLCPH@?$GAeh?5vector?5vbase?5constructor?5it@ 00000001801e3bd8     libvcruntime:undname.obj
 0002:00009c00       ??_C@_0BL@LLKPOHJI@?$GAcopy?5constructor?5closure?8@ 00000001801e3c00     libvcruntime:undname.obj
 0002:00009c20       ??_C@_0BA@KBCDOMBN@?$GAudt?5returning?8@ 00000001801e3c20     libvcruntime:undname.obj
 0002:00009c30       ??_C@_03KLGMFNMG@?$GAEH@   00000001801e3c30     libvcruntime:undname.obj
 0002:00009c34       ??_C@_05KHLCHHI@?$GARTTI@  00000001801e3c34     libvcruntime:undname.obj
 0002:00009c40       ??_C@_0BA@KKLDJDLB@?$GAlocal?5vftable?8@ 00000001801e3c40     libvcruntime:undname.obj
 0002:00009c50       ??_C@_0CE@IIHCMGGL@?$GAlocal?5vftable?5constructor?5clos@ 00000001801e3c50     libvcruntime:undname.obj
 0002:00009c74       ??_C@_06FHBGPFGH@?5new?$FL?$FN@ 00000001801e3c74     libvcruntime:undname.obj
 0002:00009c80       ??_C@_09LBNFPBCA@?5delete?$FL?$FN@ 00000001801e3c80     libvcruntime:undname.obj
 0002:00009c90       ??_C@_0P@HJKNJFNN@?$GAomni?5callsig?8@ 00000001801e3c90     libvcruntime:undname.obj
 0002:00009ca0       ??_C@_0BL@CNOONJFP@?$GAplacement?5delete?5closure?8@ 00000001801e3ca0     libvcruntime:undname.obj
 0002:00009cc0       ??_C@_0BN@CKNJLHMB@?$GAplacement?5delete?$FL?$FN?5closure?8@ 00000001801e3cc0     libvcruntime:undname.obj
 0002:00009ce0       ??_C@_0CG@CFDHKGGD@?$GAmanaged?5vector?5constructor?5ite@ 00000001801e3ce0     libvcruntime:undname.obj
 0002:00009d08       ??_C@_0CF@IMGKMJNO@?$GAmanaged?5vector?5destructor?5iter@ 00000001801e3d08     libvcruntime:undname.obj
 0002:00009d30       ??_C@_0CG@HLDDJMAG@?$GAeh?5vector?5copy?5constructor?5ite@ 00000001801e3d30     libvcruntime:undname.obj
 0002:00009d58       ??_C@_0CM@FCBBDIGB@?$GAeh?5vector?5vbase?5copy?5construct@ 00000001801e3d58     libvcruntime:undname.obj
 0002:00009d88       ??_C@_0BL@CLIPGLGB@?$GAdynamic?5initializer?5for?5?8@ 00000001801e3d88     libvcruntime:undname.obj
 0002:00009da8       ??_C@_0CB@PDBIFEP@?$GAdynamic?5atexit?5destructor?5for?5@ 00000001801e3da8     libvcruntime:undname.obj
 0002:00009dd0       ??_C@_0CD@CGAJBKEJ@?$GAvector?5copy?5constructor?5iterat@ 00000001801e3dd0     libvcruntime:undname.obj
 0002:00009df8       ??_C@_0CJ@GJELGAMM@?$GAvector?5vbase?5copy?5constructor?5@ 00000001801e3df8     libvcruntime:undname.obj
 0002:00009e28       ??_C@_0CL@FGIJHLCE@?$GAmanaged?5vector?5copy?5constructo@ 00000001801e3e28     libvcruntime:undname.obj
 0002:00009e58       ??_C@_0BM@PMGGMLDN@?$GAlocal?5static?5thread?5guard?8@ 00000001801e3e58     libvcruntime:undname.obj
 0002:00009e78       ??_C@_0N@BDNMDMOL@operator?5?$CC?$CC?5@ 00000001801e3e78     libvcruntime:undname.obj
 0002:00009e88       ??_C@_0BC@GGEBGALA@operator?5co_await@ 00000001801e3e88     libvcruntime:undname.obj
 0002:00009ea0       ??_C@_0M@GAAIMMOH@operator?$DM?$DN?$DO@ 00000001801e3ea0     libvcruntime:undname.obj
 0002:00009eb0       ??_C@_0BC@DAFEJGAK@?5Type?5Descriptor?8@ 00000001801e3eb0     libvcruntime:undname.obj
 0002:00009ec8       ??_C@_0BM@LDKODKLH@?5Base?5Class?5Descriptor?5at?5?$CI@ 00000001801e3ec8     libvcruntime:undname.obj
 0002:00009ee8       ??_C@_0BD@LGICGFMM@?5Base?5Class?5Array?8@ 00000001801e3ee8     libvcruntime:undname.obj
 0002:00009f00       ??_C@_0BN@MECKDCOJ@?5Class?5Hierarchy?5Descriptor?8@ 00000001801e3f00     libvcruntime:undname.obj
 0002:00009f20       ??_C@_0BK@CFCOFLF@?5Complete?5Object?5Locator?8@ 00000001801e3f20     libvcruntime:undname.obj
 0002:00009f40       ??_C@_0BG@JNJLAMPM@?$GAanonymous?5namespace?8@ 00000001801e3f40     libvcruntime:undname.obj
 0002:00009f58       ??_C@_04HEJADOOB@CV?3?5@   00000001801e3f58     libvcruntime:undname.obj
 0002:00009f60       ??_C@_02MOLJINC@?3?3@      00000001801e3f60     libvcruntime:undname.obj
 0002:00009f68       ??_C@_0BE@JAEOCHPE@template?9parameter?9@ 00000001801e3f68     libvcruntime:undname.obj
 0002:00009f80       ??_C@_0BF@LNLGBBNL@?$GAtemplate?9parameter?9@ 00000001801e3f80     libvcruntime:undname.obj
 0002:00009f98       ??_C@_0O@KHGCOMHP@generic?9type?9@ 00000001801e3f98     libvcruntime:undname.obj
 0002:00009fa8       ??_C@_0P@ODDENDLM@?$GAgeneric?9type?9@ 00000001801e3fa8     libvcruntime:undname.obj
 0002:00009fb8       ??_C@_02OHHJMEON@?8?8@     00000001801e3fb8     libvcruntime:undname.obj
 0002:00009fc0       ??_C@_0BN@IBLMMFAP@?$GAnon?9type?9template?9parameter@ 00000001801e3fc0     libvcruntime:undname.obj
 0002:00009fe0       ??_C@_03DLDNIBIK@?$CFlf@   00000001801e3fe0     libvcruntime:undname.obj
 0002:00009fe4       ??_C@_04OFALKAJ@?$DP?$DP_C@ 00000001801e3fe4     libvcruntime:undname.obj
 0002:00009fec       ??_C@_03KHICJKCI@?4?4?4@   00000001801e3fec     libvcruntime:undname.obj
 0002:00009ff0       ??_C@_04HIBGFPH@NULL@      00000001801e3ff0     libvcruntime:undname.obj
 0002:00009ff8       ??_C@_02DPKJAMEF@?$CFd@    00000001801e3ff8     libvcruntime:undname.obj
 0002:0000a000       ??_C@_0BK@IHCCFNEL@?$GAtemplate?9type?9parameter?9@ 00000001801e4000     libvcruntime:undname.obj
 0002:0000a020       ??_C@_0BK@OFCNNNKO@?$GAgeneric?9class?9parameter?9@ 00000001801e4020     libvcruntime:undname.obj
 0002:0000a040       ??_C@_0BL@NGJBLFIL@?$GAgeneric?9method?9parameter?9@ 00000001801e4040     libvcruntime:undname.obj
 0002:0000a060       ??_C@_07OHNGEDJK@nullptr@  00000001801e4060     libvcruntime:undname.obj
 0002:0000a068       ??_C@_06COJIGPIB@lambda@   00000001801e4068     libvcruntime:undname.obj
 0002:0000a070       ??_C@_0BE@EODMJLIF@?$GAtemplate?9parameter@ 00000001801e4070     libvcruntime:undname.obj
 0002:0000a084       ??_C@_03OPGICMGF@?$HN?8?5@ 00000001801e4084     libvcruntime:undname.obj
 0002:0000a088       ??_C@_02IGFCGPIL@?$HN?8@   00000001801e4088     libvcruntime:undname.obj
 0002:0000a090       ??_C@_0N@CBHHHENL@?$GAvtordispex?$HL@ 00000001801e4090     libvcruntime:undname.obj
 0002:0000a0a0       ??_C@_0L@GHPFDFH@?$GAvtordisp?$HL@ 00000001801e40a0     libvcruntime:undname.obj
 0002:0000a0b0       ??_C@_0L@HNGCOGAE@?$GAadjustor?$HL@ 00000001801e40b0     libvcruntime:undname.obj
 0002:0000a0c0       ??_C@_0CB@KJDOOODE@?$GAlocal?5static?5destructor?5helper@ 00000001801e40c0     libvcruntime:undname.obj
 0002:0000a0e8       ??_C@_0DB@ILEFOCIJ@?$GAtemplate?5static?5data?5member?5co@ 00000001801e40e8     libvcruntime:undname.obj
 0002:0000a120       ??_C@_0DA@HGFJFBBE@?$GAtemplate?5static?5data?5member?5de@ 00000001801e4120     libvcruntime:undname.obj
 0002:0000a150       ??_C@_07PGOEDBHP@static?5@ 00000001801e4150     libvcruntime:undname.obj
 0002:0000a158       ??_C@_08NIEOINHE@virtual?5@ 00000001801e4158     libvcruntime:undname.obj
 0002:0000a168       ??_C@_09LAPHOOG@private?3?5@ 00000001801e4168     libvcruntime:undname.obj
 0002:0000a178       ??_C@_0M@GAIFPFIP@protected?3?5@ 00000001801e4178     libvcruntime:undname.obj
 0002:0000a188       ??_C@_08GPDDCMKI@public?3?5@ 00000001801e4188     libvcruntime:undname.obj
 0002:0000a198       ??_C@_08KJLFOPNE@?$FLthunk?$FN?3@ 00000001801e4198     libvcruntime:undname.obj
 0002:0000a1a8       ??_C@_0M@DHNBOJMP@extern?5?$CCC?$CC?5@ 00000001801e41a8     libvcruntime:undname.obj
 0002:0000a1b4       ??_C@_02KCKGHPCA@?$CJ?5@   00000001801e41b4     libvcruntime:undname.obj
 0002:0000a1b8       ??_C@_05CIHEBHNO@char?5@   00000001801e41b8     libvcruntime:undname.obj
 0002:0000a1c0       ??_C@_06EHJMALKF@short?5@  00000001801e41c0     libvcruntime:undname.obj
 0002:0000a1c8       ??_C@_04LAHKHJMA@int?5@    00000001801e41c8     libvcruntime:undname.obj
 0002:0000a1d0       ??_C@_05CJIMAING@long?5@   00000001801e41d0     libvcruntime:undname.obj
 0002:0000a1d8       ??_C@_09EBBEKKIH@unsigned?5@ 00000001801e41d8     libvcruntime:undname.obj
 0002:0000a1e4       ??_C@_05BEFAKPML@void?5@   00000001801e41e4     libvcruntime:undname.obj
 0002:0000a1f0       ??_C@_09GAIEOBLP@volatile?5@ 00000001801e41f0     libvcruntime:undname.obj
 0002:0000a200       ??_C@_08PABEKFH@volatile@  00000001801e4200     libvcruntime:undname.obj
 0002:0000a210       ??_C@_0BA@LKIJLKPP@std?3?3nullptr_t?5@ 00000001801e4210     libvcruntime:undname.obj
 0002:0000a220       ??_C@_0P@GCOCNKDM@std?3?3nullptr_t@ 00000001801e4220     libvcruntime:undname.obj
 0002:0000a230       ??_C@_0L@EGPHHEKN@?$DMellipsis?$DO@ 00000001801e4230     libvcruntime:undname.obj
 0002:0000a23c       ??_C@_04EENFHACM@?0?4?4?4@ 00000001801e423c     libvcruntime:undname.obj
 0002:0000a248       ??_C@_0M@ELJOJFFH@?0?$DMellipsis?$DO@ 00000001801e4248     libvcruntime:undname.obj
 0002:0000a258       ??_C@_09DNHFEOJI@?5noexcept@ 00000001801e4258     libvcruntime:undname.obj
 0002:0000a264       ??_C@_03PBJBJNON@cpu@      00000001801e4264     libvcruntime:undname.obj
 0002:0000a268       ??_C@_03DCBBJBAA@amp@      00000001801e4268     libvcruntime:undname.obj
 0002:0000a26c       ??_C@_02KEGNLNML@?0?5@     00000001801e426c     libvcruntime:undname.obj
 0002:0000a270       ??_C@_04ENMBGAPA@char@     00000001801e4270     libvcruntime:undname.obj
 0002:0000a278       ??_C@_05BFKKPKCG@short@    00000001801e4278     libvcruntime:undname.obj
 0002:0000a280       ??_C@_03JBIPMCLC@int@      00000001801e4280     libvcruntime:undname.obj
 0002:0000a284       ??_C@_04GOKPGOLB@long@     00000001801e4284     libvcruntime:undname.obj
 0002:0000a28c       ??_C@_06BNJCAIGJ@double@   00000001801e428c     libvcruntime:undname.obj
 0002:0000a294       ??_C@_06EBGKOKIG@__int8@   00000001801e4294     libvcruntime:undname.obj
 0002:0000a2a0       ??_C@_07ICFHOGAF@__int16@  00000001801e42a0     libvcruntime:undname.obj
 0002:0000a2a8       ??_C@_07OFLPPHGP@__int32@  00000001801e42a8     libvcruntime:undname.obj
 0002:0000a2b0       ??_C@_07LFCOJCAC@__int64@  00000001801e42b0     libvcruntime:undname.obj
 0002:0000a2b8       ??_C@_08GAHOLHEO@__int128@ 00000001801e42b8     libvcruntime:undname.obj
 0002:0000a2c8       ??_C@_09EEKGDCPH@?$DMunknown?$DO@ 00000001801e42c8     libvcruntime:undname.obj
 0002:0000a2d8       ??_C@_07CFHGOPCN@char8_t@  00000001801e42d8     libvcruntime:undname.obj
 0002:0000a2e0       ??_C@_08HBIPOFJB@char16_t@ 00000001801e42e0     libvcruntime:undname.obj
 0002:0000a2f0       ??_C@_08IECNCBKG@char32_t@ 00000001801e42f0     libvcruntime:undname.obj
 0002:0000a300       ??_C@_07CLGGIAMF@wchar_t@  00000001801e4300     libvcruntime:undname.obj
 0002:0000a308       ??_C@_04HAPDLBFF@auto@     00000001801e4308     libvcruntime:undname.obj
 0002:0000a310       ??_C@_0P@LHCGKIGK@decltype?$CIauto?$CJ@ 00000001801e4310     libvcruntime:undname.obj
 0002:0000a320       ??_C@_05PCNBGHCF@this?5@   00000001801e4320     libvcruntime:undname.obj
 0002:0000a328       ??_C@_06GCICPBLB@__w64?5@  00000001801e4328     libvcruntime:undname.obj
 0002:0000a330       ??_C@_07NFANNNEC@UNKNOWN@  00000001801e4330     libvcruntime:undname.obj
 0002:0000a338       ??_C@_07EDHNAJHC@signed?5@ 00000001801e4338     libvcruntime:undname.obj
 0002:0000a340       ??_C@_05BNCCCJPP@const@    00000001801e4340     libvcruntime:undname.obj
 0002:0000a348       ??_C@_09EFNPDFFP@?5volatile@ 00000001801e4348     libvcruntime:undname.obj
 0002:0000a358       ??_C@_0P@GCIFDJCJ@?$GAunknown?5ecsu?8@ 00000001801e4358     libvcruntime:undname.obj
 0002:0000a368       ??_C@_06MOJHIBMG@union?5@  00000001801e4368     libvcruntime:undname.obj
 0002:0000a370       ??_C@_07DIBCDNGL@struct?5@ 00000001801e4370     libvcruntime:undname.obj
 0002:0000a378       ??_C@_06LJBABKPM@class?5@  00000001801e4378     libvcruntime:undname.obj
 0002:0000a380       ??_C@_08KOFANOFK@coclass?5@ 00000001801e4380     libvcruntime:undname.obj
 0002:0000a390       ??_C@_0N@DLIEFKNA@cointerface?5@ 00000001801e4390     libvcruntime:undname.obj
 0002:0000a3a0       ??_C@_05LJGMCFOG@enum?5@   00000001801e43a0     libvcruntime:undname.obj
 0002:0000a3a8       ??_C@_06LIJLOJAG@const?5@  00000001801e43a8     libvcruntime:undname.obj
 0002:0000a3b0       ??_C@_02KJPKDIBN@?$CG?5@   00000001801e43b0     libvcruntime:undname.obj
 0002:0000a3b4       ??_C@_03PCKGMOPB@?$CG?$CG?5@ 00000001801e43b4     libvcruntime:undname.obj
 0002:0000a3b8       ??_C@_0M@EALIELKG@cli?3?3array?$DM@ 00000001801e43b8     libvcruntime:undname.obj
 0002:0000a3c8       ??_C@_0O@GKABPPIF@cli?3?3pin_ptr?$DM@ 00000001801e43c8     libvcruntime:undname.obj
 0002:0000a3d8       ??_C@_02GOGNNPBN@?$CJ?$FL@ 00000001801e43d8     libvcruntime:undname.obj
 0002:0000a3dc       ??_C@_06EEGAIFAK@?$HLflat?$HN@ 00000001801e43dc     libvcruntime:undname.obj
 0002:0000a3e4       ??_C@_05JIBOFOHK@?$HLfor?5@ 00000001801e43e4     libvcruntime:undname.obj
 0002:0000a3ec       ??_C@_02MDINNEEG@s?5@      00000001801e43ec     libvcruntime:undname.obj
 0002:0000a3f8       ??_7charNode@@6B@          00000001801e43f8     libvcruntime:undname.obj
 0002:0000a420       ??_7pcharNode@@6B@         00000001801e4420     libvcruntime:undname.obj
 0002:0000a448       ??_7pDNameNode@@6B@        00000001801e4448     libvcruntime:undname.obj
 0002:0000a470       ??_7DNameStatusNode@@6B@   00000001801e4470     libvcruntime:undname.obj
 0002:0000a498       ??_7pairNode@@6B@          00000001801e4498     libvcruntime:undname.obj
 0002:0000a5c0       ??_C@_04OKOHEJBO@?5?$DP?$DP?5@ 00000001801e45c0     libvcruntime:undname.obj
 0002:0000a5d0       ?nodes@?1??make@DNameStatusNode@@SAPEBV2@W4DNameStatus@@@Z@4QBV2@B 00000001801e45d0     libvcruntime:undname.obj
 0002:0000a610       ?s_negLengthTab@FH4@@3QBCB 00000001801e4610     libvcruntime:risctrnsctrl.obj
 0002:0000a620       ?s_shiftTab@FH4@@3QBEB     00000001801e4620     libvcruntime:risctrnsctrl.obj
 0002:0000a780       ??_C@_1DM@KHCHBNEB@?$AAa?$AAp?$AAi?$AA?9?$AAm?$AAs?$AA?9?$AAw?$AAi?$AAn?$AA?9?$AAc?$AAo?$AAr?$AAe@ 00000001801e4780     libvcruntime:winapi_downlevel.obj
 0002:0000a7c0       ??_C@_1DK@LPPGFMPP@?$AAa?$AAp?$AAi?$AA?9?$AAm?$AAs?$AA?9?$AAw?$AAi?$AAn?$AA?9?$AAc?$AAo?$AAr?$AAe@ 00000001801e47c0     libvcruntime:winapi_downlevel.obj
 0002:0000a800       ??_C@_1BC@GDMECMAK@?$AAk?$AAe?$AAr?$AAn?$AAe?$AAl?$AA3?$AA2@ 00000001801e4800     libvcruntime:winapi_downlevel.obj
 0002:0000a818       ??_C@_1BA@PFFKHIOG@?$AAa?$AAp?$AAi?$AA?9?$AAm?$AAs?$AA?9@ 00000001801e4818     libvcruntime:winapi_downlevel.obj
 0002:0000a830       ??_C@_08KNHFBNJ@FlsAlloc@  00000001801e4830     libvcruntime:winapi_downlevel.obj
 0002:0000a848       ??_C@_07PEJMOBNF@FlsFree@  00000001801e4848     libvcruntime:winapi_downlevel.obj
 0002:0000a858       ??_C@_0M@GDNOONDI@FlsGetValue@ 00000001801e4858     libvcruntime:winapi_downlevel.obj
 0002:0000a870       ??_C@_0M@JCPCPOEF@FlsSetValue@ 00000001801e4870     libvcruntime:winapi_downlevel.obj
 0002:0000a888       ??_C@_0BM@HCFOFFN@InitializeCriticalSectionEx@ 00000001801e4888     libvcruntime:winapi_downlevel.obj
 0002:0000a8b0       ??_7exception@std@@6B@     00000001801e48b0     libvcruntime:frame.obj
 0002:0000a8c0       ??_C@_0BC@EOODALEL@Unknown?5exception@ 00000001801e48c0     libvcruntime:frame.obj
 0002:0000a8e0       ??_7bad_exception@std@@6B@ 00000001801e48e0     libvcruntime:frame.obj
 0002:0000a8f0       ??_C@_0O@DPKOEFFH@bad?5exception@ 00000001801e48f0     libvcruntime:frame.obj
 0002:0000ac40       ?standard_lookup_table_spectre@__crt_stdio_output@@3V?$spectre_mitigated_lookup_table@Ustate_transition_pair@__crt_stdio_output@@$0IA@@1@B 00000001801e4c40     libucrt:output.obj
 0002:0000ad40       ?format_validation_lookup_table_spectre@__crt_stdio_output@@3V?$spectre_mitigated_lookup_table@Ustate_transition_pair@__crt_stdio_output@@$0IA@@1@B 00000001801e4d40     libucrt:output.obj
 0002:0000ae40       ??_C@_1O@CEDCILHN@?$AA?$CI?$AAn?$AAu?$AAl?$AAl?$AA?$CJ@ 00000001801e4e40     libucrt:output.obj
 0002:0000ae50       ??_C@_06OJHGLDPL@?$CInull?$CJ@ 00000001801e4e50     libucrt:output.obj
 0002:0000bee8       __real@3f1a36e2eb1c432d    00000001801e5ee8     libucrt:atan2f.obj
 0002:0000bef0       __real@3fb0000000000000    00000001801e5ef0     libucrt:atan2f.obj
 0002:0000bef8       __real@3fc2492482bd6be1    00000001801e5ef8     libucrt:atan2f.obj
 0002:0000bf00       __real@3fc99999999643a3    00000001801e5f00     libucrt:atan2f.obj
 0002:0000bf08       __real@3fd5555555550877    00000001801e5f08     libucrt:atan2f.obj
 0002:0000bf10       __real@3fd5555555555538    00000001801e5f10     libucrt:atan2f.obj
 0002:0000bf18       __real@3ff921fb54442d18    00000001801e5f18     libucrt:atan2f.obj
 0002:0000bf20       __real@400921fb54442d18    00000001801e5f20     libucrt:atan2f.obj
 0002:0000bf28       __real@40490fdb            00000001801e5f28     libucrt:atan2f.obj
 0002:0000bf30       __real@4070000000000000    00000001801e5f30     libucrt:atan2f.obj
 0002:0000bf38       __real@bf490fdb            00000001801e5f38     libucrt:atan2f.obj
 0002:0000bf3c       __real@bfc90fdb            00000001801e5f3c     libucrt:atan2f.obj
 0002:0000bf40       __real@c016cbe4            00000001801e5f40     libucrt:atan2f.obj
 0002:0000bf44       __real@c0490fdb            00000001801e5f44     libucrt:atan2f.obj
 0002:0000bf48       ??_C@_05FFFCHCED@acosf@    00000001801e5f48     libucrt:acosf.obj
 0002:0000bf50       __real@3b81ce6b            00000001801e5f50     libucrt:acosf.obj
 0002:0000bf58       __real@3c91a62633145c07    00000001801e5f58     libucrt:acosf.obj
 0002:0000bf60       __real@3d678bdd            00000001801e5f60     libucrt:acosf.obj
 0002:0000bf64       __real@3e3c94dc            00000001801e5f64     libucrt:acosf.obj
 0002:0000bf68       __real@3f561f0d            00000001801e5f68     libucrt:acosf.obj
 0002:0000bf6c       __real@3f8d6fa5            00000001801e5f6c     libucrt:acosf.obj
 0002:0000bf70       __real@bc5b3fe1            00000001801e5f70     libucrt:acosf.obj
 0002:0000bf80       __acrt_exception_action_table 00000001801e5f80     libucrt:exception_filter.obj
 0002:0000c040       __acrt_signal_action_table_count 00000001801e6040     libucrt:exception_filter.obj
 0002:0000c048       __acrt_signal_action_first_fpe_index 00000001801e6048     libucrt:exception_filter.obj
 0002:0000c050       __acrt_signal_action_fpe_count 00000001801e6050     libucrt:exception_filter.obj
 0002:0000c0a8       ??_C@_1BI@BGOHAHKC@?$AAm?$AAs?$AAc?$AAo?$AAr?$AAe?$AAe?$AA?4?$AAd?$AAl?$AAl@ 00000001801e60a8     libucrt:exit.obj
 0002:0000c0c0       ??_C@_0P@MIGLKIOC@CorExitProcess@ 00000001801e60c0     libucrt:exit.obj
 0002:0000c390       ??_C@_04LAGPAAHP@sinf@     00000001801e6390     libucrt:sincos_special.obj
 0002:0000c398       ??_C@_04OBBKPIAC@cosf@     00000001801e6398     libucrt:sincos_special.obj
 0002:0000c3a0       ??_C@_04MHPLPEIA@tanf@     00000001801e63a0     libucrt:sincos_special.obj
 0002:0000c3b0       __Lcosfarray               00000001801e63b0     libucrt:lsincosf_array.obj
 0002:0000c3e0       __Lsinfarray               00000001801e63e0     libucrt:lsincosf_array.obj
 0002:0000c400       __L_2_by_pi_bits           00000001801e6400     libucrt:l2_by_pi_bits.obj
 0002:0000c760       ??_C@_1EA@JGEFHKEI@?$AAa?$AAp?$AAi?$AA?9?$AAm?$AAs?$AA?9?$AAw?$AAi?$AAn?$AA?9?$AAc?$AAo?$AAr?$AAe@ 00000001801e6760     libucrt:winapi_thunks.obj
 0002:0000c7a0       ??_C@_1DI@IJCEHOCB@?$AAa?$AAp?$AAi?$AA?9?$AAm?$AAs?$AA?9?$AAw?$AAi?$AAn?$AA?9?$AAc?$AAo?$AAr?$AAe@ 00000001801e67a0     libucrt:winapi_thunks.obj
 0002:0000c7e0       ??_C@_1EI@MPIAOHOC@?$AAa?$AAp?$AAi?$AA?9?$AAm?$AAs?$AA?9?$AAw?$AAi?$AAn?$AA?9?$AAc?$AAo?$AAr?$AAe@ 00000001801e67e0     libucrt:winapi_thunks.obj
